
IZI-CC4+.elf:     file format elf32-littlearm

Sections:
Idx Name          Size      VMA       LMA       File off  Algn
  0 .text         0000e758  00004000  00004000  00004000  2**4
                  CONTENTS, ALLOC, LOAD, READONLY, CODE
  1 .ARM.exidx    00000008  00012758  00012758  00012758  2**2
                  CONTENTS, ALLOC, LOAD, READONLY, DATA
  2 .bootloadersection 00000000  00000000  00000000  00030000  2**0
                  CONTENTS
  3 .appsettingsection 00000000  0003c000  0003c000  00030000  2**0
                  CONTENTS
  4 .firmwareinfosection 00000100  0001ff00  0001ff00  0002ff00  2**2
                  CONTENTS, ALLOC, LOAD, READONLY, DATA
  5 .mirrorsection 00000000  00022000  00022000  00030000  2**0
                  CONTENTS
  6 .relocate     000008f4  20002200  00012760  00022200  2**2
                  CONTENTS, ALLOC, LOAD, DATA
  7 .energy_ram   0000007c  2001fe80  2001fe80  0003fe80  2**2
                  ALLOC
  8 .boot_ram     00000034  2001ff00  2001ff00  0003ff00  2**2
                  ALLOC
  9 .can_ram      00000000  20000000  20000000  00030000  2**0
                  CONTENTS
 10 .qspi         00000000  04000000  04000000  00030000  2**0
                  CONTENTS
 11 .bss          0000cf0c  20002b00  00013060  00022af4  2**4
                  ALLOC
 12 .stack        00001004  2000fa0c  0001ff6c  0003fa0c  2**0
                  ALLOC
 13 .ARM.attributes 0000002e  00000000  00000000  00030000  2**0
                  CONTENTS, READONLY
 14 .comment      00000059  00000000  00000000  0003002e  2**0
                  CONTENTS, READONLY
 15 .debug_frame  00000814  00000000  00000000  00030088  2**2
                  CONTENTS, READONLY, DEBUGGING

Disassembly of section .text:

00004000 <exception_table>:
    4000:	10 0a 01 20 55 64 00 00 21 64 00 00 2d 64 00 00     ... Ud..!d..-d..
    4010:	31 64 00 00 3d 64 00 00 49 64 00 00 00 00 00 00     1d..=d..Id......
	...
    402c:	f1 db 00 00 09 64 00 00 00 00 00 00 81 dc 00 00     .....d..........
    403c:	e5 dc 00 00 fd 63 00 00 fd 63 00 00 fd 63 00 00     .....c...c...c..
    404c:	fd 63 00 00 fd 63 00 00 fd 63 00 00 fd 63 00 00     .c...c...c...c..
    405c:	fd 63 00 00 fd 63 00 00 fd 63 00 00 fd 63 00 00     .c...c...c...c..
    406c:	fd 63 00 00 fd 63 00 00 fd 63 00 00 fd 63 00 00     .c...c...c...c..
    407c:	fd 63 00 00 fd 63 00 00 fd 63 00 00 fd 63 00 00     .c...c...c...c..
    408c:	fd 63 00 00 fd 63 00 00 fd 63 00 00 fd 63 00 00     .c...c...c...c..
    409c:	fd 63 00 00 fd 63 00 00 fd 63 00 00 fd 63 00 00     .c...c...c...c..
    40ac:	fd 63 00 00 15 64 00 00 09 8f 00 00 d9 8e 00 00     .c...d..........
    40bc:	35 43 00 00 fd 63 00 00 fd 63 00 00 fd 63 00 00     5C...c...c...c..
    40cc:	fd 63 00 00 15 64 00 00 15 64 00 00 15 64 00 00     .c...d...d...d..
    40dc:	15 64 00 00 15 64 00 00 15 64 00 00 00 00 00 00     .d...d...d......
	...
    40f4:	8d 90 00 00 fd 63 00 00 fd 63 00 00 fd 63 00 00     .....c...c...c..
    4104:	fd 63 00 00 2d 5d 00 00 85 5d 00 00 a5 5d 00 00     .c..-]...]...]..
    4114:	c5 5d 00 00 f5 5d 00 00 4d 5e 00 00 8d 5e 00 00     .]...]..M^...^..
    4124:	ad 5e 00 00 fd 63 00 00 fd 63 00 00 fd 63 00 00     .^...c...c...c..
    4134:	fd 63 00 00 fd 63 00 00 fd 63 00 00 fd 63 00 00     .c...c...c...c..
    4144:	fd 63 00 00 fd 63 00 00 fd 63 00 00 fd 63 00 00     .c...c...c...c..
    4154:	fd 63 00 00 00 00 00 00 00 00 00 00 00 00 00 00     .c..............
	...
    4178:	59 8c 00 00 fd 63 00 00 fd 63 00 00 fd 63 00 00     Y....c...c...c..
    4188:	fd 63 00 00 fd 63 00 00 00 00 00 00 c9 73 00 00     .c...c.......s..
    4198:	09 64 00 00 09 64 00 00 09 64 00 00 09 64 00 00     .d...d...d...d..
    41a8:	09 64 00 00 09 64 00 00 b9 72 00 00 09 64 00 00     .d...d...r...d..
    41b8:	09 64 00 00 09 64 00 00 09 64 00 00 41 73 00 00     .d...d...d..As..
    41c8:	09 64 00 00 09 64 00 00 09 64 00 00 31 72 00 00     .d...d...d..1r..
    41d8:	fd 63 00 00 fd 63 00 00 fd 63 00 00 a9 d9 00 00     .c...c...c......
    41e8:	dd d9 00 00 fd 63 00 00 fd 63 00 00 fd 63 00 00     .....c...c...c..
    41f8:	fd 63 00 00 45 d6 00 00 fd 63 00 00 00 00 00 00     .c..E....c......
    4208:	00 00 00 00 fd 63 00 00 fd 63 00 00 fd 63 00 00     .....c...c...c..
    4218:	fd 63 00 00 b5 cd 00 00 fd 63 00 00 89 cc 00 00     .c.......c......
    4228:	fd 63 00 00 fd 63 00 00 fd 63 00 00 fd 63 00 00     .c...c...c...c..
    4238:	fd 63 00 00 fd 63 00 00 fd 63 00 00 fd 63 00 00     .c...c...c...c..
    4248:	fd 63 00 00 fd 63 00 00 fd 63 00 00 fd 63 00 00     .c...c...c...c..
    4258:	fd 63 00 00 fd 63 00 00 00 00 00 00                 .c...c......

00004264 <__do_global_dtors_aux>:
    4264:	b510      	push	{r4, lr}
    4266:	4c05      	ldr	r4, [pc, #20]	; (427c <__do_global_dtors_aux+0x18>)
    4268:	7823      	ldrb	r3, [r4, #0]
    426a:	b933      	cbnz	r3, 427a <__do_global_dtors_aux+0x16>
    426c:	4b04      	ldr	r3, [pc, #16]	; (4280 <__do_global_dtors_aux+0x1c>)
    426e:	b113      	cbz	r3, 4276 <__do_global_dtors_aux+0x12>
    4270:	4804      	ldr	r0, [pc, #16]	; (4284 <__do_global_dtors_aux+0x20>)
    4272:	f3af 8000 	nop.w
    4276:	2301      	movs	r3, #1
    4278:	7023      	strb	r3, [r4, #0]
    427a:	bd10      	pop	{r4, pc}
    427c:	20002b00 	.word	0x20002b00
    4280:	00000000 	.word	0x00000000
    4284:	00020000 	.word	0x00020000

00004288 <frame_dummy>:
    4288:	4b0c      	ldr	r3, [pc, #48]	; (42bc <frame_dummy+0x34>)
    428a:	b143      	cbz	r3, 429e <frame_dummy+0x16>
    428c:	480c      	ldr	r0, [pc, #48]	; (42c0 <frame_dummy+0x38>)
    428e:	490d      	ldr	r1, [pc, #52]	; (42c4 <frame_dummy+0x3c>)
    4290:	b510      	push	{r4, lr}
    4292:	f3af 8000 	nop.w
    4296:	480c      	ldr	r0, [pc, #48]	; (42c8 <frame_dummy+0x40>)
    4298:	6803      	ldr	r3, [r0, #0]
    429a:	b923      	cbnz	r3, 42a6 <frame_dummy+0x1e>
    429c:	bd10      	pop	{r4, pc}
    429e:	480a      	ldr	r0, [pc, #40]	; (42c8 <frame_dummy+0x40>)
    42a0:	6803      	ldr	r3, [r0, #0]
    42a2:	b933      	cbnz	r3, 42b2 <frame_dummy+0x2a>
    42a4:	4770      	bx	lr
    42a6:	4b09      	ldr	r3, [pc, #36]	; (42cc <frame_dummy+0x44>)
    42a8:	2b00      	cmp	r3, #0
    42aa:	d0f7      	beq.n	429c <frame_dummy+0x14>
    42ac:	e8bd 4010 	ldmia.w	sp!, {r4, lr}
    42b0:	4718      	bx	r3
    42b2:	4b06      	ldr	r3, [pc, #24]	; (42cc <frame_dummy+0x44>)
    42b4:	2b00      	cmp	r3, #0
    42b6:	d0f5      	beq.n	42a4 <frame_dummy+0x1c>
    42b8:	4718      	bx	r3
    42ba:	bf00      	nop
    42bc:	00000000 	.word	0x00000000
    42c0:	00020000 	.word	0x00020000
    42c4:	20002b04 	.word	0x20002b04
    42c8:	00020000 	.word	0x00020000
    42cc:	00000000 	.word	0x00000000

000042d0 <DMA_Init>:
    42d0:	b410      	push	{r4}
    42d2:	4913      	ldr	r1, [pc, #76]	; (4320 <DMA_Init+0x50>)
    42d4:	4a13      	ldr	r2, [pc, #76]	; (4324 <DMA_Init+0x54>)
    42d6:	690b      	ldr	r3, [r1, #16]
    42d8:	f443 7300 	orr.w	r3, r3, #512	; 0x200
    42dc:	610b      	str	r3, [r1, #16]
    42de:	8813      	ldrh	r3, [r2, #0]
    42e0:	f043 0301 	orr.w	r3, r3, #1
    42e4:	8013      	strh	r3, [r2, #0]
    42e6:	8813      	ldrh	r3, [r2, #0]
    42e8:	07db      	lsls	r3, r3, #31
    42ea:	d4fc      	bmi.n	42e6 <DMA_Init+0x16>
    42ec:	4b0e      	ldr	r3, [pc, #56]	; (4328 <DMA_Init+0x58>)
    42ee:	490f      	ldr	r1, [pc, #60]	; (432c <DMA_Init+0x5c>)
    42f0:	6351      	str	r1, [r2, #52]	; 0x34
    42f2:	4c0f      	ldr	r4, [pc, #60]	; (4330 <DMA_Init+0x60>)
    42f4:	6394      	str	r4, [r2, #56]	; 0x38
    42f6:	f640 7002 	movw	r0, #3842	; 0xf02
    42fa:	f04f 4100 	mov.w	r1, #2147483648	; 0x80000000
    42fe:	8010      	strh	r0, [r2, #0]
    4300:	f8c3 1080 	str.w	r1, [r3, #128]	; 0x80
    4304:	f3bf 8f4f 	dsb	sy
    4308:	f3bf 8f6f 	isb	sy
    430c:	22a0      	movs	r2, #160	; 0xa0
    430e:	f8c3 1180 	str.w	r1, [r3, #384]	; 0x180
    4312:	f883 231f 	strb.w	r2, [r3, #799]	; 0x31f
    4316:	f85d 4b04 	ldr.w	r4, [sp], #4
    431a:	6019      	str	r1, [r3, #0]
    431c:	4770      	bx	lr
    431e:	bf00      	nop
    4320:	40000800 	.word	0x40000800
    4324:	4100a000 	.word	0x4100a000
    4328:	e000e100 	.word	0xe000e100
    432c:	2000daf0 	.word	0x2000daf0
    4330:	2000e370 	.word	0x2000e370

00004334 <DMAC_0_Handler>:
    4334:	b510      	push	{r4, lr}
    4336:	4b24      	ldr	r3, [pc, #144]	; (43c8 <DMAC_0_Handler+0x94>)
    4338:	f893 204e 	ldrb.w	r2, [r3, #78]	; 0x4e
    433c:	0791      	lsls	r1, r2, #30
    433e:	d509      	bpl.n	4354 <DMAC_0_Handler+0x20>
    4340:	2102      	movs	r1, #2
    4342:	4a22      	ldr	r2, [pc, #136]	; (43cc <DMAC_0_Handler+0x98>)
    4344:	f883 104e 	strb.w	r1, [r3, #78]	; 0x4e
    4348:	6813      	ldr	r3, [r2, #0]
    434a:	4a21      	ldr	r2, [pc, #132]	; (43d0 <DMAC_0_Handler+0x9c>)
    434c:	2100      	movs	r1, #0
    434e:	6011      	str	r1, [r2, #0]
    4350:	b103      	cbz	r3, 4354 <DMAC_0_Handler+0x20>
    4352:	4798      	blx	r3
    4354:	4b1c      	ldr	r3, [pc, #112]	; (43c8 <DMAC_0_Handler+0x94>)
    4356:	f893 204e 	ldrb.w	r2, [r3, #78]	; 0x4e
    435a:	0752      	lsls	r2, r2, #29
    435c:	bf44      	itt	mi
    435e:	2204      	movmi	r2, #4
    4360:	f883 204e 	strbmi.w	r2, [r3, #78]	; 0x4e
    4364:	4b18      	ldr	r3, [pc, #96]	; (43c8 <DMAC_0_Handler+0x94>)
    4366:	f893 204e 	ldrb.w	r2, [r3, #78]	; 0x4e
    436a:	07d4      	lsls	r4, r2, #31
    436c:	d506      	bpl.n	437c <DMAC_0_Handler+0x48>
    436e:	4a17      	ldr	r2, [pc, #92]	; (43cc <DMAC_0_Handler+0x98>)
    4370:	68d2      	ldr	r2, [r2, #12]
    4372:	2101      	movs	r1, #1
    4374:	f883 104e 	strb.w	r1, [r3, #78]	; 0x4e
    4378:	b102      	cbz	r2, 437c <DMAC_0_Handler+0x48>
    437a:	4790      	blx	r2
    437c:	4b12      	ldr	r3, [pc, #72]	; (43c8 <DMAC_0_Handler+0x94>)
    437e:	f893 205e 	ldrb.w	r2, [r3, #94]	; 0x5e
    4382:	0790      	lsls	r0, r2, #30
    4384:	d509      	bpl.n	439a <DMAC_0_Handler+0x66>
    4386:	4a11      	ldr	r2, [pc, #68]	; (43cc <DMAC_0_Handler+0x98>)
    4388:	4911      	ldr	r1, [pc, #68]	; (43d0 <DMAC_0_Handler+0x9c>)
    438a:	6852      	ldr	r2, [r2, #4]
    438c:	2402      	movs	r4, #2
    438e:	2000      	movs	r0, #0
    4390:	f883 405e 	strb.w	r4, [r3, #94]	; 0x5e
    4394:	6048      	str	r0, [r1, #4]
    4396:	b102      	cbz	r2, 439a <DMAC_0_Handler+0x66>
    4398:	4790      	blx	r2
    439a:	4b0b      	ldr	r3, [pc, #44]	; (43c8 <DMAC_0_Handler+0x94>)
    439c:	f893 205e 	ldrb.w	r2, [r3, #94]	; 0x5e
    43a0:	0751      	lsls	r1, r2, #29
    43a2:	bf44      	itt	mi
    43a4:	2204      	movmi	r2, #4
    43a6:	f883 205e 	strbmi.w	r2, [r3, #94]	; 0x5e
    43aa:	4b07      	ldr	r3, [pc, #28]	; (43c8 <DMAC_0_Handler+0x94>)
    43ac:	f893 205e 	ldrb.w	r2, [r3, #94]	; 0x5e
    43b0:	07d2      	lsls	r2, r2, #31
    43b2:	d508      	bpl.n	43c6 <DMAC_0_Handler+0x92>
    43b4:	4a05      	ldr	r2, [pc, #20]	; (43cc <DMAC_0_Handler+0x98>)
    43b6:	6912      	ldr	r2, [r2, #16]
    43b8:	2101      	movs	r1, #1
    43ba:	f883 105e 	strb.w	r1, [r3, #94]	; 0x5e
    43be:	b112      	cbz	r2, 43c6 <DMAC_0_Handler+0x92>
    43c0:	e8bd 4010 	ldmia.w	sp!, {r4, lr}
    43c4:	4710      	bx	r2
    43c6:	bd10      	pop	{r4, pc}
    43c8:	4100a000 	.word	0x4100a000
    43cc:	20002b1c 	.word	0x20002b1c
    43d0:	2000dcf0 	.word	0x2000dcf0

000043d4 <DMA_ChannelInit>:
    43d4:	b4f0      	push	{r4, r5, r6, r7}
    43d6:	1d04      	adds	r4, r0, #4
    43d8:	4e0e      	ldr	r6, [pc, #56]	; (4414 <DMA_ChannelInit+0x40>)
    43da:	4f0f      	ldr	r7, [pc, #60]	; (4418 <DMA_ChannelInit+0x44>)
    43dc:	0124      	lsls	r4, r4, #4
    43de:	0212      	lsls	r2, r2, #8
    43e0:	5935      	ldr	r5, [r6, r4]
    43e2:	f045 0501 	orr.w	r5, r5, #1
    43e6:	5135      	str	r5, [r6, r4]
    43e8:	4d0c      	ldr	r5, [pc, #48]	; (441c <DMA_ChannelInit+0x48>)
    43ea:	f847 3020 	str.w	r3, [r7, r0, lsl #2]
    43ee:	f402 42fe 	and.w	r2, r2, #32512	; 0x7f00
    43f2:	eb07 0780 	add.w	r7, r7, r0, lsl #2
    43f6:	f845 1020 	str.w	r1, [r5, r0, lsl #2]
    43fa:	eb06 1300 	add.w	r3, r6, r0, lsl #4
    43fe:	f442 1200 	orr.w	r2, r2, #2097152	; 0x200000
    4402:	9804      	ldr	r0, [sp, #16]
    4404:	60f8      	str	r0, [r7, #12]
    4406:	2107      	movs	r1, #7
    4408:	5132      	str	r2, [r6, r4]
    440a:	f883 104d 	strb.w	r1, [r3, #77]	; 0x4d
    440e:	bcf0      	pop	{r4, r5, r6, r7}
    4410:	4770      	bx	lr
    4412:	bf00      	nop
    4414:	4100a000 	.word	0x4100a000
    4418:	20002b1c 	.word	0x20002b1c
    441c:	2000e570 	.word	0x2000e570

00004420 <DMA_Send>:
    4420:	2802      	cmp	r0, #2
    4422:	d81b      	bhi.n	445c <DMA_Send+0x3c>
    4424:	f5b2 7f00 	cmp.w	r2, #512	; 0x200
    4428:	d818      	bhi.n	445c <DMA_Send+0x3c>
    442a:	e92d 41f0 	stmdb	sp!, {r4, r5, r6, r7, r8, lr}
    442e:	4c23      	ldr	r4, [pc, #140]	; (44bc <DMA_Send+0x9c>)
    4430:	f04f 4500 	mov.w	r5, #2147483648	; 0x80000000
    4434:	b084      	sub	sp, #16
    4436:	f8c4 5080 	str.w	r5, [r4, #128]	; 0x80
    443a:	f3bf 8f4f 	dsb	sy
    443e:	f3bf 8f6f 	isb	sy
    4442:	f8df e088 	ldr.w	lr, [pc, #136]	; 44cc <DMA_Send+0xac>
    4446:	f85e 7020 	ldr.w	r7, [lr, r0, lsl #2]
    444a:	b14f      	cbz	r7, 4460 <DMA_Send+0x40>
    444c:	2000      	movs	r0, #0
    444e:	4b1b      	ldr	r3, [pc, #108]	; (44bc <DMA_Send+0x9c>)
    4450:	f04f 4200 	mov.w	r2, #2147483648	; 0x80000000
    4454:	601a      	str	r2, [r3, #0]
    4456:	b004      	add	sp, #16
    4458:	e8bd 81f0 	ldmia.w	sp!, {r4, r5, r6, r7, r8, pc}
    445c:	2000      	movs	r0, #0
    445e:	4770      	bx	lr
    4460:	4b17      	ldr	r3, [pc, #92]	; (44c0 <DMA_Send+0xa0>)
    4462:	f8df 806c 	ldr.w	r8, [pc, #108]	; 44d0 <DMA_Send+0xb0>
    4466:	4604      	mov	r4, r0
    4468:	eb03 2340 	add.w	r3, r3, r0, lsl #9
    446c:	4618      	mov	r0, r3
    446e:	2601      	movs	r6, #1
    4470:	4615      	mov	r5, r2
    4472:	f84e 6024 	str.w	r6, [lr, r4, lsl #2]
    4476:	47c0      	blx	r8
    4478:	f240 4101 	movw	r1, #1025	; 0x401
    447c:	4a11      	ldr	r2, [pc, #68]	; (44c4 <DMA_Send+0xa4>)
    447e:	f8ad 1000 	strh.w	r1, [sp]
    4482:	4603      	mov	r3, r0
    4484:	f8ad 5002 	strh.w	r5, [sp, #2]
    4488:	f852 2024 	ldr.w	r2, [r2, r4, lsl #2]
    448c:	9202      	str	r2, [sp, #8]
    448e:	442b      	add	r3, r5
    4490:	9703      	str	r7, [sp, #12]
    4492:	9301      	str	r3, [sp, #4]
    4494:	ab04      	add	r3, sp, #16
    4496:	e913 000f 	ldmdb	r3, {r0, r1, r2, r3}
    449a:	4d0b      	ldr	r5, [pc, #44]	; (44c8 <DMA_Send+0xa8>)
    449c:	eb05 1504 	add.w	r5, r5, r4, lsl #4
    44a0:	e885 000f 	stmia.w	r5, {r0, r1, r2, r3}
    44a4:	0124      	lsls	r4, r4, #4
    44a6:	f104 4482 	add.w	r4, r4, #1090519040	; 0x41000000
    44aa:	f504 4420 	add.w	r4, r4, #40960	; 0xa000
    44ae:	4630      	mov	r0, r6
    44b0:	6c23      	ldr	r3, [r4, #64]	; 0x40
    44b2:	f043 0302 	orr.w	r3, r3, #2
    44b6:	6423      	str	r3, [r4, #64]	; 0x40
    44b8:	e7c9      	b.n	444e <DMA_Send+0x2e>
    44ba:	bf00      	nop
    44bc:	e000e100 	.word	0xe000e100
    44c0:	2000dd70 	.word	0x2000dd70
    44c4:	2000e570 	.word	0x2000e570
    44c8:	2000daf0 	.word	0x2000daf0
    44cc:	2000dcf0 	.word	0x2000dcf0
    44d0:	00010a69 	.word	0x00010a69

000044d4 <Mcp4728_Init>:
    44d4:	b5f8      	push	{r3, r4, r5, r6, r7, lr}
    44d6:	4b2b      	ldr	r3, [pc, #172]	; (4584 <Mcp4728_Init+0xb0>)
    44d8:	4f2b      	ldr	r7, [pc, #172]	; (4588 <Mcp4728_Init+0xb4>)
    44da:	4e2c      	ldr	r6, [pc, #176]	; (458c <Mcp4728_Init+0xb8>)
    44dc:	4c2c      	ldr	r4, [pc, #176]	; (4590 <Mcp4728_Init+0xbc>)
    44de:	4798      	blx	r3
    44e0:	4b2c      	ldr	r3, [pc, #176]	; (4594 <Mcp4728_Init+0xc0>)
    44e2:	482d      	ldr	r0, [pc, #180]	; (4598 <Mcp4728_Init+0xc4>)
    44e4:	4a2d      	ldr	r2, [pc, #180]	; (459c <Mcp4728_Init+0xc8>)
    44e6:	2504      	movs	r5, #4
    44e8:	f04f 4140 	mov.w	r1, #3221225472	; 0xc0000000
    44ec:	609d      	str	r5, [r3, #8]
    44ee:	6298      	str	r0, [r3, #40]	; 0x28
    44f0:	6299      	str	r1, [r3, #40]	; 0x28
    44f2:	f893 1042 	ldrb.w	r1, [r3, #66]	; 0x42
    44f6:	f001 01fb 	and.w	r1, r1, #251	; 0xfb
    44fa:	f883 1042 	strb.w	r1, [r3, #66]	; 0x42
    44fe:	f893 0042 	ldrb.w	r0, [r3, #66]	; 0x42
    4502:	2120      	movs	r1, #32
    4504:	f000 00fe 	and.w	r0, r0, #254	; 0xfe
    4508:	f883 0042 	strb.w	r0, [r3, #66]	; 0x42
    450c:	f8c3 5114 	str.w	r5, [r3, #276]	; 0x114
    4510:	6059      	str	r1, [r3, #4]
    4512:	629f      	str	r7, [r3, #40]	; 0x28
    4514:	629e      	str	r6, [r3, #40]	; 0x28
    4516:	6059      	str	r1, [r3, #4]
    4518:	f893 0045 	ldrb.w	r0, [r3, #69]	; 0x45
    451c:	4328      	orrs	r0, r5
    451e:	f883 0045 	strb.w	r0, [r3, #69]	; 0x45
    4522:	6199      	str	r1, [r3, #24]
    4524:	f893 1045 	ldrb.w	r1, [r3, #69]	; 0x45
    4528:	f001 01fe 	and.w	r1, r1, #254	; 0xfe
    452c:	f883 1045 	strb.w	r1, [r3, #69]	; 0x45
    4530:	4625      	mov	r5, r4
    4532:	2340      	movs	r3, #64	; 0x40
    4534:	f835 0b02 	ldrh.w	r0, [r5], #2
    4538:	7013      	strb	r3, [r2, #0]
    453a:	3302      	adds	r3, #2
    453c:	f3c0 2103 	ubfx	r1, r0, #8, #4
    4540:	b2db      	uxtb	r3, r3
    4542:	f061 017f 	orn	r1, r1, #127	; 0x7f
    4546:	2b48      	cmp	r3, #72	; 0x48
    4548:	7090      	strb	r0, [r2, #2]
    454a:	7051      	strb	r1, [r2, #1]
    454c:	f102 0203 	add.w	r2, r2, #3
    4550:	d1f0      	bne.n	4534 <Mcp4728_Init+0x60>
    4552:	220c      	movs	r2, #12
    4554:	4911      	ldr	r1, [pc, #68]	; (459c <Mcp4728_Init+0xc8>)
    4556:	4b12      	ldr	r3, [pc, #72]	; (45a0 <Mcp4728_Init+0xcc>)
    4558:	2060      	movs	r0, #96	; 0x60
    455a:	4798      	blx	r3
    455c:	2800      	cmp	r0, #0
    455e:	db09      	blt.n	4574 <Mcp4728_Init+0xa0>
    4560:	2501      	movs	r5, #1
    4562:	2002      	movs	r0, #2
    4564:	4b0f      	ldr	r3, [pc, #60]	; (45a4 <Mcp4728_Init+0xd0>)
    4566:	7225      	strb	r5, [r4, #8]
    4568:	4798      	blx	r3
    456a:	4b0f      	ldr	r3, [pc, #60]	; (45a8 <Mcp4728_Init+0xd4>)
    456c:	2200      	movs	r2, #0
    456e:	701a      	strb	r2, [r3, #0]
    4570:	4628      	mov	r0, r5
    4572:	bdf8      	pop	{r3, r4, r5, r6, r7, pc}
    4574:	4a0c      	ldr	r2, [pc, #48]	; (45a8 <Mcp4728_Init+0xd4>)
    4576:	4b0d      	ldr	r3, [pc, #52]	; (45ac <Mcp4728_Init+0xd8>)
    4578:	2103      	movs	r1, #3
    457a:	2002      	movs	r0, #2
    457c:	7011      	strb	r1, [r2, #0]
    457e:	4798      	blx	r3
    4580:	2000      	movs	r0, #0
    4582:	bdf8      	pop	{r3, r4, r5, r6, r7, pc}
    4584:	00005a75 	.word	0x00005a75
    4588:	40020020 	.word	0x40020020
    458c:	c0020000 	.word	0xc0020000
    4590:	20002b34 	.word	0x20002b34
    4594:	41008000 	.word	0x41008000
    4598:	40000004 	.word	0x40000004
    459c:	2000e5f0 	.word	0x2000e5f0
    45a0:	00005b69 	.word	0x00005b69
    45a4:	0000d0b5 	.word	0x0000d0b5
    45a8:	2000e601 	.word	0x2000e601
    45ac:	0000d0a5 	.word	0x0000d0a5

000045b0 <Mcp4728_InitReady>:
    45b0:	4b01      	ldr	r3, [pc, #4]	; (45b8 <Mcp4728_InitReady+0x8>)
    45b2:	7a18      	ldrb	r0, [r3, #8]
    45b4:	4770      	bx	lr
    45b6:	bf00      	nop
    45b8:	20002b34 	.word	0x20002b34

000045bc <Mcp4728_WriteDacs>:
    45bc:	4b18      	ldr	r3, [pc, #96]	; (4620 <Mcp4728_WriteDacs+0x64>)
    45be:	7a1a      	ldrb	r2, [r3, #8]
    45c0:	b510      	push	{r4, lr}
    45c2:	b352      	cbz	r2, 461a <Mcp4728_WriteDacs+0x5e>
    45c4:	4604      	mov	r4, r0
    45c6:	6800      	ldr	r0, [r0, #0]
    45c8:	6861      	ldr	r1, [r4, #4]
    45ca:	4a16      	ldr	r2, [pc, #88]	; (4624 <Mcp4728_WriteDacs+0x68>)
    45cc:	c303      	stmia	r3!, {r0, r1}
    45ce:	1ea3      	subs	r3, r4, #2
    45d0:	3406      	adds	r4, #6
    45d2:	8859      	ldrh	r1, [r3, #2]
    45d4:	f3c1 2103 	ubfx	r1, r1, #8, #4
    45d8:	7011      	strb	r1, [r2, #0]
    45da:	f833 1f02 	ldrh.w	r1, [r3, #2]!
    45de:	7051      	strb	r1, [r2, #1]
    45e0:	42a3      	cmp	r3, r4
    45e2:	f102 0202 	add.w	r2, r2, #2
    45e6:	d1f4      	bne.n	45d2 <Mcp4728_WriteDacs+0x16>
    45e8:	4a0f      	ldr	r2, [pc, #60]	; (4628 <Mcp4728_WriteDacs+0x6c>)
    45ea:	490e      	ldr	r1, [pc, #56]	; (4624 <Mcp4728_WriteDacs+0x68>)
    45ec:	4b0f      	ldr	r3, [pc, #60]	; (462c <Mcp4728_WriteDacs+0x70>)
    45ee:	2004      	movs	r0, #4
    45f0:	f8c2 0114 	str.w	r0, [r2, #276]	; 0x114
    45f4:	2208      	movs	r2, #8
    45f6:	2060      	movs	r0, #96	; 0x60
    45f8:	4798      	blx	r3
    45fa:	4604      	mov	r4, r0
    45fc:	b130      	cbz	r0, 460c <Mcp4728_WriteDacs+0x50>
    45fe:	4a0c      	ldr	r2, [pc, #48]	; (4630 <Mcp4728_WriteDacs+0x74>)
    4600:	7813      	ldrb	r3, [r2, #0]
    4602:	3301      	adds	r3, #1
    4604:	b2db      	uxtb	r3, r3
    4606:	2b02      	cmp	r3, #2
    4608:	7013      	strb	r3, [r2, #0]
    460a:	d801      	bhi.n	4610 <Mcp4728_WriteDacs+0x54>
    460c:	4620      	mov	r0, r4
    460e:	bd10      	pop	{r4, pc}
    4610:	2002      	movs	r0, #2
    4612:	4b08      	ldr	r3, [pc, #32]	; (4634 <Mcp4728_WriteDacs+0x78>)
    4614:	4798      	blx	r3
    4616:	4620      	mov	r0, r4
    4618:	bd10      	pop	{r4, pc}
    461a:	f06f 0463 	mvn.w	r4, #99	; 0x63
    461e:	e7f5      	b.n	460c <Mcp4728_WriteDacs+0x50>
    4620:	20002b34 	.word	0x20002b34
    4624:	2000e5f0 	.word	0x2000e5f0
    4628:	41008000 	.word	0x41008000
    462c:	00005b69 	.word	0x00005b69
    4630:	2000e601 	.word	0x2000e601
    4634:	0000d0a5 	.word	0x0000d0a5

00004638 <Izi_OutputSet>:
    4638:	29ff      	cmp	r1, #255	; 0xff
    463a:	dc01      	bgt.n	4640 <Izi_OutputSet+0x8>
    463c:	2801      	cmp	r0, #1
    463e:	d901      	bls.n	4644 <Izi_OutputSet+0xc>
    4640:	2000      	movs	r0, #0
    4642:	4770      	bx	lr
    4644:	b410      	push	{r4}
    4646:	4c0a      	ldr	r4, [pc, #40]	; (4670 <Izi_OutputSet+0x38>)
    4648:	0203      	lsls	r3, r0, #8
    464a:	18e0      	adds	r0, r4, r3
    464c:	4423      	add	r3, r4
    464e:	5c40      	ldrb	r0, [r0, r1]
    4650:	4c08      	ldr	r4, [pc, #32]	; (4674 <Izi_OutputSet+0x3c>)
    4652:	545a      	strb	r2, [r3, r1]
    4654:	4290      	cmp	r0, r2
    4656:	4808      	ldr	r0, [pc, #32]	; (4678 <Izi_OutputSet+0x40>)
    4658:	bf18      	it	ne
    465a:	5442      	strbne	r2, [r0, r1]
    465c:	f04f 0301 	mov.w	r3, #1
    4660:	bf08      	it	eq
    4662:	5c40      	ldrbeq	r0, [r0, r1]
    4664:	7023      	strb	r3, [r4, #0]
    4666:	bf18      	it	ne
    4668:	4610      	movne	r0, r2
    466a:	f85d 4b04 	ldr.w	r4, [sp], #4
    466e:	4770      	bx	lr
    4670:	2000e704 	.word	0x2000e704
    4674:	20002b40 	.word	0x20002b40
    4678:	2000e604 	.word	0x2000e604

0000467c <Izi_OutputSetAll>:
    467c:	29ff      	cmp	r1, #255	; 0xff
    467e:	dc16      	bgt.n	46ae <Izi_OutputSetAll+0x32>
    4680:	b470      	push	{r4, r5, r6}
    4682:	4b0f      	ldr	r3, [pc, #60]	; (46c0 <Izi_OutputSetAll+0x44>)
    4684:	4c0f      	ldr	r4, [pc, #60]	; (46c4 <Izi_OutputSetAll+0x48>)
    4686:	5c58      	ldrb	r0, [r3, r1]
    4688:	4290      	cmp	r0, r2
    468a:	d000      	beq.n	468e <Izi_OutputSetAll+0x12>
    468c:	5462      	strb	r2, [r4, r1]
    468e:	545a      	strb	r2, [r3, r1]
    4690:	1858      	adds	r0, r3, r1
    4692:	4d0d      	ldr	r5, [pc, #52]	; (46c8 <Izi_OutputSetAll+0x4c>)
    4694:	f890 0100 	ldrb.w	r0, [r0, #256]	; 0x100
    4698:	2601      	movs	r6, #1
    469a:	4290      	cmp	r0, r2
    469c:	702e      	strb	r6, [r5, #0]
    469e:	d008      	beq.n	46b2 <Izi_OutputSetAll+0x36>
    46a0:	5462      	strb	r2, [r4, r1]
    46a2:	4419      	add	r1, r3
    46a4:	4610      	mov	r0, r2
    46a6:	f881 2100 	strb.w	r2, [r1, #256]	; 0x100
    46aa:	bc70      	pop	{r4, r5, r6}
    46ac:	4770      	bx	lr
    46ae:	2000      	movs	r0, #0
    46b0:	4770      	bx	lr
    46b2:	5c60      	ldrb	r0, [r4, r1]
    46b4:	4419      	add	r1, r3
    46b6:	f881 2100 	strb.w	r2, [r1, #256]	; 0x100
    46ba:	bc70      	pop	{r4, r5, r6}
    46bc:	4770      	bx	lr
    46be:	bf00      	nop
    46c0:	2000e704 	.word	0x2000e704
    46c4:	2000e604 	.word	0x2000e604
    46c8:	20002b40 	.word	0x20002b40

000046cc <Izi_OutputSetBuffer>:
    46cc:	b5f0      	push	{r4, r5, r6, r7, lr}
    46ce:	b303      	cbz	r3, 4712 <Izi_OutputSetBuffer+0x46>
    46d0:	4e11      	ldr	r6, [pc, #68]	; (4718 <Izi_OutputSetBuffer+0x4c>)
    46d2:	4d12      	ldr	r5, [pc, #72]	; (471c <Izi_OutputSetBuffer+0x50>)
    46d4:	f8df e048 	ldr.w	lr, [pc, #72]	; 4720 <Izi_OutputSetBuffer+0x54>
    46d8:	eb01 2400 	add.w	r4, r1, r0, lsl #8
    46dc:	440b      	add	r3, r1
    46de:	4434      	add	r4, r6
    46e0:	2701      	movs	r7, #1
    46e2:	29ff      	cmp	r1, #255	; 0xff
    46e4:	dc01      	bgt.n	46ea <Izi_OutputSetBuffer+0x1e>
    46e6:	2801      	cmp	r0, #1
    46e8:	d909      	bls.n	46fe <Izi_OutputSetBuffer+0x32>
    46ea:	3101      	adds	r1, #1
    46ec:	4299      	cmp	r1, r3
    46ee:	f104 0401 	add.w	r4, r4, #1
    46f2:	f102 0201 	add.w	r2, r2, #1
    46f6:	d1f4      	bne.n	46e2 <Izi_OutputSetBuffer+0x16>
    46f8:	2301      	movs	r3, #1
    46fa:	702b      	strb	r3, [r5, #0]
    46fc:	bdf0      	pop	{r4, r5, r6, r7, pc}
    46fe:	7816      	ldrb	r6, [r2, #0]
    4700:	f894 c000 	ldrb.w	ip, [r4]
    4704:	702f      	strb	r7, [r5, #0]
    4706:	45b4      	cmp	ip, r6
    4708:	bf18      	it	ne
    470a:	f801 600e 	strbne.w	r6, [r1, lr]
    470e:	7026      	strb	r6, [r4, #0]
    4710:	e7eb      	b.n	46ea <Izi_OutputSetBuffer+0x1e>
    4712:	4d02      	ldr	r5, [pc, #8]	; (471c <Izi_OutputSetBuffer+0x50>)
    4714:	e7f0      	b.n	46f8 <Izi_OutputSetBuffer+0x2c>
    4716:	bf00      	nop
    4718:	2000e704 	.word	0x2000e704
    471c:	20002b40 	.word	0x20002b40
    4720:	2000e604 	.word	0x2000e604

00004724 <Izi_OutputGet>:
    4724:	28ff      	cmp	r0, #255	; 0xff
    4726:	bfda      	itte	le
    4728:	4b01      	ldrle	r3, [pc, #4]	; (4730 <Izi_OutputGet+0xc>)
    472a:	5c18      	ldrble	r0, [r3, r0]
    472c:	2000      	movgt	r0, #0
    472e:	4770      	bx	lr
    4730:	2000e604 	.word	0x2000e604

00004734 <iziplus_data_Dcbm1Rx>:
    4734:	b538      	push	{r3, r4, r5, lr}
    4736:	4c67      	ldr	r4, [pc, #412]	; (48d4 <iziplus_data_Dcbm1Rx+0x1a0>)
    4738:	7823      	ldrb	r3, [r4, #0]
    473a:	b913      	cbnz	r3, 4742 <iziplus_data_Dcbm1Rx+0xe>
    473c:	28ab      	cmp	r0, #171	; 0xab
    473e:	f000 8097 	beq.w	4870 <iziplus_data_Dcbm1Rx+0x13c>
    4742:	7823      	ldrb	r3, [r4, #0]
    4744:	b12b      	cbz	r3, 4752 <iziplus_data_Dcbm1Rx+0x1e>
    4746:	28ba      	cmp	r0, #186	; 0xba
    4748:	f04f 0300 	mov.w	r3, #0
    474c:	f000 808a 	beq.w	4864 <iziplus_data_Dcbm1Rx+0x130>
    4750:	7023      	strb	r3, [r4, #0]
    4752:	7923      	ldrb	r3, [r4, #4]
    4754:	2b00      	cmp	r3, #0
    4756:	d07b      	beq.n	4850 <iziplus_data_Dcbm1Rx+0x11c>
    4758:	8863      	ldrh	r3, [r4, #2]
    475a:	b29b      	uxth	r3, r3
    475c:	f5b3 7f03 	cmp.w	r3, #524	; 0x20c
    4760:	d276      	bcs.n	4850 <iziplus_data_Dcbm1Rx+0x11c>
    4762:	79a3      	ldrb	r3, [r4, #6]
    4764:	7962      	ldrb	r2, [r4, #5]
    4766:	495c      	ldr	r1, [pc, #368]	; (48d8 <iziplus_data_Dcbm1Rx+0x1a4>)
    4768:	f44f 7503 	mov.w	r5, #524	; 0x20c
    476c:	2a02      	cmp	r2, #2
    476e:	fb05 1303 	mla	r3, r5, r3, r1
    4772:	f000 8089 	beq.w	4888 <iziplus_data_Dcbm1Rx+0x154>
    4776:	7962      	ldrb	r2, [r4, #5]
    4778:	2a01      	cmp	r2, #1
    477a:	f000 80a4 	beq.w	48c6 <iziplus_data_Dcbm1Rx+0x192>
    477e:	7962      	ldrb	r2, [r4, #5]
    4780:	2a00      	cmp	r2, #0
    4782:	d07c      	beq.n	487e <iziplus_data_Dcbm1Rx+0x14a>
    4784:	2200      	movs	r2, #0
    4786:	7162      	strb	r2, [r4, #5]
    4788:	8862      	ldrh	r2, [r4, #2]
    478a:	b292      	uxth	r2, r2
    478c:	1c51      	adds	r1, r2, #1
    478e:	b289      	uxth	r1, r1
    4790:	8061      	strh	r1, [r4, #2]
    4792:	8861      	ldrh	r1, [r4, #2]
    4794:	5498      	strb	r0, [r3, r2]
    4796:	b28b      	uxth	r3, r1
    4798:	2b0e      	cmp	r3, #14
    479a:	f000 8085 	beq.w	48a8 <iziplus_data_Dcbm1Rx+0x174>
    479e:	8863      	ldrh	r3, [r4, #2]
    47a0:	b29b      	uxth	r3, r3
    47a2:	2b0d      	cmp	r3, #13
    47a4:	d95d      	bls.n	4862 <iziplus_data_Dcbm1Rx+0x12e>
    47a6:	79a2      	ldrb	r2, [r4, #6]
    47a8:	8863      	ldrh	r3, [r4, #2]
    47aa:	f44f 7103 	mov.w	r1, #524	; 0x20c
    47ae:	fb01 4202 	mla	r2, r1, r2, r4
    47b2:	b29b      	uxth	r3, r3
    47b4:	8a52      	ldrh	r2, [r2, #18]
    47b6:	3b0d      	subs	r3, #13
    47b8:	f3c2 020b 	ubfx	r2, r2, #0, #12
    47bc:	4293      	cmp	r3, r2
    47be:	dd50      	ble.n	4862 <iziplus_data_Dcbm1Rx+0x12e>
    47c0:	2300      	movs	r3, #0
    47c2:	7023      	strb	r3, [r4, #0]
    47c4:	8063      	strh	r3, [r4, #2]
    47c6:	7123      	strb	r3, [r4, #4]
    47c8:	79a3      	ldrb	r3, [r4, #6]
    47ca:	eb04 0383 	add.w	r3, r4, r3, lsl #2
    47ce:	f8d3 3838 	ldr.w	r3, [r3, #2104]	; 0x838
    47d2:	b123      	cbz	r3, 47de <iziplus_data_Dcbm1Rx+0xaa>
    47d4:	f894 3848 	ldrb.w	r3, [r4, #2120]	; 0x848
    47d8:	3301      	adds	r3, #1
    47da:	f884 3848 	strb.w	r3, [r4, #2120]	; 0x848
    47de:	f8b4 384a 	ldrh.w	r3, [r4, #2122]	; 0x84a
    47e2:	b29b      	uxth	r3, r3
    47e4:	b143      	cbz	r3, 47f8 <iziplus_data_Dcbm1Rx+0xc4>
    47e6:	f8b4 384c 	ldrh.w	r3, [r4, #2124]	; 0x84c
    47ea:	3301      	adds	r3, #1
    47ec:	b29b      	uxth	r3, r3
    47ee:	2200      	movs	r2, #0
    47f0:	f8a4 384c 	strh.w	r3, [r4, #2124]	; 0x84c
    47f4:	f8a4 284a 	strh.w	r2, [r4, #2122]	; 0x84a
    47f8:	79a5      	ldrb	r5, [r4, #6]
    47fa:	4b38      	ldr	r3, [pc, #224]	; (48dc <iziplus_data_Dcbm1Rx+0x1a8>)
    47fc:	4798      	blx	r3
    47fe:	b2ed      	uxtb	r5, r5
    4800:	79a3      	ldrb	r3, [r4, #6]
    4802:	eb04 0585 	add.w	r5, r4, r5, lsl #2
    4806:	eb04 0383 	add.w	r3, r4, r3, lsl #2
    480a:	f8c5 0838 	str.w	r0, [r5, #2104]	; 0x838
    480e:	f8d3 3838 	ldr.w	r3, [r3, #2104]	; 0x838
    4812:	b93b      	cbnz	r3, 4824 <iziplus_data_Dcbm1Rx+0xf0>
    4814:	79a3      	ldrb	r3, [r4, #6]
    4816:	eb04 0383 	add.w	r3, r4, r3, lsl #2
    481a:	f8d3 2838 	ldr.w	r2, [r3, #2104]	; 0x838
    481e:	3201      	adds	r2, #1
    4820:	f8c3 2838 	str.w	r2, [r3, #2104]	; 0x838
    4824:	79a3      	ldrb	r3, [r4, #6]
    4826:	f8d4 0850 	ldr.w	r0, [r4, #2128]	; 0x850
    482a:	3301      	adds	r3, #1
    482c:	b2db      	uxtb	r3, r3
    482e:	2b03      	cmp	r3, #3
    4830:	71a3      	strb	r3, [r4, #6]
    4832:	bf84      	itt	hi
    4834:	2300      	movhi	r3, #0
    4836:	71a3      	strbhi	r3, [r4, #6]
    4838:	2100      	movs	r1, #0
    483a:	4b29      	ldr	r3, [pc, #164]	; (48e0 <iziplus_data_Dcbm1Rx+0x1ac>)
    483c:	4798      	blx	r3
    483e:	4b29      	ldr	r3, [pc, #164]	; (48e4 <iziplus_data_Dcbm1Rx+0x1b0>)
    4840:	f04f 5280 	mov.w	r2, #268435456	; 0x10000000
    4844:	601a      	str	r2, [r3, #0]
    4846:	f3bf 8f4f 	dsb	sy
    484a:	f3bf 8f6f 	isb	sy
    484e:	bd38      	pop	{r3, r4, r5, pc}
    4850:	7823      	ldrb	r3, [r4, #0]
    4852:	b933      	cbnz	r3, 4862 <iziplus_data_Dcbm1Rx+0x12e>
    4854:	f8b4 384a 	ldrh.w	r3, [r4, #2122]	; 0x84a
    4858:	3301      	adds	r3, #1
    485a:	b29b      	uxth	r3, r3
    485c:	f8a4 384a 	strh.w	r3, [r4, #2122]	; 0x84a
    4860:	bd38      	pop	{r3, r4, r5, pc}
    4862:	bd38      	pop	{r3, r4, r5, pc}
    4864:	2201      	movs	r2, #1
    4866:	8063      	strh	r3, [r4, #2]
    4868:	7023      	strb	r3, [r4, #0]
    486a:	7122      	strb	r2, [r4, #4]
    486c:	7163      	strb	r3, [r4, #5]
    486e:	bd38      	pop	{r3, r4, r5, pc}
    4870:	2301      	movs	r3, #1
    4872:	7023      	strb	r3, [r4, #0]
    4874:	7923      	ldrb	r3, [r4, #4]
    4876:	2b00      	cmp	r3, #0
    4878:	f47f af6e 	bne.w	4758 <iziplus_data_Dcbm1Rx+0x24>
    487c:	e7e8      	b.n	4850 <iziplus_data_Dcbm1Rx+0x11c>
    487e:	28ac      	cmp	r0, #172	; 0xac
    4880:	d180      	bne.n	4784 <iziplus_data_Dcbm1Rx+0x50>
    4882:	2201      	movs	r2, #1
    4884:	7162      	strb	r2, [r4, #5]
    4886:	e77f      	b.n	4788 <iziplus_data_Dcbm1Rx+0x54>
    4888:	b958      	cbnz	r0, 48a2 <iziplus_data_Dcbm1Rx+0x16e>
    488a:	8861      	ldrh	r1, [r4, #2]
    488c:	8862      	ldrh	r2, [r4, #2]
    488e:	fa13 f181 	uxtah	r1, r3, r1
    4892:	fa13 f382 	uxtah	r3, r3, r2
    4896:	20ba      	movs	r0, #186	; 0xba
    4898:	22ab      	movs	r2, #171	; 0xab
    489a:	f801 0c01 	strb.w	r0, [r1, #-1]
    489e:	f803 2c02 	strb.w	r2, [r3, #-2]
    48a2:	2300      	movs	r3, #0
    48a4:	7163      	strb	r3, [r4, #5]
    48a6:	bd38      	pop	{r3, r4, r5, pc}
    48a8:	79a3      	ldrb	r3, [r4, #6]
    48aa:	f44f 7203 	mov.w	r2, #524	; 0x20c
    48ae:	fb02 4303 	mla	r3, r2, r3, r4
    48b2:	8a5b      	ldrh	r3, [r3, #18]
    48b4:	f3c3 030b 	ubfx	r3, r3, #0, #12
    48b8:	f5b3 7f00 	cmp.w	r3, #512	; 0x200
    48bc:	f67f af6f 	bls.w	479e <iziplus_data_Dcbm1Rx+0x6a>
    48c0:	2300      	movs	r3, #0
    48c2:	7123      	strb	r3, [r4, #4]
    48c4:	bd38      	pop	{r3, r4, r5, pc}
    48c6:	28dc      	cmp	r0, #220	; 0xdc
    48c8:	f47f af59 	bne.w	477e <iziplus_data_Dcbm1Rx+0x4a>
    48cc:	2202      	movs	r2, #2
    48ce:	7162      	strb	r2, [r4, #5]
    48d0:	e75a      	b.n	4788 <iziplus_data_Dcbm1Rx+0x54>
    48d2:	bf00      	nop
    48d4:	20002b48 	.word	0x20002b48
    48d8:	20002b50 	.word	0x20002b50
    48dc:	0000ecf1 	.word	0x0000ecf1
    48e0:	0000e4d5 	.word	0x0000e4d5
    48e4:	e000ed04 	.word	0xe000ed04

000048e8 <iziplus_dataframe_sendrsp.part.1>:
    48e8:	e92d 43f0 	stmdb	sp!, {r4, r5, r6, r7, r8, r9, lr}
    48ec:	f5ad 7d05 	sub.w	sp, sp, #532	; 0x214
    48f0:	461c      	mov	r4, r3
    48f2:	f8bd 300e 	ldrh.w	r3, [sp, #14]
    48f6:	4e38      	ldr	r6, [pc, #224]	; (49d8 <iziplus_dataframe_sendrsp.part.1+0xf0>)
    48f8:	9001      	str	r0, [sp, #4]
    48fa:	f364 030b 	bfi	r3, r4, #0, #12
    48fe:	0a1d      	lsrs	r5, r3, #8
    4900:	2001      	movs	r0, #1
    4902:	6837      	ldr	r7, [r6, #0]
    4904:	9702      	str	r7, [sp, #8]
    4906:	f360 1507 	bfi	r5, r0, #4, #4
    490a:	f8ad 300e 	strh.w	r3, [sp, #14]
    490e:	f8ad 100c 	strh.w	r1, [sp, #12]
    4912:	f88d 500f 	strb.w	r5, [sp, #15]
    4916:	4611      	mov	r1, r2
    4918:	a804      	add	r0, sp, #16
    491a:	4622      	mov	r2, r4
    491c:	4f2f      	ldr	r7, [pc, #188]	; (49dc <iziplus_dataframe_sendrsp.part.1+0xf4>)
    491e:	9d8c      	ldr	r5, [sp, #560]	; 0x230
    4920:	47b8      	blx	r7
    4922:	f104 010c 	add.w	r1, r4, #12
    4926:	b289      	uxth	r1, r1
    4928:	2200      	movs	r2, #0
    492a:	4b2d      	ldr	r3, [pc, #180]	; (49e0 <iziplus_dataframe_sendrsp.part.1+0xf8>)
    492c:	a801      	add	r0, sp, #4
    492e:	4798      	blx	r3
    4930:	f104 0610 	add.w	r6, r4, #16
    4934:	ab01      	add	r3, sp, #4
    4936:	43c0      	mvns	r0, r0
    4938:	441c      	add	r4, r3
    493a:	b280      	uxth	r0, r0
    493c:	b2b6      	uxth	r6, r6
    493e:	0a01      	lsrs	r1, r0, #8
    4940:	22ab      	movs	r2, #171	; 0xab
    4942:	23ba      	movs	r3, #186	; 0xba
    4944:	2e02      	cmp	r6, #2
    4946:	7360      	strb	r0, [r4, #13]
    4948:	7321      	strb	r1, [r4, #12]
    494a:	702a      	strb	r2, [r5, #0]
    494c:	706b      	strb	r3, [r5, #1]
    494e:	dd40      	ble.n	49d2 <iziplus_dataframe_sendrsp.part.1+0xea>
    4950:	f04f 0900 	mov.w	r9, #0
    4954:	ac01      	add	r4, sp, #4
    4956:	3e02      	subs	r6, #2
    4958:	4426      	add	r6, r4
    495a:	4649      	mov	r1, r9
    495c:	46c8      	mov	r8, r9
    495e:	2002      	movs	r0, #2
    4960:	f04f 0cac 	mov.w	ip, #172	; 0xac
    4964:	f04f 0edc 	mov.w	lr, #220	; 0xdc
    4968:	2710      	movs	r7, #16
    496a:	e012      	b.n	4992 <iziplus_dataframe_sendrsp.part.1+0xaa>
    496c:	f1a3 01ac 	sub.w	r1, r3, #172	; 0xac
    4970:	fab1 f181 	clz	r1, r1
    4974:	0949      	lsrs	r1, r1, #5
    4976:	f1b9 0f00 	cmp.w	r9, #0
    497a:	d001      	beq.n	4980 <iziplus_dataframe_sendrsp.part.1+0x98>
    497c:	2bba      	cmp	r3, #186	; 0xba
    497e:	d016      	beq.n	49ae <iziplus_dataframe_sendrsp.part.1+0xc6>
    4980:	f1a3 09ab 	sub.w	r9, r3, #171	; 0xab
    4984:	fab9 f989 	clz	r9, r9
    4988:	42a6      	cmp	r6, r4
    498a:	ea4f 1959 	mov.w	r9, r9, lsr #5
    498e:	4610      	mov	r0, r2
    4990:	d01b      	beq.n	49ca <iziplus_dataframe_sendrsp.part.1+0xe2>
    4992:	f814 3b01 	ldrb.w	r3, [r4], #1
    4996:	542b      	strb	r3, [r5, r0]
    4998:	1c42      	adds	r2, r0, #1
    499a:	b292      	uxth	r2, r2
    499c:	2900      	cmp	r1, #0
    499e:	d0e5      	beq.n	496c <iziplus_dataframe_sendrsp.part.1+0x84>
    49a0:	2bdc      	cmp	r3, #220	; 0xdc
    49a2:	d1e3      	bne.n	496c <iziplus_dataframe_sendrsp.part.1+0x84>
    49a4:	3002      	adds	r0, #2
    49a6:	54af      	strb	r7, [r5, r2]
    49a8:	2100      	movs	r1, #0
    49aa:	b282      	uxth	r2, r0
    49ac:	e7e8      	b.n	4980 <iziplus_dataframe_sendrsp.part.1+0x98>
    49ae:	18ab      	adds	r3, r5, r2
    49b0:	3002      	adds	r0, #2
    49b2:	f04f 0900 	mov.w	r9, #0
    49b6:	42a6      	cmp	r6, r4
    49b8:	f803 cc02 	strb.w	ip, [r3, #-2]
    49bc:	f803 ec01 	strb.w	lr, [r3, #-1]
    49c0:	b280      	uxth	r0, r0
    49c2:	f805 8002 	strb.w	r8, [r5, r2]
    49c6:	4649      	mov	r1, r9
    49c8:	d1e3      	bne.n	4992 <iziplus_dataframe_sendrsp.part.1+0xaa>
    49ca:	f50d 7d05 	add.w	sp, sp, #532	; 0x214
    49ce:	e8bd 83f0 	ldmia.w	sp!, {r4, r5, r6, r7, r8, r9, pc}
    49d2:	2002      	movs	r0, #2
    49d4:	e7f9      	b.n	49ca <iziplus_dataframe_sendrsp.part.1+0xe2>
    49d6:	bf00      	nop
    49d8:	00804020 	.word	0x00804020
    49dc:	00010a69 	.word	0x00010a69
    49e0:	0000fd81 	.word	0x0000fd81

000049e4 <iziplus_dataframe_init>:
    49e4:	b510      	push	{r4, lr}
    49e6:	4c11      	ldr	r4, [pc, #68]	; (4a2c <iziplus_dataframe_init+0x48>)
    49e8:	f8d4 1850 	ldr.w	r1, [r4, #2128]	; 0x850
    49ec:	f8a4 0854 	strh.w	r0, [r4, #2132]	; 0x854
    49f0:	b082      	sub	sp, #8
    49f2:	b139      	cbz	r1, 4a04 <iziplus_dataframe_init+0x20>
    49f4:	4b0e      	ldr	r3, [pc, #56]	; (4a30 <iziplus_dataframe_init+0x4c>)
    49f6:	480f      	ldr	r0, [pc, #60]	; (4a34 <iziplus_dataframe_init+0x50>)
    49f8:	4798      	blx	r3
    49fa:	f8d4 3858 	ldr.w	r3, [r4, #2136]	; 0x858
    49fe:	b143      	cbz	r3, 4a12 <iziplus_dataframe_init+0x2e>
    4a00:	b002      	add	sp, #8
    4a02:	bd10      	pop	{r4, pc}
    4a04:	2203      	movs	r2, #3
    4a06:	2001      	movs	r0, #1
    4a08:	4b0b      	ldr	r3, [pc, #44]	; (4a38 <iziplus_dataframe_init+0x54>)
    4a0a:	4798      	blx	r3
    4a0c:	f8c4 0850 	str.w	r0, [r4, #2128]	; 0x850
    4a10:	e7f0      	b.n	49f4 <iziplus_dataframe_init+0x10>
    4a12:	4a0a      	ldr	r2, [pc, #40]	; (4a3c <iziplus_dataframe_init+0x58>)
    4a14:	9201      	str	r2, [sp, #4]
    4a16:	2205      	movs	r2, #5
    4a18:	9200      	str	r2, [sp, #0]
    4a1a:	4909      	ldr	r1, [pc, #36]	; (4a40 <iziplus_dataframe_init+0x5c>)
    4a1c:	4809      	ldr	r0, [pc, #36]	; (4a44 <iziplus_dataframe_init+0x60>)
    4a1e:	4c0a      	ldr	r4, [pc, #40]	; (4a48 <iziplus_dataframe_init+0x64>)
    4a20:	f44f 7280 	mov.w	r2, #256	; 0x100
    4a24:	47a0      	blx	r4
    4a26:	2801      	cmp	r0, #1
    4a28:	d0ea      	beq.n	4a00 <iziplus_dataframe_init+0x1c>
    4a2a:	e7fe      	b.n	4a2a <iziplus_dataframe_init+0x46>
    4a2c:	20002b48 	.word	0x20002b48
    4a30:	00005465 	.word	0x00005465
    4a34:	00004735 	.word	0x00004735
    4a38:	0000e1cd 	.word	0x0000e1cd
    4a3c:	200033a0 	.word	0x200033a0
    4a40:	00011394 	.word	0x00011394
    4a44:	00004ba5 	.word	0x00004ba5
    4a48:	0000ea2d 	.word	0x0000ea2d

00004a4c <iziplus_dataframe_set_rx_callback>:
    4a4c:	4b01      	ldr	r3, [pc, #4]	; (4a54 <iziplus_dataframe_set_rx_callback+0x8>)
    4a4e:	f8c3 085c 	str.w	r0, [r3, #2140]	; 0x85c
    4a52:	4770      	bx	lr
    4a54:	20002b48 	.word	0x20002b48

00004a58 <iziplus_dataframe_set_rxidle_callback>:
    4a58:	4b01      	ldr	r3, [pc, #4]	; (4a60 <iziplus_dataframe_set_rxidle_callback+0x8>)
    4a5a:	f8c3 0860 	str.w	r0, [r3, #2144]	; 0x860
    4a5e:	4770      	bx	lr
    4a60:	20002b48 	.word	0x20002b48

00004a64 <iziplus_data_comquality>:
    4a64:	4b01      	ldr	r3, [pc, #4]	; (4a6c <iziplus_data_comquality+0x8>)
    4a66:	7818      	ldrb	r0, [r3, #0]
    4a68:	4770      	bx	lr
    4a6a:	bf00      	nop
    4a6c:	20002200 	.word	0x20002200

00004a70 <iziplus_data_handle_rx>:
    4a70:	b570      	push	{r4, r5, r6, lr}
    4a72:	6803      	ldr	r3, [r0, #0]
    4a74:	1c5a      	adds	r2, r3, #1
    4a76:	b082      	sub	sp, #8
    4a78:	4604      	mov	r4, r0
    4a7a:	d025      	beq.n	4ac8 <iziplus_data_handle_rx+0x58>
    4a7c:	4a42      	ldr	r2, [pc, #264]	; (4b88 <iziplus_data_handle_rx+0x118>)
    4a7e:	6812      	ldr	r2, [r2, #0]
    4a80:	6b12      	ldr	r2, [r2, #48]	; 0x30
    4a82:	4293      	cmp	r3, r2
    4a84:	d020      	beq.n	4ac8 <iziplus_data_handle_rx+0x58>
    4a86:	7b43      	ldrb	r3, [r0, #13]
    4a88:	4d40      	ldr	r5, [pc, #256]	; (4b8c <iziplus_data_handle_rx+0x11c>)
    4a8a:	f003 030f 	and.w	r3, r3, #15
    4a8e:	2101      	movs	r1, #1
    4a90:	2b04      	cmp	r3, #4
    4a92:	d007      	beq.n	4aa4 <iziplus_data_handle_rx+0x34>
    4a94:	f8d5 385c 	ldr.w	r3, [r5, #2140]	; 0x85c
    4a98:	b1a3      	cbz	r3, 4ac4 <iziplus_data_handle_rx+0x54>
    4a9a:	4620      	mov	r0, r4
    4a9c:	b002      	add	sp, #8
    4a9e:	e8bd 4070 	ldmia.w	sp!, {r4, r5, r6, lr}
    4aa2:	4718      	bx	r3
    4aa4:	4b3a      	ldr	r3, [pc, #232]	; (4b90 <iziplus_data_handle_rx+0x120>)
    4aa6:	6862      	ldr	r2, [r4, #4]
    4aa8:	681b      	ldr	r3, [r3, #0]
    4aaa:	429a      	cmp	r2, r3
    4aac:	7b63      	ldrb	r3, [r4, #13]
    4aae:	bf16      	itet	ne
    4ab0:	2202      	movne	r2, #2
    4ab2:	f36f 0303 	bfceq	r3, #0, #4
    4ab6:	f362 0303 	bfine	r3, r2, #0, #4
    4aba:	7363      	strb	r3, [r4, #13]
    4abc:	f8d5 385c 	ldr.w	r3, [r5, #2140]	; 0x85c
    4ac0:	2b00      	cmp	r3, #0
    4ac2:	d1ea      	bne.n	4a9a <iziplus_data_handle_rx+0x2a>
    4ac4:	b002      	add	sp, #8
    4ac6:	bd70      	pop	{r4, r5, r6, pc}
    4ac8:	7b63      	ldrb	r3, [r4, #13]
    4aca:	f003 010d 	and.w	r1, r3, #13
    4ace:	2901      	cmp	r1, #1
    4ad0:	d037      	beq.n	4b42 <iziplus_data_handle_rx+0xd2>
    4ad2:	8921      	ldrh	r1, [r4, #8]
    4ad4:	f64f 72ff 	movw	r2, #65535	; 0xffff
    4ad8:	4291      	cmp	r1, r2
    4ada:	f003 030f 	and.w	r3, r3, #15
    4ade:	d02d      	beq.n	4b3c <iziplus_data_handle_rx+0xcc>
    4ae0:	4d2a      	ldr	r5, [pc, #168]	; (4b8c <iziplus_data_handle_rx+0x11c>)
    4ae2:	f8b5 2854 	ldrh.w	r2, [r5, #2132]	; 0x854
    4ae6:	f022 021f 	bic.w	r2, r2, #31
    4aea:	0412      	lsls	r2, r2, #16
    4aec:	f647 70e0 	movw	r0, #32736	; 0x7fe0
    4af0:	0c12      	lsrs	r2, r2, #16
    4af2:	4001      	ands	r1, r0
    4af4:	4291      	cmp	r1, r2
    4af6:	d02f      	beq.n	4b58 <iziplus_data_handle_rx+0xe8>
    4af8:	2101      	movs	r1, #1
    4afa:	7b22      	ldrb	r2, [r4, #12]
    4afc:	f895 0864 	ldrb.w	r0, [r5, #2148]	; 0x864
    4b00:	4290      	cmp	r0, r2
    4b02:	d920      	bls.n	4b46 <iziplus_data_handle_rx+0xd6>
    4b04:	4823      	ldr	r0, [pc, #140]	; (4b94 <iziplus_data_handle_rx+0x124>)
    4b06:	7846      	ldrb	r6, [r0, #1]
    4b08:	bb1e      	cbnz	r6, 4b52 <iziplus_data_handle_rx+0xe2>
    4b0a:	f8b5 2866 	ldrh.w	r2, [r5, #2150]	; 0x866
    4b0e:	2364      	movs	r3, #100	; 0x64
    4b10:	fb03 f302 	mul.w	r3, r3, r2
    4b14:	f3c3 2307 	ubfx	r3, r3, #8, #8
    4b18:	2b22      	cmp	r3, #34	; 0x22
    4b1a:	7003      	strb	r3, [r0, #0]
    4b1c:	d927      	bls.n	4b6e <iziplus_data_handle_rx+0xfe>
    4b1e:	4b1e      	ldr	r3, [pc, #120]	; (4b98 <iziplus_data_handle_rx+0x128>)
    4b20:	9101      	str	r1, [sp, #4]
    4b22:	2005      	movs	r0, #5
    4b24:	4798      	blx	r3
    4b26:	7b63      	ldrb	r3, [r4, #13]
    4b28:	7b22      	ldrb	r2, [r4, #12]
    4b2a:	9901      	ldr	r1, [sp, #4]
    4b2c:	f003 030f 	and.w	r3, r3, #15
    4b30:	2001      	movs	r0, #1
    4b32:	f8a5 0866 	strh.w	r0, [r5, #2150]	; 0x866
    4b36:	f885 2864 	strb.w	r2, [r5, #2148]	; 0x864
    4b3a:	e7a9      	b.n	4a90 <iziplus_data_handle_rx+0x20>
    4b3c:	2100      	movs	r1, #0
    4b3e:	4d13      	ldr	r5, [pc, #76]	; (4b8c <iziplus_data_handle_rx+0x11c>)
    4b40:	e7db      	b.n	4afa <iziplus_data_handle_rx+0x8a>
    4b42:	4d12      	ldr	r5, [pc, #72]	; (4b8c <iziplus_data_handle_rx+0x11c>)
    4b44:	e7a6      	b.n	4a94 <iziplus_data_handle_rx+0x24>
    4b46:	f8b5 0866 	ldrh.w	r0, [r5, #2150]	; 0x866
    4b4a:	3001      	adds	r0, #1
    4b4c:	f8a5 0866 	strh.w	r0, [r5, #2150]	; 0x866
    4b50:	e7f1      	b.n	4b36 <iziplus_data_handle_rx+0xc6>
    4b52:	2600      	movs	r6, #0
    4b54:	7046      	strb	r6, [r0, #1]
    4b56:	e7eb      	b.n	4b30 <iziplus_data_handle_rx+0xc0>
    4b58:	4a0d      	ldr	r2, [pc, #52]	; (4b90 <iziplus_data_handle_rx+0x120>)
    4b5a:	6861      	ldr	r1, [r4, #4]
    4b5c:	6812      	ldr	r2, [r2, #0]
    4b5e:	4291      	cmp	r1, r2
    4b60:	d010      	beq.n	4b84 <iziplus_data_handle_rx+0x114>
    4b62:	2900      	cmp	r1, #0
    4b64:	d0c9      	beq.n	4afa <iziplus_data_handle_rx+0x8a>
    4b66:	1f19      	subs	r1, r3, #4
    4b68:	bf18      	it	ne
    4b6a:	2101      	movne	r1, #1
    4b6c:	e7c5      	b.n	4afa <iziplus_data_handle_rx+0x8a>
    4b6e:	4b0b      	ldr	r3, [pc, #44]	; (4b9c <iziplus_data_handle_rx+0x12c>)
    4b70:	9101      	str	r1, [sp, #4]
    4b72:	4798      	blx	r3
    4b74:	f644 6320 	movw	r3, #20000	; 0x4e20
    4b78:	4298      	cmp	r0, r3
    4b7a:	9901      	ldr	r1, [sp, #4]
    4b7c:	d9cf      	bls.n	4b1e <iziplus_data_handle_rx+0xae>
    4b7e:	2005      	movs	r0, #5
    4b80:	4b07      	ldr	r3, [pc, #28]	; (4ba0 <iziplus_data_handle_rx+0x130>)
    4b82:	e7cf      	b.n	4b24 <iziplus_data_handle_rx+0xb4>
    4b84:	2100      	movs	r1, #0
    4b86:	e7b8      	b.n	4afa <iziplus_data_handle_rx+0x8a>
    4b88:	2000ee34 	.word	0x2000ee34
    4b8c:	20002b48 	.word	0x20002b48
    4b90:	00804020 	.word	0x00804020
    4b94:	20002200 	.word	0x20002200
    4b98:	0000d109 	.word	0x0000d109
    4b9c:	0000ece5 	.word	0x0000ece5
    4ba0:	0000d0f9 	.word	0x0000d0f9

00004ba4 <iziplus_data_RxTask>:
    4ba4:	e92d 4ff8 	stmdb	sp!, {r3, r4, r5, r6, r7, r8, r9, sl, fp, lr}
    4ba8:	4d31      	ldr	r5, [pc, #196]	; (4c70 <iziplus_data_RxTask+0xcc>)
    4baa:	f8df a0d8 	ldr.w	sl, [pc, #216]	; 4c84 <iziplus_data_RxTask+0xe0>
    4bae:	f8d5 0850 	ldr.w	r0, [r5, #2128]	; 0x850
    4bb2:	4b30      	ldr	r3, [pc, #192]	; (4c74 <iziplus_data_RxTask+0xd0>)
    4bb4:	f44f 717a 	mov.w	r1, #1000	; 0x3e8
    4bb8:	4798      	blx	r3
    4bba:	b188      	cbz	r0, 4be0 <iziplus_data_RxTask+0x3c>
    4bbc:	f895 4868 	ldrb.w	r4, [r5, #2152]	; 0x868
    4bc0:	2604      	movs	r6, #4
    4bc2:	b2e4      	uxtb	r4, r4
    4bc4:	f04f 0900 	mov.w	r9, #0
    4bc8:	00a7      	lsls	r7, r4, #2
    4bca:	19eb      	adds	r3, r5, r7
    4bcc:	f8d3 3838 	ldr.w	r3, [r3, #2104]	; 0x838
    4bd0:	b9bb      	cbnz	r3, 4c02 <iziplus_data_RxTask+0x5e>
    4bd2:	3401      	adds	r4, #1
    4bd4:	b2e4      	uxtb	r4, r4
    4bd6:	2c04      	cmp	r4, #4
    4bd8:	bf28      	it	cs
    4bda:	2400      	movcs	r4, #0
    4bdc:	3e01      	subs	r6, #1
    4bde:	d1f3      	bne.n	4bc8 <iziplus_data_RxTask+0x24>
    4be0:	f895 3848 	ldrb.w	r3, [r5, #2120]	; 0x848
    4be4:	224a      	movs	r2, #74	; 0x4a
    4be6:	f88a 2011 	strb.w	r2, [sl, #17]
    4bea:	b113      	cbz	r3, 4bf2 <iziplus_data_RxTask+0x4e>
    4bec:	2300      	movs	r3, #0
    4bee:	f885 3848 	strb.w	r3, [r5, #2120]	; 0x848
    4bf2:	f8d5 3860 	ldr.w	r3, [r5, #2144]	; 0x860
    4bf6:	b103      	cbz	r3, 4bfa <iziplus_data_RxTask+0x56>
    4bf8:	4798      	blx	r3
    4bfa:	234b      	movs	r3, #75	; 0x4b
    4bfc:	f88a 3011 	strb.w	r3, [sl, #17]
    4c00:	e7d5      	b.n	4bae <iziplus_data_RxTask+0xa>
    4c02:	f44f 7303 	mov.w	r3, #524	; 0x20c
    4c06:	fb03 f804 	mul.w	r8, r3, r4
    4c0a:	eb05 0b08 	add.w	fp, r5, r8
    4c0e:	4b1a      	ldr	r3, [pc, #104]	; (4c78 <iziplus_data_RxTask+0xd4>)
    4c10:	f8bb 1012 	ldrh.w	r1, [fp, #18]
    4c14:	4498      	add	r8, r3
    4c16:	f3c1 010b 	ubfx	r1, r1, #0, #12
    4c1a:	4b18      	ldr	r3, [pc, #96]	; (4c7c <iziplus_data_RxTask+0xd8>)
    4c1c:	310e      	adds	r1, #14
    4c1e:	4640      	mov	r0, r8
    4c20:	2200      	movs	r2, #0
    4c22:	4798      	blx	r3
    4c24:	f64f 73ff 	movw	r3, #65535	; 0xffff
    4c28:	4298      	cmp	r0, r3
    4c2a:	f10b 0b10 	add.w	fp, fp, #16
    4c2e:	d00f      	beq.n	4c50 <iziplus_data_RxTask+0xac>
    4c30:	f885 4868 	strb.w	r4, [r5, #2152]	; 0x868
    4c34:	f895 3868 	ldrb.w	r3, [r5, #2152]	; 0x868
    4c38:	3301      	adds	r3, #1
    4c3a:	b2db      	uxtb	r3, r3
    4c3c:	442f      	add	r7, r5
    4c3e:	2b03      	cmp	r3, #3
    4c40:	f885 3868 	strb.w	r3, [r5, #2152]	; 0x868
    4c44:	f8c7 9838 	str.w	r9, [r7, #2104]	; 0x838
    4c48:	bf88      	it	hi
    4c4a:	f885 9868 	strbhi.w	r9, [r5, #2152]	; 0x868
    4c4e:	e7c0      	b.n	4bd2 <iziplus_data_RxTask+0x2e>
    4c50:	f8bb 3002 	ldrh.w	r3, [fp, #2]
    4c54:	f3c3 030b 	ubfx	r3, r3, #0, #12
    4c58:	2b03      	cmp	r3, #3
    4c5a:	d9e9      	bls.n	4c30 <iziplus_data_RxTask+0x8c>
    4c5c:	f89b 3003 	ldrb.w	r3, [fp, #3]
    4c60:	f013 0ff0 	tst.w	r3, #240	; 0xf0
    4c64:	d1e4      	bne.n	4c30 <iziplus_data_RxTask+0x8c>
    4c66:	4640      	mov	r0, r8
    4c68:	4b05      	ldr	r3, [pc, #20]	; (4c80 <iziplus_data_RxTask+0xdc>)
    4c6a:	4798      	blx	r3
    4c6c:	e7e0      	b.n	4c30 <iziplus_data_RxTask+0x8c>
    4c6e:	bf00      	nop
    4c70:	20002b48 	.word	0x20002b48
    4c74:	0000e731 	.word	0x0000e731
    4c78:	20002b50 	.word	0x20002b50
    4c7c:	0000fd81 	.word	0x0000fd81
    4c80:	00004a71 	.word	0x00004a71
    4c84:	2001ff00 	.word	0x2001ff00

00004c88 <iziplus_dataframe_response>:
    4c88:	b510      	push	{r4, lr}
    4c8a:	f5b3 7f00 	cmp.w	r3, #512	; 0x200
    4c8e:	b082      	sub	sp, #8
    4c90:	d90a      	bls.n	4ca8 <iziplus_dataframe_response+0x20>
    4c92:	2400      	movs	r4, #0
    4c94:	4621      	mov	r1, r4
    4c96:	4b07      	ldr	r3, [pc, #28]	; (4cb4 <iziplus_dataframe_response+0x2c>)
    4c98:	4807      	ldr	r0, [pc, #28]	; (4cb8 <iziplus_dataframe_response+0x30>)
    4c9a:	4798      	blx	r3
    4c9c:	1b00      	subs	r0, r0, r4
    4c9e:	fab0 f080 	clz	r0, r0
    4ca2:	0940      	lsrs	r0, r0, #5
    4ca4:	b002      	add	sp, #8
    4ca6:	bd10      	pop	{r4, pc}
    4ca8:	4c03      	ldr	r4, [pc, #12]	; (4cb8 <iziplus_dataframe_response+0x30>)
    4caa:	9400      	str	r4, [sp, #0]
    4cac:	4c03      	ldr	r4, [pc, #12]	; (4cbc <iziplus_dataframe_response+0x34>)
    4cae:	47a0      	blx	r4
    4cb0:	4604      	mov	r4, r0
    4cb2:	e7ef      	b.n	4c94 <iziplus_dataframe_response+0xc>
    4cb4:	00005495 	.word	0x00005495
    4cb8:	200033b4 	.word	0x200033b4
    4cbc:	000048e9 	.word	0x000048e9

00004cc0 <iziplus_dataframe_timer100ms>:
    4cc0:	4b10      	ldr	r3, [pc, #64]	; (4d04 <iziplus_dataframe_timer100ms+0x44>)
    4cc2:	f8b3 284a 	ldrh.w	r2, [r3, #2122]	; 0x84a
    4cc6:	b292      	uxth	r2, r2
    4cc8:	b142      	cbz	r2, 4cdc <iziplus_dataframe_timer100ms+0x1c>
    4cca:	f8b3 284c 	ldrh.w	r2, [r3, #2124]	; 0x84c
    4cce:	3201      	adds	r2, #1
    4cd0:	b292      	uxth	r2, r2
    4cd2:	2100      	movs	r1, #0
    4cd4:	f8a3 284c 	strh.w	r2, [r3, #2124]	; 0x84c
    4cd8:	f8a3 184a 	strh.w	r1, [r3, #2122]	; 0x84a
    4cdc:	f893 2a8c 	ldrb.w	r2, [r3, #2700]	; 0xa8c
    4ce0:	3201      	adds	r2, #1
    4ce2:	b2d2      	uxtb	r2, r2
    4ce4:	2a09      	cmp	r2, #9
    4ce6:	f883 2a8c 	strb.w	r2, [r3, #2700]	; 0xa8c
    4cea:	d909      	bls.n	4d00 <iziplus_dataframe_timer100ms+0x40>
    4cec:	f8b3 284c 	ldrh.w	r2, [r3, #2124]	; 0x84c
    4cf0:	2100      	movs	r1, #0
    4cf2:	b292      	uxth	r2, r2
    4cf4:	f8a3 2a8e 	strh.w	r2, [r3, #2702]	; 0xa8e
    4cf8:	f883 1a8c 	strb.w	r1, [r3, #2700]	; 0xa8c
    4cfc:	f8a3 184c 	strh.w	r1, [r3, #2124]	; 0x84c
    4d00:	4770      	bx	lr
    4d02:	bf00      	nop
    4d04:	20002b48 	.word	0x20002b48

00004d08 <iziplus_dataframe_loss>:
    4d08:	4b02      	ldr	r3, [pc, #8]	; (4d14 <iziplus_dataframe_loss+0xc>)
    4d0a:	f8b3 0a8e 	ldrh.w	r0, [r3, #2702]	; 0xa8e
    4d0e:	b280      	uxth	r0, r0
    4d10:	4770      	bx	lr
    4d12:	bf00      	nop
    4d14:	20002b48 	.word	0x20002b48

00004d18 <iziplus_networkframe_error>:
    4d18:	b470      	push	{r4, r5, r6}
    4d1a:	7844      	ldrb	r4, [r0, #1]
    4d1c:	f99d 500c 	ldrsb.w	r5, [sp, #12]
    4d20:	7082      	strb	r2, [r0, #2]
    4d22:	2601      	movs	r6, #1
    4d24:	f363 1406 	bfi	r4, r3, #4, #3
    4d28:	f366 0403 	bfi	r4, r6, #0, #4
    4d2c:	f36f 14c7 	bfc	r4, #7, #1
    4d30:	7001      	strb	r1, [r0, #0]
    4d32:	7044      	strb	r4, [r0, #1]
    4d34:	70c5      	strb	r5, [r0, #3]
    4d36:	bc70      	pop	{r4, r5, r6}
    4d38:	2004      	movs	r0, #4
    4d3a:	4770      	bx	lr

00004d3c <iziplus_networkframe_discover>:
    4d3c:	b410      	push	{r4}
    4d3e:	7843      	ldrb	r3, [r0, #1]
    4d40:	7001      	strb	r1, [r0, #0]
    4d42:	2402      	movs	r4, #2
    4d44:	f364 1306 	bfi	r3, r4, #4, #3
    4d48:	2101      	movs	r1, #1
    4d4a:	f361 0303 	bfi	r3, r1, #0, #4
    4d4e:	2100      	movs	r1, #0
    4d50:	f3c2 2407 	ubfx	r4, r2, #8, #8
    4d54:	f361 13c7 	bfi	r3, r1, #7, #1
    4d58:	7102      	strb	r2, [r0, #4]
    4d5a:	7144      	strb	r4, [r0, #5]
    4d5c:	7043      	strb	r3, [r0, #1]
    4d5e:	7081      	strb	r1, [r0, #2]
    4d60:	70c1      	strb	r1, [r0, #3]
    4d62:	f85d 4b04 	ldr.w	r4, [sp], #4
    4d66:	2006      	movs	r0, #6
    4d68:	4770      	bx	lr
    4d6a:	bf00      	nop

00004d6c <iziplus_networkframe_assign_network>:
    4d6c:	7843      	ldrb	r3, [r0, #1]
    4d6e:	7001      	strb	r1, [r0, #0]
    4d70:	2201      	movs	r2, #1
    4d72:	f362 1306 	bfi	r3, r2, #4, #3
    4d76:	f362 0303 	bfi	r3, r2, #0, #4
    4d7a:	f36f 13c7 	bfc	r3, #7, #1
    4d7e:	2100      	movs	r1, #0
    4d80:	7043      	strb	r3, [r0, #1]
    4d82:	7082      	strb	r2, [r0, #2]
    4d84:	70c1      	strb	r1, [r0, #3]
    4d86:	2004      	movs	r0, #4
    4d88:	4770      	bx	lr
    4d8a:	bf00      	nop

00004d8c <iziplus_networkframe_assign_channelmodewritedelay>:
    4d8c:	b430      	push	{r4, r5}
    4d8e:	7843      	ldrb	r3, [r0, #1]
    4d90:	7001      	strb	r1, [r0, #0]
    4d92:	2401      	movs	r4, #1
    4d94:	f364 1306 	bfi	r3, r4, #4, #3
    4d98:	2503      	movs	r5, #3
    4d9a:	f003 037f 	and.w	r3, r3, #127	; 0x7f
    4d9e:	2420      	movs	r4, #32
    4da0:	f365 0303 	bfi	r3, r5, #0, #4
    4da4:	2100      	movs	r1, #0
    4da6:	7102      	strb	r2, [r0, #4]
    4da8:	7084      	strb	r4, [r0, #2]
    4daa:	70c1      	strb	r1, [r0, #3]
    4dac:	7043      	strb	r3, [r0, #1]
    4dae:	bc30      	pop	{r4, r5}
    4db0:	2005      	movs	r0, #5
    4db2:	4770      	bx	lr

00004db4 <iziplus_networkframe_assign_channelmodewrite>:
    4db4:	b410      	push	{r4}
    4db6:	7843      	ldrb	r3, [r0, #1]
    4db8:	7001      	strb	r1, [r0, #0]
    4dba:	2401      	movs	r4, #1
    4dbc:	f364 1306 	bfi	r3, r4, #4, #3
    4dc0:	f364 0303 	bfi	r3, r4, #0, #4
    4dc4:	f36f 13c7 	bfc	r3, #7, #1
    4dc8:	2420      	movs	r4, #32
    4dca:	2100      	movs	r1, #0
    4dcc:	7102      	strb	r2, [r0, #4]
    4dce:	7084      	strb	r4, [r0, #2]
    4dd0:	7043      	strb	r3, [r0, #1]
    4dd2:	70c1      	strb	r1, [r0, #3]
    4dd4:	f85d 4b04 	ldr.w	r4, [sp], #4
    4dd8:	2005      	movs	r0, #5
    4dda:	4770      	bx	lr

00004ddc <iziplus_networkframe_assign_channelmoderead>:
    4ddc:	b4f0      	push	{r4, r5, r6, r7}
    4dde:	7844      	ldrb	r4, [r0, #1]
    4de0:	7001      	strb	r1, [r0, #0]
    4de2:	2601      	movs	r6, #1
    4de4:	f004 018f 	and.w	r1, r4, #143	; 0x8f
    4de8:	f366 0103 	bfi	r1, r6, #0, #4
    4dec:	f89d 5010 	ldrb.w	r5, [sp, #16]
    4df0:	f89d 4014 	ldrb.w	r4, [sp, #20]
    4df4:	8082      	strh	r2, [r0, #4]
    4df6:	2720      	movs	r7, #32
    4df8:	2600      	movs	r6, #0
    4dfa:	f89d 2018 	ldrb.w	r2, [sp, #24]
    4dfe:	7183      	strb	r3, [r0, #6]
    4e00:	f36f 11c7 	bfc	r1, #7, #1
    4e04:	7087      	strb	r7, [r0, #2]
    4e06:	7041      	strb	r1, [r0, #1]
    4e08:	70c6      	strb	r6, [r0, #3]
    4e0a:	71c5      	strb	r5, [r0, #7]
    4e0c:	7204      	strb	r4, [r0, #8]
    4e0e:	7242      	strb	r2, [r0, #9]
    4e10:	bcf0      	pop	{r4, r5, r6, r7}
    4e12:	200a      	movs	r0, #10
    4e14:	4770      	bx	lr
    4e16:	bf00      	nop

00004e18 <iziplus_networkframe_assign_configwrite>:
    4e18:	7843      	ldrb	r3, [r0, #1]
    4e1a:	7001      	strb	r1, [r0, #0]
    4e1c:	2201      	movs	r2, #1
    4e1e:	f362 1306 	bfi	r3, r2, #4, #3
    4e22:	f362 0303 	bfi	r3, r2, #0, #4
    4e26:	2122      	movs	r1, #34	; 0x22
    4e28:	f36f 13c7 	bfc	r3, #7, #1
    4e2c:	2200      	movs	r2, #0
    4e2e:	7081      	strb	r1, [r0, #2]
    4e30:	7043      	strb	r3, [r0, #1]
    4e32:	70c2      	strb	r2, [r0, #3]
    4e34:	2004      	movs	r0, #4
    4e36:	4770      	bx	lr

00004e38 <iziplus_networkframe_assign_configwritedly>:
    4e38:	b410      	push	{r4}
    4e3a:	7843      	ldrb	r3, [r0, #1]
    4e3c:	7001      	strb	r1, [r0, #0]
    4e3e:	2201      	movs	r2, #1
    4e40:	f362 1306 	bfi	r3, r2, #4, #3
    4e44:	2403      	movs	r4, #3
    4e46:	f003 037f 	and.w	r3, r3, #127	; 0x7f
    4e4a:	f364 0303 	bfi	r3, r4, #0, #4
    4e4e:	2122      	movs	r1, #34	; 0x22
    4e50:	2200      	movs	r2, #0
    4e52:	7081      	strb	r1, [r0, #2]
    4e54:	70c2      	strb	r2, [r0, #3]
    4e56:	7043      	strb	r3, [r0, #1]
    4e58:	f85d 4b04 	ldr.w	r4, [sp], #4
    4e5c:	2004      	movs	r0, #4
    4e5e:	4770      	bx	lr

00004e60 <iziplus_networkframe_assign_configread>:
    4e60:	b570      	push	{r4, r5, r6, lr}
    4e62:	7844      	ldrb	r4, [r0, #1]
    4e64:	7001      	strb	r1, [r0, #0]
    4e66:	2501      	movs	r5, #1
    4e68:	f004 048f 	and.w	r4, r4, #143	; 0x8f
    4e6c:	f365 0403 	bfi	r4, r5, #0, #4
    4e70:	2622      	movs	r6, #34	; 0x22
    4e72:	461d      	mov	r5, r3
    4e74:	f36f 14c7 	bfc	r4, #7, #1
    4e78:	2300      	movs	r3, #0
    4e7a:	4611      	mov	r1, r2
    4e7c:	7086      	strb	r6, [r0, #2]
    4e7e:	7044      	strb	r4, [r0, #1]
    4e80:	70c3      	strb	r3, [r0, #3]
    4e82:	462a      	mov	r2, r5
    4e84:	4b02      	ldr	r3, [pc, #8]	; (4e90 <iziplus_networkframe_assign_configread+0x30>)
    4e86:	3004      	adds	r0, #4
    4e88:	4798      	blx	r3
    4e8a:	1d28      	adds	r0, r5, #4
    4e8c:	bd70      	pop	{r4, r5, r6, pc}
    4e8e:	bf00      	nop
    4e90:	00010a69 	.word	0x00010a69

00004e94 <iziplus_networkframe_textwrite>:
    4e94:	7843      	ldrb	r3, [r0, #1]
    4e96:	7001      	strb	r1, [r0, #0]
    4e98:	2201      	movs	r2, #1
    4e9a:	f362 1306 	bfi	r3, r2, #4, #3
    4e9e:	f362 0303 	bfi	r3, r2, #0, #4
    4ea2:	2121      	movs	r1, #33	; 0x21
    4ea4:	f36f 13c7 	bfc	r3, #7, #1
    4ea8:	2200      	movs	r2, #0
    4eaa:	7081      	strb	r1, [r0, #2]
    4eac:	7043      	strb	r3, [r0, #1]
    4eae:	70c2      	strb	r2, [r0, #3]
    4eb0:	2004      	movs	r0, #4
    4eb2:	4770      	bx	lr

00004eb4 <iziplus_networkframe_textwritedly>:
    4eb4:	b410      	push	{r4}
    4eb6:	7843      	ldrb	r3, [r0, #1]
    4eb8:	7001      	strb	r1, [r0, #0]
    4eba:	2201      	movs	r2, #1
    4ebc:	f362 1306 	bfi	r3, r2, #4, #3
    4ec0:	2403      	movs	r4, #3
    4ec2:	f003 037f 	and.w	r3, r3, #127	; 0x7f
    4ec6:	f364 0303 	bfi	r3, r4, #0, #4
    4eca:	2121      	movs	r1, #33	; 0x21
    4ecc:	2200      	movs	r2, #0
    4ece:	7081      	strb	r1, [r0, #2]
    4ed0:	70c2      	strb	r2, [r0, #3]
    4ed2:	7043      	strb	r3, [r0, #1]
    4ed4:	f85d 4b04 	ldr.w	r4, [sp], #4
    4ed8:	2004      	movs	r0, #4
    4eda:	4770      	bx	lr

00004edc <iziplus_networkframe_textread>:
    4edc:	b570      	push	{r4, r5, r6, lr}
    4ede:	7844      	ldrb	r4, [r0, #1]
    4ee0:	7001      	strb	r1, [r0, #0]
    4ee2:	2501      	movs	r5, #1
    4ee4:	f004 048f 	and.w	r4, r4, #143	; 0x8f
    4ee8:	f365 0403 	bfi	r4, r5, #0, #4
    4eec:	2621      	movs	r6, #33	; 0x21
    4eee:	461d      	mov	r5, r3
    4ef0:	f36f 14c7 	bfc	r4, #7, #1
    4ef4:	2300      	movs	r3, #0
    4ef6:	4611      	mov	r1, r2
    4ef8:	7086      	strb	r6, [r0, #2]
    4efa:	7044      	strb	r4, [r0, #1]
    4efc:	70c3      	strb	r3, [r0, #3]
    4efe:	462a      	mov	r2, r5
    4f00:	4b02      	ldr	r3, [pc, #8]	; (4f0c <iziplus_networkframe_textread+0x30>)
    4f02:	3004      	adds	r0, #4
    4f04:	4798      	blx	r3
    4f06:	1d28      	adds	r0, r5, #4
    4f08:	bd70      	pop	{r4, r5, r6, pc}
    4f0a:	bf00      	nop
    4f0c:	00010a69 	.word	0x00010a69

00004f10 <iziplus_networkframe_versionread>:
    4f10:	e92d 47f0 	stmdb	sp!, {r4, r5, r6, r7, r8, r9, sl, lr}
    4f14:	7844      	ldrb	r4, [r0, #1]
    4f16:	7001      	strb	r1, [r0, #0]
    4f18:	2501      	movs	r5, #1
    4f1a:	f004 018f 	and.w	r1, r4, #143	; 0x8f
    4f1e:	f365 0103 	bfi	r1, r5, #0, #4
    4f22:	f89d e03c 	ldrb.w	lr, [sp, #60]	; 0x3c
    4f26:	f8bd 9020 	ldrh.w	r9, [sp, #32]
    4f2a:	f8bd 802c 	ldrh.w	r8, [sp, #44]	; 0x2c
    4f2e:	f89d c030 	ldrb.w	ip, [sp, #48]	; 0x30
    4f32:	f89d 7034 	ldrb.w	r7, [sp, #52]	; 0x34
    4f36:	f89d 6038 	ldrb.w	r6, [sp, #56]	; 0x38
    4f3a:	2542      	movs	r5, #66	; 0x42
    4f3c:	f36f 11c7 	bfc	r1, #7, #1
    4f40:	2400      	movs	r4, #0
    4f42:	7085      	strb	r5, [r0, #2]
    4f44:	7041      	strb	r1, [r0, #1]
    4f46:	70c4      	strb	r4, [r0, #3]
    4f48:	f8bd 5024 	ldrh.w	r5, [sp, #36]	; 0x24
    4f4c:	f89d 4040 	ldrb.w	r4, [sp, #64]	; 0x40
    4f50:	9911      	ldr	r1, [sp, #68]	; 0x44
    4f52:	f1be 0f00 	cmp.w	lr, #0
    4f56:	d007      	beq.n	4f68 <iziplus_networkframe_versionread+0x58>
    4f58:	f890 e001 	ldrb.w	lr, [r0, #1]
    4f5c:	f04f 0a02 	mov.w	sl, #2
    4f60:	f36a 0e03 	bfi	lr, sl, #0, #4
    4f64:	f880 e001 	strb.w	lr, [r0, #1]
    4f68:	6083      	str	r3, [r0, #8]
    4f6a:	9b0a      	ldr	r3, [sp, #40]	; 0x28
    4f6c:	6042      	str	r2, [r0, #4]
    4f6e:	f8a0 900c 	strh.w	r9, [r0, #12]
    4f72:	6103      	str	r3, [r0, #16]
    4f74:	f8a0 8014 	strh.w	r8, [r0, #20]
    4f78:	f880 c016 	strb.w	ip, [r0, #22]
    4f7c:	75c7      	strb	r7, [r0, #23]
    4f7e:	7606      	strb	r6, [r0, #24]
    4f80:	81c5      	strh	r5, [r0, #14]
    4f82:	7644      	strb	r4, [r0, #25]
    4f84:	f8c0 101a 	str.w	r1, [r0, #26]
    4f88:	201e      	movs	r0, #30
    4f8a:	e8bd 87f0 	ldmia.w	sp!, {r4, r5, r6, r7, r8, r9, sl, pc}
    4f8e:	bf00      	nop

00004f90 <iziplus_networkframe_operationmodewrite>:
    4f90:	b470      	push	{r4, r5, r6}
    4f92:	7844      	ldrb	r4, [r0, #1]
    4f94:	7001      	strb	r1, [r0, #0]
    4f96:	2501      	movs	r5, #1
    4f98:	f365 1406 	bfi	r4, r5, #4, #3
    4f9c:	f365 0403 	bfi	r4, r5, #0, #4
    4fa0:	f89d 600c 	ldrb.w	r6, [sp, #12]
    4fa4:	7102      	strb	r2, [r0, #4]
    4fa6:	2502      	movs	r5, #2
    4fa8:	f36f 14c7 	bfc	r4, #7, #1
    4fac:	2100      	movs	r1, #0
    4fae:	7143      	strb	r3, [r0, #5]
    4fb0:	7085      	strb	r5, [r0, #2]
    4fb2:	7044      	strb	r4, [r0, #1]
    4fb4:	70c1      	strb	r1, [r0, #3]
    4fb6:	7186      	strb	r6, [r0, #6]
    4fb8:	bc70      	pop	{r4, r5, r6}
    4fba:	2005      	movs	r0, #5
    4fbc:	4770      	bx	lr
    4fbe:	bf00      	nop

00004fc0 <iziplus_networkframe_stateread>:
    4fc0:	b570      	push	{r4, r5, r6, lr}
    4fc2:	7844      	ldrb	r4, [r0, #1]
    4fc4:	f89d 5014 	ldrb.w	r5, [sp, #20]
    4fc8:	7001      	strb	r1, [r0, #0]
    4fca:	f004 010f 	and.w	r1, r4, #15
    4fce:	f362 0103 	bfi	r1, r2, #0, #4
    4fd2:	2610      	movs	r6, #16
    4fd4:	2400      	movs	r4, #0
    4fd6:	8083      	strh	r3, [r0, #4]
    4fd8:	7086      	strb	r6, [r0, #2]
    4fda:	70c4      	strb	r4, [r0, #3]
    4fdc:	7041      	strb	r1, [r0, #1]
    4fde:	462a      	mov	r2, r5
    4fe0:	9904      	ldr	r1, [sp, #16]
    4fe2:	4b02      	ldr	r3, [pc, #8]	; (4fec <iziplus_networkframe_stateread+0x2c>)
    4fe4:	3006      	adds	r0, #6
    4fe6:	4798      	blx	r3
    4fe8:	1da8      	adds	r0, r5, #6
    4fea:	bd70      	pop	{r4, r5, r6, pc}
    4fec:	00010a69 	.word	0x00010a69

00004ff0 <iziplus_networkframe_joinnetworkaction>:
    4ff0:	b4f0      	push	{r4, r5, r6, r7}
    4ff2:	7844      	ldrb	r4, [r0, #1]
    4ff4:	7001      	strb	r1, [r0, #0]
    4ff6:	2502      	movs	r5, #2
    4ff8:	f365 1406 	bfi	r4, r5, #4, #3
    4ffc:	f004 047f 	and.w	r4, r4, #127	; 0x7f
    5000:	f3c3 2707 	ubfx	r7, r3, #8, #8
    5004:	2608      	movs	r6, #8
    5006:	f365 0403 	bfi	r4, r5, #0, #4
    500a:	2100      	movs	r1, #0
    500c:	7203      	strb	r3, [r0, #8]
    500e:	7247      	strb	r7, [r0, #9]
    5010:	7086      	strb	r6, [r0, #2]
    5012:	70c1      	strb	r1, [r0, #3]
    5014:	7044      	strb	r4, [r0, #1]
    5016:	6042      	str	r2, [r0, #4]
    5018:	bcf0      	pop	{r4, r5, r6, r7}
    501a:	200a      	movs	r0, #10
    501c:	4770      	bx	lr
    501e:	bf00      	nop

00005020 <iziplus_networkframe_identifyaction>:
    5020:	7843      	ldrb	r3, [r0, #1]
    5022:	7001      	strb	r1, [r0, #0]
    5024:	2202      	movs	r2, #2
    5026:	f362 1306 	bfi	r3, r2, #4, #3
    502a:	2201      	movs	r2, #1
    502c:	f362 0303 	bfi	r3, r2, #0, #4
    5030:	2111      	movs	r1, #17
    5032:	f36f 13c7 	bfc	r3, #7, #1
    5036:	2200      	movs	r2, #0
    5038:	7081      	strb	r1, [r0, #2]
    503a:	7043      	strb	r3, [r0, #1]
    503c:	70c2      	strb	r2, [r0, #3]
    503e:	2004      	movs	r0, #4
    5040:	4770      	bx	lr
    5042:	bf00      	nop

00005044 <iziplus_networkframe_identifyaction_not>:
    5044:	7843      	ldrb	r3, [r0, #1]
    5046:	7001      	strb	r1, [r0, #0]
    5048:	2202      	movs	r2, #2
    504a:	f362 1306 	bfi	r3, r2, #4, #3
    504e:	f003 037f 	and.w	r3, r3, #127	; 0x7f
    5052:	f362 0303 	bfi	r3, r2, #0, #4
    5056:	2111      	movs	r1, #17
    5058:	2200      	movs	r2, #0
    505a:	7081      	strb	r1, [r0, #2]
    505c:	7043      	strb	r3, [r0, #1]
    505e:	70c2      	strb	r2, [r0, #3]
    5060:	7102      	strb	r2, [r0, #4]
    5062:	2005      	movs	r0, #5
    5064:	4770      	bx	lr
    5066:	bf00      	nop

00005068 <iziplus_networkframe_firmwarewrite>:
    5068:	7843      	ldrb	r3, [r0, #1]
    506a:	7001      	strb	r1, [r0, #0]
    506c:	2201      	movs	r2, #1
    506e:	f362 1306 	bfi	r3, r2, #4, #3
    5072:	f362 0303 	bfi	r3, r2, #0, #4
    5076:	2180      	movs	r1, #128	; 0x80
    5078:	f36f 13c7 	bfc	r3, #7, #1
    507c:	2200      	movs	r2, #0
    507e:	7081      	strb	r1, [r0, #2]
    5080:	7043      	strb	r3, [r0, #1]
    5082:	70c2      	strb	r2, [r0, #3]
    5084:	2004      	movs	r0, #4
    5086:	4770      	bx	lr

00005088 <iziplus_networkframe_firmwarewritedly>:
    5088:	b410      	push	{r4}
    508a:	7843      	ldrb	r3, [r0, #1]
    508c:	7001      	strb	r1, [r0, #0]
    508e:	2201      	movs	r2, #1
    5090:	f362 1306 	bfi	r3, r2, #4, #3
    5094:	2403      	movs	r4, #3
    5096:	f003 037f 	and.w	r3, r3, #127	; 0x7f
    509a:	f364 0303 	bfi	r3, r4, #0, #4
    509e:	2180      	movs	r1, #128	; 0x80
    50a0:	2200      	movs	r2, #0
    50a2:	7081      	strb	r1, [r0, #2]
    50a4:	70c2      	strb	r2, [r0, #3]
    50a6:	7043      	strb	r3, [r0, #1]
    50a8:	f85d 4b04 	ldr.w	r4, [sp], #4
    50ac:	2004      	movs	r0, #4
    50ae:	4770      	bx	lr

000050b0 <iziplus_networkframe_firmwareapply>:
    50b0:	7843      	ldrb	r3, [r0, #1]
    50b2:	7001      	strb	r1, [r0, #0]
    50b4:	2201      	movs	r2, #1
    50b6:	f362 1306 	bfi	r3, r2, #4, #3
    50ba:	f362 0303 	bfi	r3, r2, #0, #4
    50be:	2181      	movs	r1, #129	; 0x81
    50c0:	f36f 13c7 	bfc	r3, #7, #1
    50c4:	2200      	movs	r2, #0
    50c6:	7081      	strb	r1, [r0, #2]
    50c8:	7043      	strb	r3, [r0, #1]
    50ca:	70c2      	strb	r2, [r0, #3]
    50cc:	2004      	movs	r0, #4
    50ce:	4770      	bx	lr

000050d0 <iziplus_networkframe_firmwareapplydly>:
    50d0:	b410      	push	{r4}
    50d2:	7843      	ldrb	r3, [r0, #1]
    50d4:	7001      	strb	r1, [r0, #0]
    50d6:	2201      	movs	r2, #1
    50d8:	f362 1306 	bfi	r3, r2, #4, #3
    50dc:	2403      	movs	r4, #3
    50de:	f003 037f 	and.w	r3, r3, #127	; 0x7f
    50e2:	f364 0303 	bfi	r3, r4, #0, #4
    50e6:	2181      	movs	r1, #129	; 0x81
    50e8:	2200      	movs	r2, #0
    50ea:	7081      	strb	r1, [r0, #2]
    50ec:	70c2      	strb	r2, [r0, #3]
    50ee:	7043      	strb	r3, [r0, #1]
    50f0:	f85d 4b04 	ldr.w	r4, [sp], #4
    50f4:	2004      	movs	r0, #4
    50f6:	4770      	bx	lr

000050f8 <iziplus_networkframe_firmwareallow>:
    50f8:	b410      	push	{r4}
    50fa:	7843      	ldrb	r3, [r0, #1]
    50fc:	7001      	strb	r1, [r0, #0]
    50fe:	2402      	movs	r4, #2
    5100:	f364 1306 	bfi	r3, r4, #4, #3
    5104:	2101      	movs	r1, #1
    5106:	f361 0303 	bfi	r3, r1, #0, #4
    510a:	2482      	movs	r4, #130	; 0x82
    510c:	f36f 13c7 	bfc	r3, #7, #1
    5110:	2100      	movs	r1, #0
    5112:	6042      	str	r2, [r0, #4]
    5114:	7084      	strb	r4, [r0, #2]
    5116:	7043      	strb	r3, [r0, #1]
    5118:	70c1      	strb	r1, [r0, #3]
    511a:	f85d 4b04 	ldr.w	r4, [sp], #4
    511e:	2008      	movs	r0, #8
    5120:	4770      	bx	lr
    5122:	bf00      	nop

00005124 <iziplus_networkframe_production_data_write>:
    5124:	7843      	ldrb	r3, [r0, #1]
    5126:	7001      	strb	r1, [r0, #0]
    5128:	2201      	movs	r2, #1
    512a:	f362 1306 	bfi	r3, r2, #4, #3
    512e:	f362 0303 	bfi	r3, r2, #0, #4
    5132:	f36f 13c7 	bfc	r3, #7, #1
    5136:	2100      	movs	r1, #0
    5138:	7043      	strb	r3, [r0, #1]
    513a:	7082      	strb	r2, [r0, #2]
    513c:	70c1      	strb	r1, [r0, #3]
    513e:	2004      	movs	r0, #4
    5140:	4770      	bx	lr
    5142:	bf00      	nop

00005144 <iziplus_networkframe_production_data_read>:
    5144:	b570      	push	{r4, r5, r6, lr}
    5146:	7844      	ldrb	r4, [r0, #1]
    5148:	7001      	strb	r1, [r0, #0]
    514a:	2b1e      	cmp	r3, #30
    514c:	f04f 0601 	mov.w	r6, #1
    5150:	f004 048f 	and.w	r4, r4, #143	; 0x8f
    5154:	bf28      	it	cs
    5156:	231e      	movcs	r3, #30
    5158:	f366 0403 	bfi	r4, r6, #0, #4
    515c:	461d      	mov	r5, r3
    515e:	f36f 14c7 	bfc	r4, #7, #1
    5162:	2300      	movs	r3, #0
    5164:	4611      	mov	r1, r2
    5166:	7044      	strb	r4, [r0, #1]
    5168:	7086      	strb	r6, [r0, #2]
    516a:	70c3      	strb	r3, [r0, #3]
    516c:	462a      	mov	r2, r5
    516e:	4b02      	ldr	r3, [pc, #8]	; (5178 <iziplus_networkframe_production_data_read+0x34>)
    5170:	3004      	adds	r0, #4
    5172:	4798      	blx	r3
    5174:	1d28      	adds	r0, r5, #4
    5176:	bd70      	pop	{r4, r5, r6, pc}
    5178:	00010a69 	.word	0x00010a69

0000517c <bod33_enable_at_poweron>:
    517c:	b5f0      	push	{r4, r5, r6, r7, lr}
    517e:	4c1a      	ldr	r4, [pc, #104]	; (51e8 <bod33_enable_at_poweron+0x6c>)
    5180:	6823      	ldr	r3, [r4, #0]
    5182:	6864      	ldr	r4, [r4, #4]
    5184:	f423 43ff 	bic.w	r3, r3, #32640	; 0x7f80
    5188:	0249      	lsls	r1, r1, #9
    518a:	f023 037f 	bic.w	r3, r3, #127	; 0x7f
    518e:	f401 61c0 	and.w	r1, r1, #1536	; 0x600
    5192:	ea43 0040 	orr.w	r0, r3, r0, lsl #1
    5196:	b083      	sub	sp, #12
    5198:	4308      	orrs	r0, r1
    519a:	b10a      	cbz	r2, 51a0 <bod33_enable_at_poweron+0x24>
    519c:	f440 5080 	orr.w	r0, r0, #4096	; 0x1000
    51a0:	ea4f 4c10 	mov.w	ip, r0, lsr #16
    51a4:	ea4f 6e10 	mov.w	lr, r0, lsr #24
    51a8:	0a01      	lsrs	r1, r0, #8
    51aa:	0a27      	lsrs	r7, r4, #8
    51ac:	0c26      	lsrs	r6, r4, #16
    51ae:	0e25      	lsrs	r5, r4, #24
    51b0:	f88d 0000 	strb.w	r0, [sp]
    51b4:	f88d 4004 	strb.w	r4, [sp, #4]
    51b8:	f88d 1001 	strb.w	r1, [sp, #1]
    51bc:	2308      	movs	r3, #8
    51be:	466a      	mov	r2, sp
    51c0:	2100      	movs	r1, #0
    51c2:	f88d c002 	strb.w	ip, [sp, #2]
    51c6:	f88d e003 	strb.w	lr, [sp, #3]
    51ca:	4c08      	ldr	r4, [pc, #32]	; (51ec <bod33_enable_at_poweron+0x70>)
    51cc:	f88d 7005 	strb.w	r7, [sp, #5]
    51d0:	f88d 6006 	strb.w	r6, [sp, #6]
    51d4:	f88d 5007 	strb.w	r5, [sp, #7]
    51d8:	4803      	ldr	r0, [pc, #12]	; (51e8 <bod33_enable_at_poweron+0x6c>)
    51da:	47a0      	blx	r4
    51dc:	fab0 f080 	clz	r0, r0
    51e0:	0940      	lsrs	r0, r0, #5
    51e2:	b003      	add	sp, #12
    51e4:	bdf0      	pop	{r4, r5, r6, r7, pc}
    51e6:	bf00      	nop
    51e8:	00804000 	.word	0x00804000
    51ec:	00008f79 	.word	0x00008f79

000051f0 <bod33_ensure>:
    51f0:	b430      	push	{r4, r5}
    51f2:	4b29      	ldr	r3, [pc, #164]	; (5298 <bod33_ensure+0xa8>)
    51f4:	789b      	ldrb	r3, [r3, #2]
    51f6:	f013 0f01 	tst.w	r3, #1
    51fa:	4b28      	ldr	r3, [pc, #160]	; (529c <bod33_ensure+0xac>)
    51fc:	681c      	ldr	r4, [r3, #0]
    51fe:	685b      	ldr	r3, [r3, #4]
    5200:	d022      	beq.n	5248 <bod33_ensure+0x58>
    5202:	07e5      	lsls	r5, r4, #31
    5204:	d536      	bpl.n	5274 <bod33_ensure+0x84>
    5206:	f001 0103 	and.w	r1, r1, #3
    520a:	4b25      	ldr	r3, [pc, #148]	; (52a0 <bod33_ensure+0xb0>)
    520c:	691c      	ldr	r4, [r3, #16]
    520e:	f36f 0441 	bfc	r4, #1, #1
    5212:	611c      	str	r4, [r3, #16]
    5214:	691c      	ldr	r4, [r3, #16]
    5216:	f360 4417 	bfi	r4, r0, #16, #8
    521a:	611c      	str	r4, [r3, #16]
    521c:	6918      	ldr	r0, [r3, #16]
    521e:	f361 0083 	bfi	r0, r1, #2, #2
    5222:	6118      	str	r0, [r3, #16]
    5224:	2a00      	cmp	r2, #0
    5226:	691a      	ldr	r2, [r3, #16]
    5228:	bf14      	ite	ne
    522a:	2102      	movne	r1, #2
    522c:	2100      	moveq	r1, #0
    522e:	f361 220b 	bfi	r2, r1, #8, #4
    5232:	611a      	str	r2, [r3, #16]
    5234:	691a      	ldr	r2, [r3, #16]
    5236:	f042 0202 	orr.w	r2, r2, #2
    523a:	611a      	str	r2, [r3, #16]
    523c:	68da      	ldr	r2, [r3, #12]
    523e:	07d2      	lsls	r2, r2, #31
    5240:	d5fc      	bpl.n	523c <bod33_ensure+0x4c>
    5242:	2000      	movs	r0, #0
    5244:	bc30      	pop	{r4, r5}
    5246:	4770      	bx	lr
    5248:	07e3      	lsls	r3, r4, #31
    524a:	d502      	bpl.n	5252 <bod33_ensure+0x62>
    524c:	4b15      	ldr	r3, [pc, #84]	; (52a4 <bod33_ensure+0xb4>)
    524e:	bc30      	pop	{r4, r5}
    5250:	4718      	bx	r3
    5252:	f3c4 0347 	ubfx	r3, r4, #1, #8
    5256:	4298      	cmp	r0, r3
    5258:	d1f8      	bne.n	524c <bod33_ensure+0x5c>
    525a:	f3c4 2341 	ubfx	r3, r4, #9, #2
    525e:	f001 0503 	and.w	r5, r1, #3
    5262:	42ab      	cmp	r3, r5
    5264:	d1f2      	bne.n	524c <bod33_ensure+0x5c>
    5266:	f414 44f0 	ands.w	r4, r4, #30720	; 0x7800
    526a:	bf18      	it	ne
    526c:	2401      	movne	r4, #1
    526e:	4294      	cmp	r4, r2
    5270:	d0e7      	beq.n	5242 <bod33_ensure+0x52>
    5272:	e7eb      	b.n	524c <bod33_ensure+0x5c>
    5274:	f3c4 0347 	ubfx	r3, r4, #1, #8
    5278:	4298      	cmp	r0, r3
    527a:	f001 0103 	and.w	r1, r1, #3
    527e:	d1c4      	bne.n	520a <bod33_ensure+0x1a>
    5280:	f3c4 2341 	ubfx	r3, r4, #9, #2
    5284:	428b      	cmp	r3, r1
    5286:	d1c0      	bne.n	520a <bod33_ensure+0x1a>
    5288:	f414 44f0 	ands.w	r4, r4, #30720	; 0x7800
    528c:	bf18      	it	ne
    528e:	2401      	movne	r4, #1
    5290:	4294      	cmp	r4, r2
    5292:	d0d6      	beq.n	5242 <bod33_ensure+0x52>
    5294:	e7b9      	b.n	520a <bod33_ensure+0x1a>
    5296:	bf00      	nop
    5298:	41002000 	.word	0x41002000
    529c:	00804000 	.word	0x00804000
    52a0:	40001800 	.word	0x40001800
    52a4:	0000517d 	.word	0x0000517d

000052a8 <RtcTime_GetSeconds>:
    52a8:	4b01      	ldr	r3, [pc, #4]	; (52b0 <RtcTime_GetSeconds+0x8>)
    52aa:	6818      	ldr	r0, [r3, #0]
    52ac:	4770      	bx	lr
    52ae:	bf00      	nop
    52b0:	200035dc 	.word	0x200035dc

000052b4 <RtcTime_Tick>:
    52b4:	4a02      	ldr	r2, [pc, #8]	; (52c0 <RtcTime_Tick+0xc>)
    52b6:	6813      	ldr	r3, [r2, #0]
    52b8:	3301      	adds	r3, #1
    52ba:	6013      	str	r3, [r2, #0]
    52bc:	4770      	bx	lr
    52be:	bf00      	nop
    52c0:	200035dc 	.word	0x200035dc

000052c4 <Eeprom_init>:
    52c4:	b510      	push	{r4, lr}
    52c6:	b086      	sub	sp, #24
    52c8:	2314      	movs	r3, #20
    52ca:	aa01      	add	r2, sp, #4
    52cc:	2100      	movs	r1, #0
    52ce:	480b      	ldr	r0, [pc, #44]	; (52fc <Eeprom_init+0x38>)
    52d0:	4c0b      	ldr	r4, [pc, #44]	; (5300 <Eeprom_init+0x3c>)
    52d2:	47a0      	blx	r4
    52d4:	f89d 3008 	ldrb.w	r3, [sp, #8]
    52d8:	2bb1      	cmp	r3, #177	; 0xb1
    52da:	d00b      	beq.n	52f4 <Eeprom_init+0x30>
    52dc:	aa06      	add	r2, sp, #24
    52de:	23b1      	movs	r3, #177	; 0xb1
    52e0:	f802 3d10 	strb.w	r3, [r2, #-16]!
    52e4:	2104      	movs	r1, #4
    52e6:	2301      	movs	r3, #1
    52e8:	4c06      	ldr	r4, [pc, #24]	; (5304 <Eeprom_init+0x40>)
    52ea:	4804      	ldr	r0, [pc, #16]	; (52fc <Eeprom_init+0x38>)
    52ec:	47a0      	blx	r4
    52ee:	2001      	movs	r0, #1
    52f0:	b006      	add	sp, #24
    52f2:	bd10      	pop	{r4, pc}
    52f4:	2000      	movs	r0, #0
    52f6:	b006      	add	sp, #24
    52f8:	bd10      	pop	{r4, pc}
    52fa:	bf00      	nop
    52fc:	00804000 	.word	0x00804000
    5300:	00008f11 	.word	0x00008f11
    5304:	00008f79 	.word	0x00008f79

00005308 <Eeprom_Read>:
    5308:	1883      	adds	r3, r0, r2
    530a:	f5b3 5f80 	cmp.w	r3, #4096	; 0x1000
    530e:	d80c      	bhi.n	532a <Eeprom_Read+0x22>
    5310:	b510      	push	{r4, lr}
    5312:	4c07      	ldr	r4, [pc, #28]	; (5330 <Eeprom_Read+0x28>)
    5314:	6ae3      	ldr	r3, [r4, #44]	; 0x2c
    5316:	075b      	lsls	r3, r3, #29
    5318:	d4fc      	bmi.n	5314 <Eeprom_Read+0xc>
    531a:	460b      	mov	r3, r1
    531c:	f100 4188 	add.w	r1, r0, #1140850688	; 0x44000000
    5320:	4618      	mov	r0, r3
    5322:	4b04      	ldr	r3, [pc, #16]	; (5334 <Eeprom_Read+0x2c>)
    5324:	4798      	blx	r3
    5326:	2001      	movs	r0, #1
    5328:	bd10      	pop	{r4, pc}
    532a:	2000      	movs	r0, #0
    532c:	4770      	bx	lr
    532e:	bf00      	nop
    5330:	41004000 	.word	0x41004000
    5334:	00010a69 	.word	0x00010a69

00005338 <Eeprom_Write>:
    5338:	1883      	adds	r3, r0, r2
    533a:	f5b3 5f80 	cmp.w	r3, #4096	; 0x1000
    533e:	d816      	bhi.n	536e <Eeprom_Write+0x36>
    5340:	b510      	push	{r4, lr}
    5342:	4c0c      	ldr	r4, [pc, #48]	; (5374 <Eeprom_Write+0x3c>)
    5344:	6ae3      	ldr	r3, [r4, #44]	; 0x2c
    5346:	075b      	lsls	r3, r3, #29
    5348:	d4fc      	bmi.n	5344 <Eeprom_Write+0xc>
    534a:	f100 4088 	add.w	r0, r0, #1140850688	; 0x44000000
    534e:	4b0a      	ldr	r3, [pc, #40]	; (5378 <Eeprom_Write+0x40>)
    5350:	4798      	blx	r3
    5352:	4a08      	ldr	r2, [pc, #32]	; (5374 <Eeprom_Write+0x3c>)
    5354:	6ad3      	ldr	r3, [r2, #44]	; 0x2c
    5356:	0759      	lsls	r1, r3, #29
    5358:	d4fc      	bmi.n	5354 <Eeprom_Write+0x1c>
    535a:	6ad3      	ldr	r3, [r2, #44]	; 0x2c
    535c:	079b      	lsls	r3, r3, #30
    535e:	d504      	bpl.n	536a <Eeprom_Write+0x32>
    5360:	f24a 5333 	movw	r3, #42291	; 0xa533
    5364:	8093      	strh	r3, [r2, #4]
    5366:	2001      	movs	r0, #1
    5368:	bd10      	pop	{r4, pc}
    536a:	2001      	movs	r0, #1
    536c:	bd10      	pop	{r4, pc}
    536e:	2000      	movs	r0, #0
    5370:	4770      	bx	lr
    5372:	bf00      	nop
    5374:	41004000 	.word	0x41004000
    5378:	00010a69 	.word	0x00010a69

0000537c <dcbm1_err_cb>:
    537c:	4a02      	ldr	r2, [pc, #8]	; (5388 <dcbm1_err_cb+0xc>)
    537e:	6813      	ldr	r3, [r2, #0]
    5380:	3301      	adds	r3, #1
    5382:	6013      	str	r3, [r2, #0]
    5384:	4770      	bx	lr
    5386:	bf00      	nop
    5388:	200035e0 	.word	0x200035e0

0000538c <dcbm1_rx_cb>:
    538c:	4b0c      	ldr	r3, [pc, #48]	; (53c0 <dcbm1_rx_cb+0x34>)
    538e:	791a      	ldrb	r2, [r3, #4]
    5390:	b91a      	cbnz	r2, 539a <dcbm1_rx_cb+0xe>
    5392:	689b      	ldr	r3, [r3, #8]
    5394:	b103      	cbz	r3, 5398 <dcbm1_rx_cb+0xc>
    5396:	4718      	bx	r3
    5398:	4770      	bx	lr
    539a:	4601      	mov	r1, r0
    539c:	b510      	push	{r4, lr}
    539e:	6918      	ldr	r0, [r3, #16]
    53a0:	7319      	strb	r1, [r3, #12]
    53a2:	2401      	movs	r4, #1
    53a4:	4a07      	ldr	r2, [pc, #28]	; (53c4 <dcbm1_rx_cb+0x38>)
    53a6:	735c      	strb	r4, [r3, #13]
    53a8:	2100      	movs	r1, #0
    53aa:	4790      	blx	r2
    53ac:	4b06      	ldr	r3, [pc, #24]	; (53c8 <dcbm1_rx_cb+0x3c>)
    53ae:	f04f 5280 	mov.w	r2, #268435456	; 0x10000000
    53b2:	601a      	str	r2, [r3, #0]
    53b4:	f3bf 8f4f 	dsb	sy
    53b8:	f3bf 8f6f 	isb	sy
    53bc:	bd10      	pop	{r4, pc}
    53be:	bf00      	nop
    53c0:	200035e0 	.word	0x200035e0
    53c4:	0000e4d5 	.word	0x0000e4d5
    53c8:	e000ed04 	.word	0xe000ed04

000053cc <dcbm1_tx_cb>:
    53cc:	b570      	push	{r4, r5, r6, lr}
    53ce:	4c1f      	ldr	r4, [pc, #124]	; (544c <dcbm1_tx_cb+0x80>)
    53d0:	7d23      	ldrb	r3, [r4, #20]
    53d2:	b082      	sub	sp, #8
    53d4:	b12b      	cbz	r3, 53e2 <dcbm1_tx_cb+0x16>
    53d6:	7d65      	ldrb	r5, [r4, #21]
    53d8:	b2ed      	uxtb	r5, r5
    53da:	2d01      	cmp	r5, #1
    53dc:	d003      	beq.n	53e6 <dcbm1_tx_cb+0x1a>
    53de:	2300      	movs	r3, #0
    53e0:	7523      	strb	r3, [r4, #20]
    53e2:	b002      	add	sp, #8
    53e4:	bd70      	pop	{r4, r5, r6, pc}
    53e6:	7923      	ldrb	r3, [r4, #4]
    53e8:	b933      	cbnz	r3, 53f8 <dcbm1_tx_cb+0x2c>
    53ea:	7da3      	ldrb	r3, [r4, #22]
    53ec:	b9cb      	cbnz	r3, 5422 <dcbm1_tx_cb+0x56>
    53ee:	4b18      	ldr	r3, [pc, #96]	; (5450 <dcbm1_tx_cb+0x84>)
    53f0:	f44f 3280 	mov.w	r2, #65536	; 0x10000
    53f4:	f8c3 2098 	str.w	r2, [r3, #152]	; 0x98
    53f8:	2100      	movs	r1, #0
    53fa:	69a0      	ldr	r0, [r4, #24]
    53fc:	4b15      	ldr	r3, [pc, #84]	; (5454 <dcbm1_tx_cb+0x88>)
    53fe:	4798      	blx	r3
    5400:	4b15      	ldr	r3, [pc, #84]	; (5458 <dcbm1_tx_cb+0x8c>)
    5402:	f04f 5280 	mov.w	r2, #268435456	; 0x10000000
    5406:	601a      	str	r2, [r3, #0]
    5408:	f3bf 8f4f 	dsb	sy
    540c:	f3bf 8f6f 	isb	sy
    5410:	7923      	ldrb	r3, [r4, #4]
    5412:	2b00      	cmp	r3, #0
    5414:	d1e3      	bne.n	53de <dcbm1_tx_cb+0x12>
    5416:	4b0e      	ldr	r3, [pc, #56]	; (5450 <dcbm1_tx_cb+0x84>)
    5418:	f44f 3280 	mov.w	r2, #65536	; 0x10000
    541c:	f8c3 2094 	str.w	r2, [r3, #148]	; 0x94
    5420:	e7dd      	b.n	53de <dcbm1_tx_cb+0x12>
    5422:	a801      	add	r0, sp, #4
    5424:	4b0d      	ldr	r3, [pc, #52]	; (545c <dcbm1_tx_cb+0x90>)
    5426:	4798      	blx	r3
    5428:	4b09      	ldr	r3, [pc, #36]	; (5450 <dcbm1_tx_cb+0x84>)
    542a:	490d      	ldr	r1, [pc, #52]	; (5460 <dcbm1_tx_cb+0x94>)
    542c:	f8d3 0080 	ldr.w	r0, [r3, #128]	; 0x80
    5430:	f8d3 20a0 	ldr.w	r2, [r3, #160]	; 0xa0
    5434:	f8d3 6090 	ldr.w	r6, [r3, #144]	; 0x90
    5438:	4056      	eors	r6, r2
    543a:	4006      	ands	r6, r0
    543c:	4056      	eors	r6, r2
    543e:	a801      	add	r0, sp, #4
    5440:	4788      	blx	r1
    5442:	03b3      	lsls	r3, r6, #14
    5444:	d5d3      	bpl.n	53ee <dcbm1_tx_cb+0x22>
    5446:	75e5      	strb	r5, [r4, #23]
    5448:	e7d6      	b.n	53f8 <dcbm1_tx_cb+0x2c>
    544a:	bf00      	nop
    544c:	200035e0 	.word	0x200035e0
    5450:	41008000 	.word	0x41008000
    5454:	0000e4d5 	.word	0x0000e4d5
    5458:	e000ed04 	.word	0xe000ed04
    545c:	000089e9 	.word	0x000089e9
    5460:	000089f9 	.word	0x000089f9

00005464 <dcbm1_set_rx_callback>:
    5464:	b410      	push	{r4}
    5466:	4c04      	ldr	r4, [pc, #16]	; (5478 <dcbm1_set_rx_callback+0x14>)
    5468:	4a04      	ldr	r2, [pc, #16]	; (547c <dcbm1_set_rx_callback+0x18>)
    546a:	4b05      	ldr	r3, [pc, #20]	; (5480 <dcbm1_set_rx_callback+0x1c>)
    546c:	4601      	mov	r1, r0
    546e:	60a1      	str	r1, [r4, #8]
    5470:	4804      	ldr	r0, [pc, #16]	; (5484 <dcbm1_set_rx_callback+0x20>)
    5472:	f85d 4b04 	ldr.w	r4, [sp], #4
    5476:	4718      	bx	r3
    5478:	200035e0 	.word	0x200035e0
    547c:	0000537d 	.word	0x0000537d
    5480:	00005bd5 	.word	0x00005bd5
    5484:	000053cd 	.word	0x000053cd

00005488 <dcbm1_enable_bus_busy>:
    5488:	4b01      	ldr	r3, [pc, #4]	; (5490 <dcbm1_enable_bus_busy+0x8>)
    548a:	7598      	strb	r0, [r3, #22]
    548c:	4770      	bx	lr
    548e:	bf00      	nop
    5490:	200035e0 	.word	0x200035e0

00005494 <dcbm1_send>:
    5494:	f5b1 6f80 	cmp.w	r1, #1024	; 0x400
    5498:	d301      	bcc.n	549e <dcbm1_send+0xa>
    549a:	2000      	movs	r0, #0
    549c:	4770      	bx	lr
    549e:	e92d 4ff0 	stmdb	sp!, {r4, r5, r6, r7, r8, r9, sl, fp, lr}
    54a2:	4c28      	ldr	r4, [pc, #160]	; (5544 <dcbm1_send+0xb0>)
    54a4:	4b28      	ldr	r3, [pc, #160]	; (5548 <dcbm1_send+0xb4>)
    54a6:	7d22      	ldrb	r2, [r4, #20]
    54a8:	4606      	mov	r6, r0
    54aa:	2201      	movs	r2, #1
    54ac:	b083      	sub	sp, #12
    54ae:	460d      	mov	r5, r1
    54b0:	69a0      	ldr	r0, [r4, #24]
    54b2:	7522      	strb	r2, [r4, #20]
    54b4:	2100      	movs	r1, #0
    54b6:	4798      	blx	r3
    54b8:	4630      	mov	r0, r6
    54ba:	4629      	mov	r1, r5
    54bc:	4b23      	ldr	r3, [pc, #140]	; (554c <dcbm1_send+0xb8>)
    54be:	4798      	blx	r3
    54c0:	7d66      	ldrb	r6, [r4, #21]
    54c2:	b2f6      	uxtb	r6, r6
    54c4:	2e01      	cmp	r6, #1
    54c6:	d006      	beq.n	54d6 <dcbm1_send+0x42>
    54c8:	2300      	movs	r3, #0
    54ca:	75e3      	strb	r3, [r4, #23]
    54cc:	4618      	mov	r0, r3
    54ce:	7523      	strb	r3, [r4, #20]
    54d0:	b003      	add	sp, #12
    54d2:	e8bd 8ff0 	ldmia.w	sp!, {r4, r5, r6, r7, r8, r9, sl, fp, pc}
    54d6:	2114      	movs	r1, #20
    54d8:	69a0      	ldr	r0, [r4, #24]
    54da:	4b1d      	ldr	r3, [pc, #116]	; (5550 <dcbm1_send+0xbc>)
    54dc:	4798      	blx	r3
    54de:	2800      	cmp	r0, #0
    54e0:	d0f2      	beq.n	54c8 <dcbm1_send+0x34>
    54e2:	7de3      	ldrb	r3, [r4, #23]
    54e4:	b343      	cbz	r3, 5538 <dcbm1_send+0xa4>
    54e6:	f8df 9070 	ldr.w	r9, [pc, #112]	; 5558 <dcbm1_send+0xc4>
    54ea:	f8df 8070 	ldr.w	r8, [pc, #112]	; 555c <dcbm1_send+0xc8>
    54ee:	4f19      	ldr	r7, [pc, #100]	; (5554 <dcbm1_send+0xc0>)
    54f0:	f8df a06c 	ldr.w	sl, [pc, #108]	; 5560 <dcbm1_send+0xcc>
    54f4:	a801      	add	r0, sp, #4
    54f6:	47c8      	blx	r9
    54f8:	f8d7 1080 	ldr.w	r1, [r7, #128]	; 0x80
    54fc:	f8d7 20a0 	ldr.w	r2, [r7, #160]	; 0xa0
    5500:	f8d7 3090 	ldr.w	r3, [r7, #144]	; 0x90
    5504:	ea82 0b03 	eor.w	fp, r2, r3
    5508:	ea0b 0b01 	and.w	fp, fp, r1
    550c:	ea8b 0b02 	eor.w	fp, fp, r2
    5510:	a801      	add	r0, sp, #4
    5512:	47c0      	blx	r8
    5514:	f41b 3f00 	tst.w	fp, #131072	; 0x20000
    5518:	4630      	mov	r0, r6
    551a:	f106 0601 	add.w	r6, r6, #1
    551e:	d002      	beq.n	5526 <dcbm1_send+0x92>
    5520:	47d0      	blx	sl
    5522:	2e05      	cmp	r6, #5
    5524:	d1e6      	bne.n	54f4 <dcbm1_send+0x60>
    5526:	f44f 3380 	mov.w	r3, #65536	; 0x10000
    552a:	f8c7 3098 	str.w	r3, [r7, #152]	; 0x98
    552e:	4b09      	ldr	r3, [pc, #36]	; (5554 <dcbm1_send+0xc0>)
    5530:	f44f 3280 	mov.w	r2, #65536	; 0x10000
    5534:	f8c3 2094 	str.w	r2, [r3, #148]	; 0x94
    5538:	2300      	movs	r3, #0
    553a:	7523      	strb	r3, [r4, #20]
    553c:	4628      	mov	r0, r5
    553e:	75e3      	strb	r3, [r4, #23]
    5540:	e7c6      	b.n	54d0 <dcbm1_send+0x3c>
    5542:	bf00      	nop
    5544:	200035e0 	.word	0x200035e0
    5548:	0000e139 	.word	0x0000e139
    554c:	00005de5 	.word	0x00005de5
    5550:	0000e731 	.word	0x0000e731
    5554:	41008000 	.word	0x41008000
    5558:	000089e9 	.word	0x000089e9
    555c:	000089f9 	.word	0x000089f9
    5560:	0000ef31 	.word	0x0000ef31

00005564 <dcbm1_writesync>:
    5564:	e92d 41f0 	stmdb	sp!, {r4, r5, r6, r7, r8, lr}
    5568:	b082      	sub	sp, #8
    556a:	4e10      	ldr	r6, [pc, #64]	; (55ac <dcbm1_writesync+0x48>)
    556c:	f8df 8048 	ldr.w	r8, [pc, #72]	; 55b8 <dcbm1_writesync+0x54>
    5570:	4b0f      	ldr	r3, [pc, #60]	; (55b0 <dcbm1_writesync+0x4c>)
    5572:	a802      	add	r0, sp, #8
    5574:	2501      	movs	r5, #1
    5576:	f44f 1780 	mov.w	r7, #1048576	; 0x100000
    557a:	22f5      	movs	r2, #245	; 0xf5
    557c:	6177      	str	r7, [r6, #20]
    557e:	4629      	mov	r1, r5
    5580:	f800 2d01 	strb.w	r2, [r0, #-1]!
    5584:	f888 5004 	strb.w	r5, [r8, #4]
    5588:	4798      	blx	r3
    558a:	2200      	movs	r2, #0
    558c:	4604      	mov	r4, r0
    558e:	4b09      	ldr	r3, [pc, #36]	; (55b4 <dcbm1_writesync+0x50>)
    5590:	f888 2004 	strb.w	r2, [r8, #4]
    5594:	4628      	mov	r0, r5
    5596:	4798      	blx	r3
    5598:	b2e0      	uxtb	r0, r4
    559a:	1b40      	subs	r0, r0, r5
    559c:	fab0 f080 	clz	r0, r0
    55a0:	0940      	lsrs	r0, r0, #5
    55a2:	61b7      	str	r7, [r6, #24]
    55a4:	b002      	add	sp, #8
    55a6:	e8bd 81f0 	ldmia.w	sp!, {r4, r5, r6, r7, r8, pc}
    55aa:	bf00      	nop
    55ac:	41008000 	.word	0x41008000
    55b0:	00005495 	.word	0x00005495
    55b4:	0000ef31 	.word	0x0000ef31
    55b8:	200035e0 	.word	0x200035e0

000055bc <dcbm1_writereg>:
    55bc:	b530      	push	{r4, r5, lr}
    55be:	b083      	sub	sp, #12
    55c0:	4b10      	ldr	r3, [pc, #64]	; (5604 <dcbm1_writereg+0x48>)
    55c2:	f88d 0005 	strb.w	r0, [sp, #5]
    55c6:	f44f 1280 	mov.w	r2, #1048576	; 0x100000
    55ca:	20f5      	movs	r0, #245	; 0xf5
    55cc:	f88d 1006 	strb.w	r1, [sp, #6]
    55d0:	f88d 0004 	strb.w	r0, [sp, #4]
    55d4:	615a      	str	r2, [r3, #20]
    55d6:	bf00      	nop
    55d8:	bf00      	nop
    55da:	4d0b      	ldr	r5, [pc, #44]	; (5608 <dcbm1_writereg+0x4c>)
    55dc:	4b0b      	ldr	r3, [pc, #44]	; (560c <dcbm1_writereg+0x50>)
    55de:	2201      	movs	r2, #1
    55e0:	2103      	movs	r1, #3
    55e2:	a801      	add	r0, sp, #4
    55e4:	712a      	strb	r2, [r5, #4]
    55e6:	4798      	blx	r3
    55e8:	4b09      	ldr	r3, [pc, #36]	; (5610 <dcbm1_writereg+0x54>)
    55ea:	4604      	mov	r4, r0
    55ec:	2002      	movs	r0, #2
    55ee:	4798      	blx	r3
    55f0:	b2e0      	uxtb	r0, r4
    55f2:	f1a0 0003 	sub.w	r0, r0, #3
    55f6:	fab0 f080 	clz	r0, r0
    55fa:	2300      	movs	r3, #0
    55fc:	0940      	lsrs	r0, r0, #5
    55fe:	712b      	strb	r3, [r5, #4]
    5600:	b003      	add	sp, #12
    5602:	bd30      	pop	{r4, r5, pc}
    5604:	41008000 	.word	0x41008000
    5608:	200035e0 	.word	0x200035e0
    560c:	00005495 	.word	0x00005495
    5610:	0000ef31 	.word	0x0000ef31

00005614 <dcbm1_writeonlyreg>:
    5614:	b510      	push	{r4, lr}
    5616:	b082      	sub	sp, #8
    5618:	4b19      	ldr	r3, [pc, #100]	; (5680 <dcbm1_writeonlyreg+0x6c>)
    561a:	f88d 0005 	strb.w	r0, [sp, #5]
    561e:	f44f 1280 	mov.w	r2, #1048576	; 0x100000
    5622:	20f5      	movs	r0, #245	; 0xf5
    5624:	f88d 1006 	strb.w	r1, [sp, #6]
    5628:	f88d 0004 	strb.w	r0, [sp, #4]
    562c:	615a      	str	r2, [r3, #20]
    562e:	bf00      	nop
    5630:	bf00      	nop
    5632:	4c14      	ldr	r4, [pc, #80]	; (5684 <dcbm1_writeonlyreg+0x70>)
    5634:	4b14      	ldr	r3, [pc, #80]	; (5688 <dcbm1_writeonlyreg+0x74>)
    5636:	2201      	movs	r2, #1
    5638:	2103      	movs	r1, #3
    563a:	a801      	add	r0, sp, #4
    563c:	7122      	strb	r2, [r4, #4]
    563e:	4798      	blx	r3
    5640:	2300      	movs	r3, #0
    5642:	b2c0      	uxtb	r0, r0
    5644:	7123      	strb	r3, [r4, #4]
    5646:	4911      	ldr	r1, [pc, #68]	; (568c <dcbm1_writeonlyreg+0x78>)
    5648:	f04f 5280 	mov.w	r2, #268435456	; 0x10000000
    564c:	e001      	b.n	5652 <dcbm1_writeonlyreg+0x3e>
    564e:	2b7d      	cmp	r3, #125	; 0x7d
    5650:	d00f      	beq.n	5672 <dcbm1_writeonlyreg+0x5e>
    5652:	bf00      	nop
    5654:	3301      	adds	r3, #1
    5656:	b29b      	uxth	r3, r3
    5658:	2bfa      	cmp	r3, #250	; 0xfa
    565a:	d1f8      	bne.n	564e <dcbm1_writeonlyreg+0x3a>
    565c:	f1a0 0003 	sub.w	r0, r0, #3
    5660:	4b07      	ldr	r3, [pc, #28]	; (5680 <dcbm1_writeonlyreg+0x6c>)
    5662:	fab0 f080 	clz	r0, r0
    5666:	f44f 1280 	mov.w	r2, #1048576	; 0x100000
    566a:	0940      	lsrs	r0, r0, #5
    566c:	619a      	str	r2, [r3, #24]
    566e:	b002      	add	sp, #8
    5670:	bd10      	pop	{r4, pc}
    5672:	600a      	str	r2, [r1, #0]
    5674:	f3bf 8f4f 	dsb	sy
    5678:	f3bf 8f6f 	isb	sy
    567c:	e7e9      	b.n	5652 <dcbm1_writeonlyreg+0x3e>
    567e:	bf00      	nop
    5680:	41008000 	.word	0x41008000
    5684:	200035e0 	.word	0x200035e0
    5688:	00005495 	.word	0x00005495
    568c:	e000ed04 	.word	0xe000ed04

00005690 <dcbm1_readreg>:
    5690:	b570      	push	{r4, r5, r6, lr}
    5692:	b082      	sub	sp, #8
    5694:	4c15      	ldr	r4, [pc, #84]	; (56ec <dcbm1_readreg+0x5c>)
    5696:	4a16      	ldr	r2, [pc, #88]	; (56f0 <dcbm1_readreg+0x60>)
    5698:	f88d 0005 	strb.w	r0, [sp, #5]
    569c:	2300      	movs	r3, #0
    569e:	26fd      	movs	r6, #253	; 0xfd
    56a0:	f44f 1080 	mov.w	r0, #1048576	; 0x100000
    56a4:	7363      	strb	r3, [r4, #13]
    56a6:	f88d 6004 	strb.w	r6, [sp, #4]
    56aa:	460d      	mov	r5, r1
    56ac:	6150      	str	r0, [r2, #20]
    56ae:	bf00      	nop
    56b0:	bf00      	nop
    56b2:	2201      	movs	r2, #1
    56b4:	4619      	mov	r1, r3
    56b6:	6920      	ldr	r0, [r4, #16]
    56b8:	4b0e      	ldr	r3, [pc, #56]	; (56f4 <dcbm1_readreg+0x64>)
    56ba:	7122      	strb	r2, [r4, #4]
    56bc:	4798      	blx	r3
    56be:	2102      	movs	r1, #2
    56c0:	4b0d      	ldr	r3, [pc, #52]	; (56f8 <dcbm1_readreg+0x68>)
    56c2:	a801      	add	r0, sp, #4
    56c4:	4798      	blx	r3
    56c6:	6920      	ldr	r0, [r4, #16]
    56c8:	4b0c      	ldr	r3, [pc, #48]	; (56fc <dcbm1_readreg+0x6c>)
    56ca:	210a      	movs	r1, #10
    56cc:	4798      	blx	r3
    56ce:	b128      	cbz	r0, 56dc <dcbm1_readreg+0x4c>
    56d0:	7b63      	ldrb	r3, [r4, #13]
    56d2:	f003 00ff 	and.w	r0, r3, #255	; 0xff
    56d6:	b10b      	cbz	r3, 56dc <dcbm1_readreg+0x4c>
    56d8:	7b23      	ldrb	r3, [r4, #12]
    56da:	702b      	strb	r3, [r5, #0]
    56dc:	4b04      	ldr	r3, [pc, #16]	; (56f0 <dcbm1_readreg+0x60>)
    56de:	2100      	movs	r1, #0
    56e0:	f44f 1280 	mov.w	r2, #1048576	; 0x100000
    56e4:	7121      	strb	r1, [r4, #4]
    56e6:	619a      	str	r2, [r3, #24]
    56e8:	b002      	add	sp, #8
    56ea:	bd70      	pop	{r4, r5, r6, pc}
    56ec:	200035e0 	.word	0x200035e0
    56f0:	41008000 	.word	0x41008000
    56f4:	0000e139 	.word	0x0000e139
    56f8:	00005495 	.word	0x00005495
    56fc:	0000e731 	.word	0x0000e731

00005700 <dcbm1_writeverifyreg>:
    5700:	b530      	push	{r4, r5, lr}
    5702:	4b11      	ldr	r3, [pc, #68]	; (5748 <dcbm1_writeverifyreg+0x48>)
    5704:	b083      	sub	sp, #12
    5706:	4604      	mov	r4, r0
    5708:	460d      	mov	r5, r1
    570a:	4798      	blx	r3
    570c:	b1c0      	cbz	r0, 5740 <dcbm1_writeverifyreg+0x40>
    570e:	2c02      	cmp	r4, #2
    5710:	d012      	beq.n	5738 <dcbm1_writeverifyreg+0x38>
    5712:	4620      	mov	r0, r4
    5714:	f10d 0107 	add.w	r1, sp, #7
    5718:	4b0c      	ldr	r3, [pc, #48]	; (574c <dcbm1_writeverifyreg+0x4c>)
    571a:	4798      	blx	r3
    571c:	b918      	cbnz	r0, 5726 <dcbm1_writeverifyreg+0x26>
    571e:	f06f 0001 	mvn.w	r0, #1
    5722:	b003      	add	sp, #12
    5724:	bd30      	pop	{r4, r5, pc}
    5726:	f89d 3007 	ldrb.w	r3, [sp, #7]
    572a:	42ab      	cmp	r3, r5
    572c:	bf0c      	ite	eq
    572e:	2000      	moveq	r0, #0
    5730:	f06f 0002 	mvnne.w	r0, #2
    5734:	b003      	add	sp, #12
    5736:	bd30      	pop	{r4, r5, pc}
    5738:	4620      	mov	r0, r4
    573a:	4b05      	ldr	r3, [pc, #20]	; (5750 <dcbm1_writeverifyreg+0x50>)
    573c:	4798      	blx	r3
    573e:	e7e8      	b.n	5712 <dcbm1_writeverifyreg+0x12>
    5740:	f04f 30ff 	mov.w	r0, #4294967295
    5744:	e7ed      	b.n	5722 <dcbm1_writeverifyreg+0x22>
    5746:	bf00      	nop
    5748:	000055bd 	.word	0x000055bd
    574c:	00005691 	.word	0x00005691
    5750:	0000ef31 	.word	0x0000ef31

00005754 <dcbm1_checkfrequency>:
    5754:	b510      	push	{r4, lr}
    5756:	b082      	sub	sp, #8
    5758:	4604      	mov	r4, r0
    575a:	f10d 0107 	add.w	r1, sp, #7
    575e:	2002      	movs	r0, #2
    5760:	4b05      	ldr	r3, [pc, #20]	; (5778 <dcbm1_checkfrequency+0x24>)
    5762:	4798      	blx	r3
    5764:	b128      	cbz	r0, 5772 <dcbm1_checkfrequency+0x1e>
    5766:	f89d 0007 	ldrb.w	r0, [sp, #7]
    576a:	1b00      	subs	r0, r0, r4
    576c:	fab0 f080 	clz	r0, r0
    5770:	0940      	lsrs	r0, r0, #5
    5772:	b002      	add	sp, #8
    5774:	bd10      	pop	{r4, pc}
    5776:	bf00      	nop
    5778:	00005691 	.word	0x00005691

0000577c <dcbm1_getfrequency_h>:
    577c:	4b02      	ldr	r3, [pc, #8]	; (5788 <dcbm1_getfrequency_h+0xc>)
    577e:	fba3 3000 	umull	r3, r0, r3, r0
    5782:	08c0      	lsrs	r0, r0, #3
    5784:	3005      	adds	r0, #5
    5786:	4770      	bx	lr
    5788:	cccccccd 	.word	0xcccccccd

0000578c <dcbm1_getfrequency_l>:
    578c:	4b04      	ldr	r3, [pc, #16]	; (57a0 <dcbm1_getfrequency_l+0x14>)
    578e:	fba3 2300 	umull	r2, r3, r3, r0
    5792:	08db      	lsrs	r3, r3, #3
    5794:	eb03 0383 	add.w	r3, r3, r3, lsl #2
    5798:	eba0 0043 	sub.w	r0, r0, r3, lsl #1
    579c:	b2c0      	uxtb	r0, r0
    579e:	4770      	bx	lr
    57a0:	cccccccd 	.word	0xcccccccd

000057a4 <dcbm1_checkrate>:
    57a4:	b510      	push	{r4, lr}
    57a6:	b082      	sub	sp, #8
    57a8:	4604      	mov	r4, r0
    57aa:	f10d 0107 	add.w	r1, sp, #7
    57ae:	2000      	movs	r0, #0
    57b0:	4b05      	ldr	r3, [pc, #20]	; (57c8 <dcbm1_checkrate+0x24>)
    57b2:	4798      	blx	r3
    57b4:	b128      	cbz	r0, 57c2 <dcbm1_checkrate+0x1e>
    57b6:	f89d 0007 	ldrb.w	r0, [sp, #7]
    57ba:	1b00      	subs	r0, r0, r4
    57bc:	fab0 f080 	clz	r0, r0
    57c0:	0940      	lsrs	r0, r0, #5
    57c2:	b002      	add	sp, #8
    57c4:	bd10      	pop	{r4, pc}
    57c6:	bf00      	nop
    57c8:	00005691 	.word	0x00005691

000057cc <dcbm1_getrate_kHz>:
    57cc:	f000 0203 	and.w	r2, r0, #3
    57d0:	4b04      	ldr	r3, [pc, #16]	; (57e4 <dcbm1_getrate_kHz+0x18>)
    57d2:	4805      	ldr	r0, [pc, #20]	; (57e8 <dcbm1_getrate_kHz+0x1c>)
    57d4:	f853 3022 	ldr.w	r3, [r3, r2, lsl #2]
    57d8:	fb80 2003 	smull	r2, r0, r0, r3
    57dc:	17db      	asrs	r3, r3, #31
    57de:	ebc3 10a0 	rsb	r0, r3, r0, asr #6
    57e2:	4770      	bx	lr
    57e4:	000113a0 	.word	0x000113a0
    57e8:	10624dd3 	.word	0x10624dd3

000057ec <dcbm1_checkerror>:
    57ec:	4770      	bx	lr
    57ee:	bf00      	nop

000057f0 <dcbm1_setcom>:
    57f0:	e92d 41f0 	stmdb	sp!, {r4, r5, r6, r7, r8, lr}
    57f4:	4606      	mov	r6, r0
    57f6:	460d      	mov	r5, r1
    57f8:	2003      	movs	r0, #3
    57fa:	211c      	movs	r1, #28
    57fc:	4c0c      	ldr	r4, [pc, #48]	; (5830 <dcbm1_setcom+0x40>)
    57fe:	4617      	mov	r7, r2
    5800:	47a0      	blx	r4
    5802:	2800      	cmp	r0, #0
    5804:	db12      	blt.n	582c <dcbm1_setcom+0x3c>
    5806:	f005 0103 	and.w	r1, r5, #3
    580a:	f041 0160 	orr.w	r1, r1, #96	; 0x60
    580e:	2000      	movs	r0, #0
    5810:	47a0      	blx	r4
    5812:	2800      	cmp	r0, #0
    5814:	db0a      	blt.n	582c <dcbm1_setcom+0x3c>
    5816:	4639      	mov	r1, r7
    5818:	2001      	movs	r0, #1
    581a:	47a0      	blx	r4
    581c:	2800      	cmp	r0, #0
    581e:	db05      	blt.n	582c <dcbm1_setcom+0x3c>
    5820:	4631      	mov	r1, r6
    5822:	4623      	mov	r3, r4
    5824:	2002      	movs	r0, #2
    5826:	e8bd 41f0 	ldmia.w	sp!, {r4, r5, r6, r7, r8, lr}
    582a:	4718      	bx	r3
    582c:	e8bd 81f0 	ldmia.w	sp!, {r4, r5, r6, r7, r8, pc}
    5830:	00005701 	.word	0x00005701

00005834 <dcbm1_init>:
    5834:	e92d 4ff0 	stmdb	sp!, {r4, r5, r6, r7, r8, r9, sl, fp, lr}
    5838:	4e44      	ldr	r6, [pc, #272]	; (594c <dcbm1_init+0x118>)
    583a:	4d45      	ldr	r5, [pc, #276]	; (5950 <dcbm1_init+0x11c>)
    583c:	f8df 9140 	ldr.w	r9, [pc, #320]	; 5980 <dcbm1_init+0x14c>
    5840:	4c44      	ldr	r4, [pc, #272]	; (5954 <dcbm1_init+0x120>)
    5842:	f8df 8140 	ldr.w	r8, [pc, #320]	; 5984 <dcbm1_init+0x150>
    5846:	b085      	sub	sp, #20
    5848:	2300      	movs	r3, #0
    584a:	7573      	strb	r3, [r6, #21]
    584c:	9003      	str	r0, [sp, #12]
    584e:	9101      	str	r1, [sp, #4]
    5850:	9202      	str	r2, [sp, #8]
    5852:	7533      	strb	r3, [r6, #20]
    5854:	4a40      	ldr	r2, [pc, #256]	; (5958 <dcbm1_init+0x124>)
    5856:	4941      	ldr	r1, [pc, #260]	; (595c <dcbm1_init+0x128>)
    5858:	4841      	ldr	r0, [pc, #260]	; (5960 <dcbm1_init+0x12c>)
    585a:	4b42      	ldr	r3, [pc, #264]	; (5964 <dcbm1_init+0x130>)
    585c:	4798      	blx	r3
    585e:	f04f 0a03 	mov.w	sl, #3
    5862:	f44f 1280 	mov.w	r2, #1048576	; 0x100000
    5866:	f44f 3b80 	mov.w	fp, #65536	; 0x10000
    586a:	4b3f      	ldr	r3, [pc, #252]	; (5968 <dcbm1_init+0x134>)
    586c:	61a2      	str	r2, [r4, #24]
    586e:	f8c4 b094 	str.w	fp, [r4, #148]	; 0x94
    5872:	f8c4 b084 	str.w	fp, [r4, #132]	; 0x84
    5876:	f8c4 80a8 	str.w	r8, [r4, #168]	; 0xa8
    587a:	f8c4 30a8 	str.w	r3, [r4, #168]	; 0xa8
    587e:	f44f 3300 	mov.w	r3, #131072	; 0x20000
    5882:	f8c4 3084 	str.w	r3, [r4, #132]	; 0x84
    5886:	4b39      	ldr	r3, [pc, #228]	; (596c <dcbm1_init+0x138>)
    5888:	f8c4 80a8 	str.w	r8, [r4, #168]	; 0xa8
    588c:	2002      	movs	r0, #2
    588e:	f8c4 30a8 	str.w	r3, [r4, #168]	; 0xa8
    5892:	f04f 6700 	mov.w	r7, #134217728	; 0x8000000
    5896:	47a8      	blx	r5
    5898:	2004      	movs	r0, #4
    589a:	6167      	str	r7, [r4, #20]
    589c:	47a8      	blx	r5
    589e:	2002      	movs	r0, #2
    58a0:	61a7      	str	r7, [r4, #24]
    58a2:	47a8      	blx	r5
    58a4:	4b32      	ldr	r3, [pc, #200]	; (5970 <dcbm1_init+0x13c>)
    58a6:	4798      	blx	r3
    58a8:	2001      	movs	r0, #1
    58aa:	47a8      	blx	r5
    58ac:	2201      	movs	r2, #1
    58ae:	7572      	strb	r2, [r6, #21]
    58b0:	7d72      	ldrb	r2, [r6, #21]
    58b2:	bb42      	cbnz	r2, 5906 <dcbm1_init+0xd2>
    58b4:	9b01      	ldr	r3, [sp, #4]
    58b6:	f003 0103 	and.w	r1, r3, #3
    58ba:	f041 0160 	orr.w	r1, r1, #96	; 0x60
    58be:	2000      	movs	r0, #0
    58c0:	47c8      	blx	r9
    58c2:	1e07      	subs	r7, r0, #0
    58c4:	9902      	ldr	r1, [sp, #8]
    58c6:	f04f 0001 	mov.w	r0, #1
    58ca:	db33      	blt.n	5934 <dcbm1_init+0x100>
    58cc:	47c8      	blx	r9
    58ce:	1e07      	subs	r7, r0, #0
    58d0:	9903      	ldr	r1, [sp, #12]
    58d2:	f04f 0002 	mov.w	r0, #2
    58d6:	db2d      	blt.n	5934 <dcbm1_init+0x100>
    58d8:	47c8      	blx	r9
    58da:	1e07      	subs	r7, r0, #0
    58dc:	db2a      	blt.n	5934 <dcbm1_init+0x100>
    58de:	4b25      	ldr	r3, [pc, #148]	; (5974 <dcbm1_init+0x140>)
    58e0:	2002      	movs	r0, #2
    58e2:	4798      	blx	r3
    58e4:	4b1b      	ldr	r3, [pc, #108]	; (5954 <dcbm1_init+0x120>)
    58e6:	f44f 1280 	mov.w	r2, #1048576	; 0x100000
    58ea:	619a      	str	r2, [r3, #24]
    58ec:	68b1      	ldr	r1, [r6, #8]
    58ee:	4b1b      	ldr	r3, [pc, #108]	; (595c <dcbm1_init+0x128>)
    58f0:	4299      	cmp	r1, r3
    58f2:	d004      	beq.n	58fe <dcbm1_init+0xca>
    58f4:	b119      	cbz	r1, 58fe <dcbm1_init+0xca>
    58f6:	4a18      	ldr	r2, [pc, #96]	; (5958 <dcbm1_init+0x124>)
    58f8:	4819      	ldr	r0, [pc, #100]	; (5960 <dcbm1_init+0x12c>)
    58fa:	4b1a      	ldr	r3, [pc, #104]	; (5964 <dcbm1_init+0x130>)
    58fc:	4798      	blx	r3
    58fe:	4638      	mov	r0, r7
    5900:	b005      	add	sp, #20
    5902:	e8bd 8ff0 	ldmia.w	sp!, {r4, r5, r6, r7, r8, r9, sl, fp, pc}
    5906:	211c      	movs	r1, #28
    5908:	2003      	movs	r0, #3
    590a:	47c8      	blx	r9
    590c:	f44f 3300 	mov.w	r3, #131072	; 0x20000
    5910:	f04f 4180 	mov.w	r1, #1073741824	; 0x40000000
    5914:	4a18      	ldr	r2, [pc, #96]	; (5978 <dcbm1_init+0x144>)
    5916:	f8c4 b088 	str.w	fp, [r4, #136]	; 0x88
    591a:	1e07      	subs	r7, r0, #0
    591c:	f8c4 10a8 	str.w	r1, [r4, #168]	; 0xa8
    5920:	f8c4 20a8 	str.w	r2, [r4, #168]	; 0xa8
    5924:	f8c4 3084 	str.w	r3, [r4, #132]	; 0x84
    5928:	4b10      	ldr	r3, [pc, #64]	; (596c <dcbm1_init+0x138>)
    592a:	f8c4 80a8 	str.w	r8, [r4, #168]	; 0xa8
    592e:	f8c4 30a8 	str.w	r3, [r4, #168]	; 0xa8
    5932:	dabf      	bge.n	58b4 <dcbm1_init+0x80>
    5934:	2002      	movs	r0, #2
    5936:	4b11      	ldr	r3, [pc, #68]	; (597c <dcbm1_init+0x148>)
    5938:	4798      	blx	r3
    593a:	f44f 1380 	mov.w	r3, #1048576	; 0x100000
    593e:	61a3      	str	r3, [r4, #24]
    5940:	2002      	movs	r0, #2
    5942:	47a8      	blx	r5
    5944:	f1ba 0a01 	subs.w	sl, sl, #1
    5948:	d18b      	bne.n	5862 <dcbm1_init+0x2e>
    594a:	e7cf      	b.n	58ec <dcbm1_init+0xb8>
    594c:	200035e0 	.word	0x200035e0
    5950:	0000ef31 	.word	0x0000ef31
    5954:	41008000 	.word	0x41008000
    5958:	0000537d 	.word	0x0000537d
    595c:	0000538d 	.word	0x0000538d
    5960:	000053cd 	.word	0x000053cd
    5964:	00005bd5 	.word	0x00005bd5
    5968:	c0020001 	.word	0xc0020001
    596c:	c0020002 	.word	0xc0020002
    5970:	00005565 	.word	0x00005565
    5974:	0000d0b5 	.word	0x0000d0b5
    5978:	c0000001 	.word	0xc0000001
    597c:	0000d0a5 	.word	0x0000d0a5
    5980:	00005701 	.word	0x00005701
    5984:	40020000 	.word	0x40020000

00005988 <dcbm1_nap>:
    5988:	b510      	push	{r4, lr}
    598a:	4b15      	ldr	r3, [pc, #84]	; (59e0 <dcbm1_nap+0x58>)
    598c:	7d1b      	ldrb	r3, [r3, #20]
    598e:	4604      	mov	r4, r0
    5990:	b1d3      	cbz	r3, 59c8 <dcbm1_nap+0x40>
    5992:	4620      	mov	r0, r4
    5994:	4b13      	ldr	r3, [pc, #76]	; (59e4 <dcbm1_nap+0x5c>)
    5996:	4c14      	ldr	r4, [pc, #80]	; (59e8 <dcbm1_nap+0x60>)
    5998:	4798      	blx	r3
    599a:	4b14      	ldr	r3, [pc, #80]	; (59ec <dcbm1_nap+0x64>)
    599c:	f44f 1280 	mov.w	r2, #1048576	; 0x100000
    59a0:	615a      	str	r2, [r3, #20]
    59a2:	f04f 5080 	mov.w	r0, #268435456	; 0x10000000
    59a6:	2300      	movs	r3, #0
    59a8:	f240 1177 	movw	r1, #375	; 0x177
    59ac:	bf00      	nop
    59ae:	2b7d      	cmp	r3, #125	; 0x7d
    59b0:	b29a      	uxth	r2, r3
    59b2:	d00e      	beq.n	59d2 <dcbm1_nap+0x4a>
    59b4:	2afa      	cmp	r2, #250	; 0xfa
    59b6:	d00c      	beq.n	59d2 <dcbm1_nap+0x4a>
    59b8:	3301      	adds	r3, #1
    59ba:	428b      	cmp	r3, r1
    59bc:	d1f6      	bne.n	59ac <dcbm1_nap+0x24>
    59be:	4b0b      	ldr	r3, [pc, #44]	; (59ec <dcbm1_nap+0x64>)
    59c0:	f44f 1280 	mov.w	r2, #1048576	; 0x100000
    59c4:	619a      	str	r2, [r3, #24]
    59c6:	bd10      	pop	{r4, pc}
    59c8:	219f      	movs	r1, #159	; 0x9f
    59ca:	4b09      	ldr	r3, [pc, #36]	; (59f0 <dcbm1_nap+0x68>)
    59cc:	2003      	movs	r0, #3
    59ce:	4798      	blx	r3
    59d0:	e7df      	b.n	5992 <dcbm1_nap+0xa>
    59d2:	6020      	str	r0, [r4, #0]
    59d4:	f3bf 8f4f 	dsb	sy
    59d8:	f3bf 8f6f 	isb	sy
    59dc:	e7ec      	b.n	59b8 <dcbm1_nap+0x30>
    59de:	bf00      	nop
    59e0:	200035e0 	.word	0x200035e0
    59e4:	0000ef31 	.word	0x0000ef31
    59e8:	e000ed04 	.word	0xe000ed04
    59ec:	41008000 	.word	0x41008000
    59f0:	00005615 	.word	0x00005615

000059f4 <dcbm1_driver_init>:
    59f4:	b538      	push	{r3, r4, r5, lr}
    59f6:	2203      	movs	r2, #3
    59f8:	2100      	movs	r1, #0
    59fa:	4d05      	ldr	r5, [pc, #20]	; (5a10 <dcbm1_driver_init+0x1c>)
    59fc:	4c05      	ldr	r4, [pc, #20]	; (5a14 <dcbm1_driver_init+0x20>)
    59fe:	2001      	movs	r0, #1
    5a00:	47a8      	blx	r5
    5a02:	2203      	movs	r2, #3
    5a04:	6120      	str	r0, [r4, #16]
    5a06:	2100      	movs	r1, #0
    5a08:	2001      	movs	r0, #1
    5a0a:	47a8      	blx	r5
    5a0c:	61a0      	str	r0, [r4, #24]
    5a0e:	bd38      	pop	{r3, r4, r5, pc}
    5a10:	0000e1cd 	.word	0x0000e1cd
    5a14:	200035e0 	.word	0x200035e0

00005a18 <Production_Write>:
    5a18:	b5f0      	push	{r4, r5, r6, r7, lr}
    5a1a:	b089      	sub	sp, #36	; 0x24
    5a1c:	ac08      	add	r4, sp, #32
    5a1e:	4617      	mov	r7, r2
    5a20:	f844 0d20 	str.w	r0, [r4, #-32]!
    5a24:	4d09      	ldr	r5, [pc, #36]	; (5a4c <Production_Write+0x34>)
    5a26:	a801      	add	r0, sp, #4
    5a28:	220b      	movs	r2, #11
    5a2a:	461e      	mov	r6, r3
    5a2c:	47a8      	blx	r5
    5a2e:	990e      	ldr	r1, [sp, #56]	; 0x38
    5a30:	f88d 700f 	strb.w	r7, [sp, #15]
    5a34:	220c      	movs	r2, #12
    5a36:	a805      	add	r0, sp, #20
    5a38:	9604      	str	r6, [sp, #16]
    5a3a:	47a8      	blx	r5
    5a3c:	2320      	movs	r3, #32
    5a3e:	4622      	mov	r2, r4
    5a40:	4619      	mov	r1, r3
    5a42:	4c03      	ldr	r4, [pc, #12]	; (5a50 <Production_Write+0x38>)
    5a44:	4803      	ldr	r0, [pc, #12]	; (5a54 <Production_Write+0x3c>)
    5a46:	47a0      	blx	r4
    5a48:	b009      	add	sp, #36	; 0x24
    5a4a:	bdf0      	pop	{r4, r5, r6, r7, pc}
    5a4c:	00010ae9 	.word	0x00010ae9
    5a50:	00008f79 	.word	0x00008f79
    5a54:	00804000 	.word	0x00804000

00005a58 <Production_WriteStruct>:
    5a58:	b410      	push	{r4}
    5a5a:	4c04      	ldr	r4, [pc, #16]	; (5a6c <Production_WriteStruct+0x14>)
    5a5c:	2320      	movs	r3, #32
    5a5e:	4602      	mov	r2, r0
    5a60:	46a4      	mov	ip, r4
    5a62:	4619      	mov	r1, r3
    5a64:	4802      	ldr	r0, [pc, #8]	; (5a70 <Production_WriteStruct+0x18>)
    5a66:	f85d 4b04 	ldr.w	r4, [sp], #4
    5a6a:	4760      	bx	ip
    5a6c:	00008f79 	.word	0x00008f79
    5a70:	00804000 	.word	0x00804000

00005a74 <I2Cx_Init>:
    5a74:	b570      	push	{r4, r5, r6, lr}
    5a76:	4c2f      	ldr	r4, [pc, #188]	; (5b34 <I2Cx_Init+0xc0>)
    5a78:	7863      	ldrb	r3, [r4, #1]
    5a7a:	2201      	movs	r2, #1
    5a7c:	7022      	strb	r2, [r4, #0]
    5a7e:	b12b      	cbz	r3, 5a8c <I2Cx_Init+0x18>
    5a80:	4b2d      	ldr	r3, [pc, #180]	; (5b38 <I2Cx_Init+0xc4>)
    5a82:	482e      	ldr	r0, [pc, #184]	; (5b3c <I2Cx_Init+0xc8>)
    5a84:	4798      	blx	r3
    5a86:	482d      	ldr	r0, [pc, #180]	; (5b3c <I2Cx_Init+0xc8>)
    5a88:	4b2d      	ldr	r3, [pc, #180]	; (5b40 <I2Cx_Init+0xcc>)
    5a8a:	4798      	blx	r3
    5a8c:	4b2d      	ldr	r3, [pc, #180]	; (5b44 <I2Cx_Init+0xd0>)
    5a8e:	4a2e      	ldr	r2, [pc, #184]	; (5b48 <I2Cx_Init+0xd4>)
    5a90:	492e      	ldr	r1, [pc, #184]	; (5b4c <I2Cx_Init+0xd8>)
    5a92:	4d2f      	ldr	r5, [pc, #188]	; (5b50 <I2Cx_Init+0xdc>)
    5a94:	4829      	ldr	r0, [pc, #164]	; (5b3c <I2Cx_Init+0xc8>)
    5a96:	2640      	movs	r6, #64	; 0x40
    5a98:	f8c3 60e0 	str.w	r6, [r3, #224]	; 0xe0
    5a9c:	6993      	ldr	r3, [r2, #24]
    5a9e:	f443 6380 	orr.w	r3, r3, #1024	; 0x400
    5aa2:	6193      	str	r3, [r2, #24]
    5aa4:	47a8      	blx	r5
    5aa6:	4b2b      	ldr	r3, [pc, #172]	; (5b54 <I2Cx_Init+0xe0>)
    5aa8:	4824      	ldr	r0, [pc, #144]	; (5b3c <I2Cx_Init+0xc8>)
    5aaa:	4d2b      	ldr	r5, [pc, #172]	; (5b58 <I2Cx_Init+0xe4>)
    5aac:	4798      	blx	r3
    5aae:	4b2b      	ldr	r3, [pc, #172]	; (5b5c <I2Cx_Init+0xe8>)
    5ab0:	482b      	ldr	r0, [pc, #172]	; (5b60 <I2Cx_Init+0xec>)
    5ab2:	492c      	ldr	r1, [pc, #176]	; (5b64 <I2Cx_Init+0xf0>)
    5ab4:	f44f 0280 	mov.w	r2, #4194304	; 0x400000
    5ab8:	605a      	str	r2, [r3, #4]
    5aba:	6298      	str	r0, [r3, #40]	; 0x28
    5abc:	6299      	str	r1, [r3, #40]	; 0x28
    5abe:	605a      	str	r2, [r3, #4]
    5ac0:	f893 1056 	ldrb.w	r1, [r3, #86]	; 0x56
    5ac4:	f041 0104 	orr.w	r1, r1, #4
    5ac8:	f883 1056 	strb.w	r1, [r3, #86]	; 0x56
    5acc:	619a      	str	r2, [r3, #24]
    5ace:	f893 2056 	ldrb.w	r2, [r3, #86]	; 0x56
    5ad2:	f002 02fe 	and.w	r2, r2, #254	; 0xfe
    5ad6:	f042 0201 	orr.w	r2, r2, #1
    5ada:	f883 2056 	strb.w	r2, [r3, #86]	; 0x56
    5ade:	f893 203b 	ldrb.w	r2, [r3, #59]	; 0x3b
    5ae2:	f002 02f0 	and.w	r2, r2, #240	; 0xf0
    5ae6:	f44f 0100 	mov.w	r1, #8388608	; 0x800000
    5aea:	f042 0202 	orr.w	r2, r2, #2
    5aee:	f883 203b 	strb.w	r2, [r3, #59]	; 0x3b
    5af2:	6059      	str	r1, [r3, #4]
    5af4:	6298      	str	r0, [r3, #40]	; 0x28
    5af6:	629d      	str	r5, [r3, #40]	; 0x28
    5af8:	6059      	str	r1, [r3, #4]
    5afa:	f893 2057 	ldrb.w	r2, [r3, #87]	; 0x57
    5afe:	f042 0204 	orr.w	r2, r2, #4
    5b02:	f883 2057 	strb.w	r2, [r3, #87]	; 0x57
    5b06:	6199      	str	r1, [r3, #24]
    5b08:	f893 2057 	ldrb.w	r2, [r3, #87]	; 0x57
    5b0c:	f002 02fe 	and.w	r2, r2, #254	; 0xfe
    5b10:	f042 0201 	orr.w	r2, r2, #1
    5b14:	f883 2057 	strb.w	r2, [r3, #87]	; 0x57
    5b18:	f893 203b 	ldrb.w	r2, [r3, #59]	; 0x3b
    5b1c:	f002 020f 	and.w	r2, r2, #15
    5b20:	f042 0220 	orr.w	r2, r2, #32
    5b24:	f883 203b 	strb.w	r2, [r3, #59]	; 0x3b
    5b28:	2100      	movs	r1, #0
    5b2a:	2001      	movs	r0, #1
    5b2c:	7060      	strb	r0, [r4, #1]
    5b2e:	7021      	strb	r1, [r4, #0]
    5b30:	8061      	strh	r1, [r4, #2]
    5b32:	bd70      	pop	{r4, r5, r6, pc}
    5b34:	20003602 	.word	0x20003602
    5b38:	00008b95 	.word	0x00008b95
    5b3c:	2000e904 	.word	0x2000e904
    5b40:	00008b79 	.word	0x00008b79
    5b44:	40001c00 	.word	0x40001c00
    5b48:	40000800 	.word	0x40000800
    5b4c:	41014000 	.word	0x41014000
    5b50:	00008b59 	.word	0x00008b59
    5b54:	00008b8d 	.word	0x00008b8d
    5b58:	c0020080 	.word	0xc0020080
    5b5c:	41008000 	.word	0x41008000
    5b60:	40020000 	.word	0x40020000
    5b64:	c0020040 	.word	0xc0020040

00005b68 <I2Cx_Write_Sequence>:
    5b68:	b5f0      	push	{r4, r5, r6, r7, lr}
    5b6a:	4c0b      	ldr	r4, [pc, #44]	; (5b98 <I2Cx_Write_Sequence+0x30>)
    5b6c:	4b0b      	ldr	r3, [pc, #44]	; (5b9c <I2Cx_Write_Sequence+0x34>)
    5b6e:	b083      	sub	sp, #12
    5b70:	4607      	mov	r7, r0
    5b72:	460d      	mov	r5, r1
    5b74:	4620      	mov	r0, r4
    5b76:	a901      	add	r1, sp, #4
    5b78:	4616      	mov	r6, r2
    5b7a:	4798      	blx	r3
    5b7c:	4639      	mov	r1, r7
    5b7e:	4620      	mov	r0, r4
    5b80:	f44f 6200 	mov.w	r2, #2048	; 0x800
    5b84:	4b06      	ldr	r3, [pc, #24]	; (5ba0 <I2Cx_Write_Sequence+0x38>)
    5b86:	4798      	blx	r3
    5b88:	b2f2      	uxtb	r2, r6
    5b8a:	4629      	mov	r1, r5
    5b8c:	4620      	mov	r0, r4
    5b8e:	4b05      	ldr	r3, [pc, #20]	; (5ba4 <I2Cx_Write_Sequence+0x3c>)
    5b90:	4798      	blx	r3
    5b92:	b003      	add	sp, #12
    5b94:	bdf0      	pop	{r4, r5, r6, r7, pc}
    5b96:	bf00      	nop
    5b98:	2000e904 	.word	0x2000e904
    5b9c:	00008bd1 	.word	0x00008bd1
    5ba0:	00008b9d 	.word	0x00008b9d
    5ba4:	00008bad 	.word	0x00008bad

00005ba8 <I2Cx_Check>:
    5ba8:	b510      	push	{r4, lr}
    5baa:	4c05      	ldr	r4, [pc, #20]	; (5bc0 <I2Cx_Check+0x18>)
    5bac:	8863      	ldrh	r3, [r4, #2]
    5bae:	2b02      	cmp	r3, #2
    5bb0:	d801      	bhi.n	5bb6 <I2Cx_Check+0xe>
    5bb2:	2001      	movs	r0, #1
    5bb4:	bd10      	pop	{r4, pc}
    5bb6:	4b03      	ldr	r3, [pc, #12]	; (5bc4 <I2Cx_Check+0x1c>)
    5bb8:	4798      	blx	r3
    5bba:	2000      	movs	r0, #0
    5bbc:	8060      	strh	r0, [r4, #2]
    5bbe:	bd10      	pop	{r4, pc}
    5bc0:	20003602 	.word	0x20003602
    5bc4:	00005a75 	.word	0x00005a75

00005bc8 <Usart1_DmaCb>:
    5bc8:	4b01      	ldr	r3, [pc, #4]	; (5bd0 <Usart1_DmaCb+0x8>)
    5bca:	2202      	movs	r2, #2
    5bcc:	759a      	strb	r2, [r3, #22]
    5bce:	4770      	bx	lr
    5bd0:	40003400 	.word	0x40003400

00005bd4 <Usart1_Init>:
    5bd4:	b5f0      	push	{r4, r5, r6, r7, lr}
    5bd6:	4d49      	ldr	r5, [pc, #292]	; (5cfc <Usart1_Init+0x128>)
    5bd8:	4c49      	ldr	r4, [pc, #292]	; (5d00 <Usart1_Init+0x12c>)
    5bda:	6028      	str	r0, [r5, #0]
    5bdc:	6960      	ldr	r0, [r4, #20]
    5bde:	4e49      	ldr	r6, [pc, #292]	; (5d04 <Usart1_Init+0x130>)
    5be0:	6069      	str	r1, [r5, #4]
    5be2:	4b49      	ldr	r3, [pc, #292]	; (5d08 <Usart1_Init+0x134>)
    5be4:	2140      	movs	r1, #64	; 0x40
    5be6:	f440 5000 	orr.w	r0, r0, #8192	; 0x2000
    5bea:	6160      	str	r0, [r4, #20]
    5bec:	f8c6 10a0 	str.w	r1, [r6, #160]	; 0xa0
    5bf0:	6819      	ldr	r1, [r3, #0]
    5bf2:	60aa      	str	r2, [r5, #8]
    5bf4:	f041 0101 	orr.w	r1, r1, #1
    5bf8:	b083      	sub	sp, #12
    5bfa:	6019      	str	r1, [r3, #0]
    5bfc:	69d8      	ldr	r0, [r3, #28]
    5bfe:	f010 0001 	ands.w	r0, r0, #1
    5c02:	d1fb      	bne.n	5bfc <Usart1_Init+0x28>
    5c04:	4c41      	ldr	r4, [pc, #260]	; (5d0c <Usart1_Init+0x138>)
    5c06:	4a42      	ldr	r2, [pc, #264]	; (5d10 <Usart1_Init+0x13c>)
    5c08:	601a      	str	r2, [r3, #0]
    5c0a:	f44f 3740 	mov.w	r7, #196608	; 0x30000
    5c0e:	f64d 06ad 	movw	r6, #55469	; 0xd8ad
    5c12:	2184      	movs	r1, #132	; 0x84
    5c14:	f44f 2280 	mov.w	r2, #262144	; 0x40000
    5c18:	605f      	str	r7, [r3, #4]
    5c1a:	819e      	strh	r6, [r3, #12]
    5c1c:	7599      	strb	r1, [r3, #22]
    5c1e:	f8c4 2084 	str.w	r2, [r4, #132]	; 0x84
    5c22:	f3bf 8f4f 	dsb	sy
    5c26:	f3bf 8f6f 	isb	sy
    5c2a:	26a0      	movs	r6, #160	; 0xa0
    5c2c:	68a9      	ldr	r1, [r5, #8]
    5c2e:	4b39      	ldr	r3, [pc, #228]	; (5d14 <Usart1_Init+0x140>)
    5c30:	f8c4 2184 	str.w	r2, [r4, #388]	; 0x184
    5c34:	4f38      	ldr	r7, [pc, #224]	; (5d18 <Usart1_Init+0x144>)
    5c36:	f884 6332 	strb.w	r6, [r4, #818]	; 0x332
    5c3a:	6062      	str	r2, [r4, #4]
    5c3c:	9100      	str	r1, [sp, #0]
    5c3e:	2207      	movs	r2, #7
    5c40:	4936      	ldr	r1, [pc, #216]	; (5d1c <Usart1_Init+0x148>)
    5c42:	47b8      	blx	r7
    5c44:	f44f 2300 	mov.w	r3, #524288	; 0x80000
    5c48:	f8c4 3084 	str.w	r3, [r4, #132]	; 0x84
    5c4c:	f3bf 8f4f 	dsb	sy
    5c50:	f3bf 8f6f 	isb	sy
    5c54:	686a      	ldr	r2, [r5, #4]
    5c56:	f8c4 3184 	str.w	r3, [r4, #388]	; 0x184
    5c5a:	f884 6333 	strb.w	r6, [r4, #819]	; 0x333
    5c5e:	6063      	str	r3, [r4, #4]
    5c60:	b16a      	cbz	r2, 5c7e <Usart1_Init+0xaa>
    5c62:	f44f 1380 	mov.w	r3, #1048576	; 0x100000
    5c66:	f8c4 3084 	str.w	r3, [r4, #132]	; 0x84
    5c6a:	f3bf 8f4f 	dsb	sy
    5c6e:	f3bf 8f6f 	isb	sy
    5c72:	2280      	movs	r2, #128	; 0x80
    5c74:	f8c4 3184 	str.w	r3, [r4, #388]	; 0x184
    5c78:	f884 2334 	strb.w	r2, [r4, #820]	; 0x334
    5c7c:	6063      	str	r3, [r4, #4]
    5c7e:	68ab      	ldr	r3, [r5, #8]
    5c80:	b173      	cbz	r3, 5ca0 <Usart1_Init+0xcc>
    5c82:	4b22      	ldr	r3, [pc, #136]	; (5d0c <Usart1_Init+0x138>)
    5c84:	f44f 1200 	mov.w	r2, #2097152	; 0x200000
    5c88:	f8c3 2084 	str.w	r2, [r3, #132]	; 0x84
    5c8c:	f3bf 8f4f 	dsb	sy
    5c90:	f3bf 8f6f 	isb	sy
    5c94:	21c0      	movs	r1, #192	; 0xc0
    5c96:	f8c3 2184 	str.w	r2, [r3, #388]	; 0x184
    5c9a:	f883 1335 	strb.w	r1, [r3, #821]	; 0x335
    5c9e:	605a      	str	r2, [r3, #4]
    5ca0:	4819      	ldr	r0, [pc, #100]	; (5d08 <Usart1_Init+0x134>)
    5ca2:	4d1f      	ldr	r5, [pc, #124]	; (5d20 <Usart1_Init+0x14c>)
    5ca4:	6802      	ldr	r2, [r0, #0]
    5ca6:	4c1f      	ldr	r4, [pc, #124]	; (5d24 <Usart1_Init+0x150>)
    5ca8:	4b1f      	ldr	r3, [pc, #124]	; (5d28 <Usart1_Init+0x154>)
    5caa:	2100      	movs	r1, #0
    5cac:	f042 0202 	orr.w	r2, r2, #2
    5cb0:	6002      	str	r2, [r0, #0]
    5cb2:	8029      	strh	r1, [r5, #0]
    5cb4:	8021      	strh	r1, [r4, #0]
    5cb6:	f893 2050 	ldrb.w	r2, [r3, #80]	; 0x50
    5cba:	f002 02fe 	and.w	r2, r2, #254	; 0xfe
    5cbe:	f042 0201 	orr.w	r2, r2, #1
    5cc2:	f883 2050 	strb.w	r2, [r3, #80]	; 0x50
    5cc6:	f893 2038 	ldrb.w	r2, [r3, #56]	; 0x38
    5cca:	f002 02f0 	and.w	r2, r2, #240	; 0xf0
    5cce:	f042 0202 	orr.w	r2, r2, #2
    5cd2:	f883 2038 	strb.w	r2, [r3, #56]	; 0x38
    5cd6:	f893 2051 	ldrb.w	r2, [r3, #81]	; 0x51
    5cda:	f002 02fe 	and.w	r2, r2, #254	; 0xfe
    5cde:	f042 0201 	orr.w	r2, r2, #1
    5ce2:	f883 2051 	strb.w	r2, [r3, #81]	; 0x51
    5ce6:	f893 2038 	ldrb.w	r2, [r3, #56]	; 0x38
    5cea:	f002 020f 	and.w	r2, r2, #15
    5cee:	f042 0220 	orr.w	r2, r2, #32
    5cf2:	f883 2038 	strb.w	r2, [r3, #56]	; 0x38
    5cf6:	b003      	add	sp, #12
    5cf8:	bdf0      	pop	{r4, r5, r6, r7, pc}
    5cfa:	bf00      	nop
    5cfc:	20003608 	.word	0x20003608
    5d00:	40000800 	.word	0x40000800
    5d04:	40001c00 	.word	0x40001c00
    5d08:	40003400 	.word	0x40003400
    5d0c:	e000e100 	.word	0xe000e100
    5d10:	40100004 	.word	0x40100004
    5d14:	00005bc9 	.word	0x00005bc9
    5d18:	000043d5 	.word	0x000043d5
    5d1c:	40003428 	.word	0x40003428
    5d20:	2000ed26 	.word	0x2000ed26
    5d24:	2000ed24 	.word	0x2000ed24
    5d28:	41008000 	.word	0x41008000

00005d2c <SERCOM1_0_Handler>:
    5d2c:	4a11      	ldr	r2, [pc, #68]	; (5d74 <SERCOM1_0_Handler+0x48>)
    5d2e:	8813      	ldrh	r3, [r2, #0]
    5d30:	3301      	adds	r3, #1
    5d32:	b29b      	uxth	r3, r3
    5d34:	f5b3 6f80 	cmp.w	r3, #1024	; 0x400
    5d38:	8013      	strh	r3, [r2, #0]
    5d3a:	bf24      	itt	cs
    5d3c:	2300      	movcs	r3, #0
    5d3e:	8013      	strhcs	r3, [r2, #0]
    5d40:	4b0d      	ldr	r3, [pc, #52]	; (5d78 <SERCOM1_0_Handler+0x4c>)
    5d42:	8819      	ldrh	r1, [r3, #0]
    5d44:	8813      	ldrh	r3, [r2, #0]
    5d46:	b289      	uxth	r1, r1
    5d48:	b29b      	uxth	r3, r3
    5d4a:	4299      	cmp	r1, r3
    5d4c:	d00a      	beq.n	5d64 <SERCOM1_0_Handler+0x38>
    5d4e:	8813      	ldrh	r3, [r2, #0]
    5d50:	490a      	ldr	r1, [pc, #40]	; (5d7c <SERCOM1_0_Handler+0x50>)
    5d52:	4a0b      	ldr	r2, [pc, #44]	; (5d80 <SERCOM1_0_Handler+0x54>)
    5d54:	b29b      	uxth	r3, r3
    5d56:	5ccb      	ldrb	r3, [r1, r3]
    5d58:	b2db      	uxtb	r3, r3
    5d5a:	6293      	str	r3, [r2, #40]	; 0x28
    5d5c:	4b08      	ldr	r3, [pc, #32]	; (5d80 <SERCOM1_0_Handler+0x54>)
    5d5e:	2201      	movs	r2, #1
    5d60:	761a      	strb	r2, [r3, #24]
    5d62:	4770      	bx	lr
    5d64:	4b06      	ldr	r3, [pc, #24]	; (5d80 <SERCOM1_0_Handler+0x54>)
    5d66:	2201      	movs	r2, #1
    5d68:	751a      	strb	r2, [r3, #20]
    5d6a:	4b05      	ldr	r3, [pc, #20]	; (5d80 <SERCOM1_0_Handler+0x54>)
    5d6c:	2201      	movs	r2, #1
    5d6e:	761a      	strb	r2, [r3, #24]
    5d70:	4770      	bx	lr
    5d72:	bf00      	nop
    5d74:	2000ed26 	.word	0x2000ed26
    5d78:	2000ed24 	.word	0x2000ed24
    5d7c:	2000e924 	.word	0x2000e924
    5d80:	40003400 	.word	0x40003400

00005d84 <SERCOM1_1_Handler>:
    5d84:	b508      	push	{r3, lr}
    5d86:	4b05      	ldr	r3, [pc, #20]	; (5d9c <SERCOM1_1_Handler+0x18>)
    5d88:	681b      	ldr	r3, [r3, #0]
    5d8a:	b11b      	cbz	r3, 5d94 <SERCOM1_1_Handler+0x10>
    5d8c:	4798      	blx	r3
    5d8e:	4b04      	ldr	r3, [pc, #16]	; (5da0 <SERCOM1_1_Handler+0x1c>)
    5d90:	2202      	movs	r2, #2
    5d92:	751a      	strb	r2, [r3, #20]
    5d94:	4b02      	ldr	r3, [pc, #8]	; (5da0 <SERCOM1_1_Handler+0x1c>)
    5d96:	2202      	movs	r2, #2
    5d98:	761a      	strb	r2, [r3, #24]
    5d9a:	bd08      	pop	{r3, pc}
    5d9c:	20003608 	.word	0x20003608
    5da0:	40003400 	.word	0x40003400

00005da4 <SERCOM1_2_Handler>:
    5da4:	b508      	push	{r3, lr}
    5da6:	4b05      	ldr	r3, [pc, #20]	; (5dbc <SERCOM1_2_Handler+0x18>)
    5da8:	685b      	ldr	r3, [r3, #4]
    5daa:	b11b      	cbz	r3, 5db4 <SERCOM1_2_Handler+0x10>
    5dac:	4a04      	ldr	r2, [pc, #16]	; (5dc0 <SERCOM1_2_Handler+0x1c>)
    5dae:	6a90      	ldr	r0, [r2, #40]	; 0x28
    5db0:	b2c0      	uxtb	r0, r0
    5db2:	4798      	blx	r3
    5db4:	4b02      	ldr	r3, [pc, #8]	; (5dc0 <SERCOM1_2_Handler+0x1c>)
    5db6:	2204      	movs	r2, #4
    5db8:	761a      	strb	r2, [r3, #24]
    5dba:	bd08      	pop	{r3, pc}
    5dbc:	20003608 	.word	0x20003608
    5dc0:	40003400 	.word	0x40003400

00005dc4 <SERCOM1_3_Handler>:
    5dc4:	b508      	push	{r3, lr}
    5dc6:	4b05      	ldr	r3, [pc, #20]	; (5ddc <SERCOM1_3_Handler+0x18>)
    5dc8:	689b      	ldr	r3, [r3, #8]
    5dca:	b103      	cbz	r3, 5dce <SERCOM1_3_Handler+0xa>
    5dcc:	4798      	blx	r3
    5dce:	4b04      	ldr	r3, [pc, #16]	; (5de0 <SERCOM1_3_Handler+0x1c>)
    5dd0:	2106      	movs	r1, #6
    5dd2:	2280      	movs	r2, #128	; 0x80
    5dd4:	8359      	strh	r1, [r3, #26]
    5dd6:	761a      	strb	r2, [r3, #24]
    5dd8:	bd08      	pop	{r3, pc}
    5dda:	bf00      	nop
    5ddc:	20003608 	.word	0x20003608
    5de0:	40003400 	.word	0x40003400

00005de4 <Usart1_PutBfr>:
    5de4:	460a      	mov	r2, r1
    5de6:	4b02      	ldr	r3, [pc, #8]	; (5df0 <Usart1_PutBfr+0xc>)
    5de8:	4601      	mov	r1, r0
    5dea:	2000      	movs	r0, #0
    5dec:	4718      	bx	r3
    5dee:	bf00      	nop
    5df0:	00004421 	.word	0x00004421

00005df4 <SERCOM2_0_Handler>:
    5df4:	4a11      	ldr	r2, [pc, #68]	; (5e3c <SERCOM2_0_Handler+0x48>)
    5df6:	8813      	ldrh	r3, [r2, #0]
    5df8:	3301      	adds	r3, #1
    5dfa:	b29b      	uxth	r3, r3
    5dfc:	f5b3 7f82 	cmp.w	r3, #260	; 0x104
    5e00:	8013      	strh	r3, [r2, #0]
    5e02:	bf24      	itt	cs
    5e04:	2300      	movcs	r3, #0
    5e06:	8013      	strhcs	r3, [r2, #0]
    5e08:	4b0d      	ldr	r3, [pc, #52]	; (5e40 <SERCOM2_0_Handler+0x4c>)
    5e0a:	8819      	ldrh	r1, [r3, #0]
    5e0c:	8813      	ldrh	r3, [r2, #0]
    5e0e:	b289      	uxth	r1, r1
    5e10:	b29b      	uxth	r3, r3
    5e12:	4299      	cmp	r1, r3
    5e14:	d00a      	beq.n	5e2c <SERCOM2_0_Handler+0x38>
    5e16:	8813      	ldrh	r3, [r2, #0]
    5e18:	490a      	ldr	r1, [pc, #40]	; (5e44 <SERCOM2_0_Handler+0x50>)
    5e1a:	4a0b      	ldr	r2, [pc, #44]	; (5e48 <SERCOM2_0_Handler+0x54>)
    5e1c:	b29b      	uxth	r3, r3
    5e1e:	5ccb      	ldrb	r3, [r1, r3]
    5e20:	b2db      	uxtb	r3, r3
    5e22:	6293      	str	r3, [r2, #40]	; 0x28
    5e24:	4b08      	ldr	r3, [pc, #32]	; (5e48 <SERCOM2_0_Handler+0x54>)
    5e26:	2201      	movs	r2, #1
    5e28:	761a      	strb	r2, [r3, #24]
    5e2a:	4770      	bx	lr
    5e2c:	4b06      	ldr	r3, [pc, #24]	; (5e48 <SERCOM2_0_Handler+0x54>)
    5e2e:	2201      	movs	r2, #1
    5e30:	751a      	strb	r2, [r3, #20]
    5e32:	4b05      	ldr	r3, [pc, #20]	; (5e48 <SERCOM2_0_Handler+0x54>)
    5e34:	2201      	movs	r2, #1
    5e36:	761a      	strb	r2, [r3, #24]
    5e38:	4770      	bx	lr
    5e3a:	bf00      	nop
    5e3c:	2000ed28 	.word	0x2000ed28
    5e40:	2000ed2a 	.word	0x2000ed2a
    5e44:	2000ed2c 	.word	0x2000ed2c
    5e48:	41012000 	.word	0x41012000

00005e4c <SERCOM2_1_Handler>:
    5e4c:	b508      	push	{r3, lr}
    5e4e:	4b0b      	ldr	r3, [pc, #44]	; (5e7c <SERCOM2_1_Handler+0x30>)
    5e50:	6819      	ldr	r1, [r3, #0]
    5e52:	b139      	cbz	r1, 5e64 <SERCOM2_1_Handler+0x18>
    5e54:	4a0a      	ldr	r2, [pc, #40]	; (5e80 <SERCOM2_1_Handler+0x34>)
    5e56:	4b0b      	ldr	r3, [pc, #44]	; (5e84 <SERCOM2_1_Handler+0x38>)
    5e58:	8812      	ldrh	r2, [r2, #0]
    5e5a:	881b      	ldrh	r3, [r3, #0]
    5e5c:	b292      	uxth	r2, r2
    5e5e:	b29b      	uxth	r3, r3
    5e60:	429a      	cmp	r2, r3
    5e62:	d003      	beq.n	5e6c <SERCOM2_1_Handler+0x20>
    5e64:	4b08      	ldr	r3, [pc, #32]	; (5e88 <SERCOM2_1_Handler+0x3c>)
    5e66:	2202      	movs	r2, #2
    5e68:	761a      	strb	r2, [r3, #24]
    5e6a:	bd08      	pop	{r3, pc}
    5e6c:	4788      	blx	r1
    5e6e:	4b06      	ldr	r3, [pc, #24]	; (5e88 <SERCOM2_1_Handler+0x3c>)
    5e70:	2202      	movs	r2, #2
    5e72:	751a      	strb	r2, [r3, #20]
    5e74:	4b04      	ldr	r3, [pc, #16]	; (5e88 <SERCOM2_1_Handler+0x3c>)
    5e76:	2202      	movs	r2, #2
    5e78:	761a      	strb	r2, [r3, #24]
    5e7a:	bd08      	pop	{r3, pc}
    5e7c:	20003614 	.word	0x20003614
    5e80:	2000ed2a 	.word	0x2000ed2a
    5e84:	2000ed28 	.word	0x2000ed28
    5e88:	41012000 	.word	0x41012000

00005e8c <SERCOM2_2_Handler>:
    5e8c:	b508      	push	{r3, lr}
    5e8e:	4b05      	ldr	r3, [pc, #20]	; (5ea4 <SERCOM2_2_Handler+0x18>)
    5e90:	685b      	ldr	r3, [r3, #4]
    5e92:	b11b      	cbz	r3, 5e9c <SERCOM2_2_Handler+0x10>
    5e94:	4a04      	ldr	r2, [pc, #16]	; (5ea8 <SERCOM2_2_Handler+0x1c>)
    5e96:	6a90      	ldr	r0, [r2, #40]	; 0x28
    5e98:	b2c0      	uxtb	r0, r0
    5e9a:	4798      	blx	r3
    5e9c:	4b02      	ldr	r3, [pc, #8]	; (5ea8 <SERCOM2_2_Handler+0x1c>)
    5e9e:	2204      	movs	r2, #4
    5ea0:	761a      	strb	r2, [r3, #24]
    5ea2:	bd08      	pop	{r3, pc}
    5ea4:	20003614 	.word	0x20003614
    5ea8:	41012000 	.word	0x41012000

00005eac <SERCOM2_3_Handler>:
    5eac:	b508      	push	{r3, lr}
    5eae:	4b05      	ldr	r3, [pc, #20]	; (5ec4 <SERCOM2_3_Handler+0x18>)
    5eb0:	689b      	ldr	r3, [r3, #8]
    5eb2:	b103      	cbz	r3, 5eb6 <SERCOM2_3_Handler+0xa>
    5eb4:	4798      	blx	r3
    5eb6:	4b04      	ldr	r3, [pc, #16]	; (5ec8 <SERCOM2_3_Handler+0x1c>)
    5eb8:	2106      	movs	r1, #6
    5eba:	2280      	movs	r2, #128	; 0x80
    5ebc:	8359      	strh	r1, [r3, #26]
    5ebe:	761a      	strb	r2, [r3, #24]
    5ec0:	bd08      	pop	{r3, pc}
    5ec2:	bf00      	nop
    5ec4:	20003614 	.word	0x20003614
    5ec8:	41012000 	.word	0x41012000

00005ecc <AppCalib_Default>:
    5ecc:	e92d 41f0 	stmdb	sp!, {r4, r5, r6, r7, r8, lr}
    5ed0:	4c11      	ldr	r4, [pc, #68]	; (5f18 <AppCalib_Default+0x4c>)
    5ed2:	4e12      	ldr	r6, [pc, #72]	; (5f1c <AppCalib_Default+0x50>)
    5ed4:	2300      	movs	r3, #0
    5ed6:	2564      	movs	r5, #100	; 0x64
    5ed8:	f64f 72ff 	movw	r2, #65535	; 0xffff
    5edc:	f44f 71fe 	mov.w	r1, #508	; 0x1fc
    5ee0:	2701      	movs	r7, #1
    5ee2:	1d20      	adds	r0, r4, #4
    5ee4:	6063      	str	r3, [r4, #4]
    5ee6:	8263      	strh	r3, [r4, #18]
    5ee8:	8223      	strh	r3, [r4, #16]
    5eea:	60a7      	str	r7, [r4, #8]
    5eec:	81e5      	strh	r5, [r4, #14]
    5eee:	81a5      	strh	r5, [r4, #12]
    5ef0:	47b0      	blx	r6
    5ef2:	4621      	mov	r1, r4
    5ef4:	6020      	str	r0, [r4, #0]
    5ef6:	2280      	movs	r2, #128	; 0x80
    5ef8:	f44f 6000 	mov.w	r0, #2048	; 0x800
    5efc:	4b08      	ldr	r3, [pc, #32]	; (5f20 <AppCalib_Default+0x54>)
    5efe:	4798      	blx	r3
    5f00:	b908      	cbnz	r0, 5f06 <AppCalib_Default+0x3a>
    5f02:	e8bd 81f0 	ldmia.w	sp!, {r4, r5, r6, r7, r8, pc}
    5f06:	4621      	mov	r1, r4
    5f08:	2280      	movs	r2, #128	; 0x80
    5f0a:	f44f 6000 	mov.w	r0, #2048	; 0x800
    5f0e:	4b05      	ldr	r3, [pc, #20]	; (5f24 <AppCalib_Default+0x58>)
    5f10:	e8bd 41f0 	ldmia.w	sp!, {r4, r5, r6, r7, r8, lr}
    5f14:	4718      	bx	r3
    5f16:	bf00      	nop
    5f18:	2000f0bc 	.word	0x2000f0bc
    5f1c:	0000fd81 	.word	0x0000fd81
    5f20:	00005339 	.word	0x00005339
    5f24:	00005309 	.word	0x00005309

00005f28 <AppConfig_Default>:
    5f28:	e92d 47f0 	stmdb	sp!, {r4, r5, r6, r7, r8, r9, sl, lr}
    5f2c:	4f3e      	ldr	r7, [pc, #248]	; (6028 <AppConfig_Default+0x100>)
    5f2e:	4c3f      	ldr	r4, [pc, #252]	; (602c <AppConfig_Default+0x104>)
    5f30:	2500      	movs	r5, #0
    5f32:	2307      	movs	r3, #7
    5f34:	4629      	mov	r1, r5
    5f36:	2220      	movs	r2, #32
    5f38:	f107 0010 	add.w	r0, r7, #16
    5f3c:	60bb      	str	r3, [r7, #8]
    5f3e:	607d      	str	r5, [r7, #4]
    5f40:	47a0      	blx	r4
    5f42:	4b3b      	ldr	r3, [pc, #236]	; (6030 <AppConfig_Default+0x108>)
    5f44:	f887 5036 	strb.w	r5, [r7, #54]	; 0x36
    5f48:	2250      	movs	r2, #80	; 0x50
    5f4a:	7819      	ldrb	r1, [r3, #0]
    5f4c:	f887 2034 	strb.w	r2, [r7, #52]	; 0x34
    5f50:	2303      	movs	r3, #3
    5f52:	2612      	movs	r6, #18
    5f54:	20f0      	movs	r0, #240	; 0xf0
    5f56:	22ff      	movs	r2, #255	; 0xff
    5f58:	f887 3035 	strb.w	r3, [r7, #53]	; 0x35
    5f5c:	f04f 33ff 	mov.w	r3, #4294967295
    5f60:	877d      	strh	r5, [r7, #58]	; 0x3a
    5f62:	f887 503c 	strb.w	r5, [r7, #60]	; 0x3c
    5f66:	f887 503e 	strb.w	r5, [r7, #62]	; 0x3e
    5f6a:	873d      	strh	r5, [r7, #56]	; 0x38
    5f6c:	f887 51fe 	strb.w	r5, [r7, #510]	; 0x1fe
    5f70:	f887 603d 	strb.w	r6, [r7, #61]	; 0x3d
    5f74:	f887 003f 	strb.w	r0, [r7, #63]	; 0x3f
    5f78:	f887 21ff 	strb.w	r2, [r7, #511]	; 0x1ff
    5f7c:	633b      	str	r3, [r7, #48]	; 0x30
    5f7e:	f887 3037 	strb.w	r3, [r7, #55]	; 0x37
    5f82:	2900      	cmp	r1, #0
    5f84:	d03f      	beq.n	6006 <AppConfig_Default+0xde>
    5f86:	4e2b      	ldr	r6, [pc, #172]	; (6034 <AppConfig_Default+0x10c>)
    5f88:	4b2b      	ldr	r3, [pc, #172]	; (6038 <AppConfig_Default+0x110>)
    5f8a:	f896 8001 	ldrb.w	r8, [r6, #1]
    5f8e:	78f1      	ldrb	r1, [r6, #3]
    5f90:	781a      	ldrb	r2, [r3, #0]
    5f92:	643d      	str	r5, [r7, #64]	; 0x40
    5f94:	f887 103c 	strb.w	r1, [r7, #60]	; 0x3c
    5f98:	f887 21ff 	strb.w	r2, [r7, #511]	; 0x1ff
    5f9c:	647d      	str	r5, [r7, #68]	; 0x44
    5f9e:	64bd      	str	r5, [r7, #72]	; 0x48
    5fa0:	64fd      	str	r5, [r7, #76]	; 0x4c
    5fa2:	653d      	str	r5, [r7, #80]	; 0x50
    5fa4:	657d      	str	r5, [r7, #84]	; 0x54
    5fa6:	f1b8 0f00 	cmp.w	r8, #0
    5faa:	d016      	beq.n	5fda <AppConfig_Default+0xb2>
    5fac:	f8df 909c 	ldr.w	r9, [pc, #156]	; 604c <AppConfig_Default+0x124>
    5fb0:	f506 76de 	add.w	r6, r6, #444	; 0x1bc
    5fb4:	46aa      	mov	sl, r5
    5fb6:	f816 4c04 	ldrb.w	r4, [r6, #-4]
    5fba:	eb0a 0005 	add.w	r0, sl, r5
    5fbe:	3040      	adds	r0, #64	; 0x40
    5fc0:	4622      	mov	r2, r4
    5fc2:	4631      	mov	r1, r6
    5fc4:	4438      	add	r0, r7
    5fc6:	3c01      	subs	r4, #1
    5fc8:	3501      	adds	r5, #1
    5fca:	47c8      	blx	r9
    5fcc:	4454      	add	r4, sl
    5fce:	4545      	cmp	r5, r8
    5fd0:	fa5f fa84 	uxtb.w	sl, r4
    5fd4:	f106 0620 	add.w	r6, r6, #32
    5fd8:	d1ed      	bne.n	5fb6 <AppConfig_Default+0x8e>
    5fda:	23cd      	movs	r3, #205	; 0xcd
    5fdc:	f887 31fd 	strb.w	r3, [r7, #509]	; 0x1fd
    5fe0:	4c16      	ldr	r4, [pc, #88]	; (603c <AppConfig_Default+0x114>)
    5fe2:	4b17      	ldr	r3, [pc, #92]	; (6040 <AppConfig_Default+0x118>)
    5fe4:	f64f 72ff 	movw	r2, #65535	; 0xffff
    5fe8:	f44f 71fe 	mov.w	r1, #508	; 0x1fc
    5fec:	4620      	mov	r0, r4
    5fee:	4798      	blx	r3
    5ff0:	4621      	mov	r1, r4
    5ff2:	f44f 7200 	mov.w	r2, #512	; 0x200
    5ff6:	f841 0d04 	str.w	r0, [r1, #-4]!
    5ffa:	4b12      	ldr	r3, [pc, #72]	; (6044 <AppConfig_Default+0x11c>)
    5ffc:	2000      	movs	r0, #0
    5ffe:	4798      	blx	r3
    6000:	b948      	cbnz	r0, 6016 <AppConfig_Default+0xee>
    6002:	e8bd 87f0 	ldmia.w	sp!, {r4, r5, r6, r7, r8, r9, sl, pc}
    6006:	23a5      	movs	r3, #165	; 0xa5
    6008:	f107 0040 	add.w	r0, r7, #64	; 0x40
    600c:	2220      	movs	r2, #32
    600e:	f887 31fd 	strb.w	r3, [r7, #509]	; 0x1fd
    6012:	47a0      	blx	r4
    6014:	e7e4      	b.n	5fe0 <AppConfig_Default+0xb8>
    6016:	1f21      	subs	r1, r4, #4
    6018:	f44f 7200 	mov.w	r2, #512	; 0x200
    601c:	2000      	movs	r0, #0
    601e:	4b0a      	ldr	r3, [pc, #40]	; (6048 <AppConfig_Default+0x120>)
    6020:	e8bd 47f0 	ldmia.w	sp!, {r4, r5, r6, r7, r8, r9, sl, lr}
    6024:	4718      	bx	r3
    6026:	bf00      	nop
    6028:	2000ee38 	.word	0x2000ee38
    602c:	00010a7f 	.word	0x00010a7f
    6030:	200057b1 	.word	0x200057b1
    6034:	2000f340 	.word	0x2000f340
    6038:	2000f8ac 	.word	0x2000f8ac
    603c:	2000ee3c 	.word	0x2000ee3c
    6040:	0000fd81 	.word	0x0000fd81
    6044:	00005339 	.word	0x00005339
    6048:	00005309 	.word	0x00005309
    604c:	00010a69 	.word	0x00010a69

00006050 <AppConfig_Get>:
    6050:	b510      	push	{r4, lr}
    6052:	4c04      	ldr	r4, [pc, #16]	; (6064 <AppConfig_Get+0x14>)
    6054:	4b04      	ldr	r3, [pc, #16]	; (6068 <AppConfig_Get+0x18>)
    6056:	4621      	mov	r1, r4
    6058:	f44f 7200 	mov.w	r2, #512	; 0x200
    605c:	2000      	movs	r0, #0
    605e:	4798      	blx	r3
    6060:	4620      	mov	r0, r4
    6062:	bd10      	pop	{r4, pc}
    6064:	2000ee38 	.word	0x2000ee38
    6068:	00005309 	.word	0x00005309

0000606c <AppConfig_GetPtr>:
    606c:	4800      	ldr	r0, [pc, #0]	; (6070 <AppConfig_GetPtr+0x4>)
    606e:	4770      	bx	lr
    6070:	2000ee38 	.word	0x2000ee38

00006074 <AppConfig_Set>:
    6074:	b510      	push	{r4, lr}
    6076:	4c0d      	ldr	r4, [pc, #52]	; (60ac <AppConfig_Set+0x38>)
    6078:	4b0d      	ldr	r3, [pc, #52]	; (60b0 <AppConfig_Set+0x3c>)
    607a:	4798      	blx	r3
    607c:	4620      	mov	r0, r4
    607e:	f64f 72ff 	movw	r2, #65535	; 0xffff
    6082:	f44f 71fe 	mov.w	r1, #508	; 0x1fc
    6086:	4b0b      	ldr	r3, [pc, #44]	; (60b4 <AppConfig_Set+0x40>)
    6088:	4798      	blx	r3
    608a:	4621      	mov	r1, r4
    608c:	f44f 7200 	mov.w	r2, #512	; 0x200
    6090:	f841 0d04 	str.w	r0, [r1, #-4]!
    6094:	4b08      	ldr	r3, [pc, #32]	; (60b8 <AppConfig_Set+0x44>)
    6096:	2000      	movs	r0, #0
    6098:	4798      	blx	r3
    609a:	4604      	mov	r4, r0
    609c:	b118      	cbz	r0, 60a6 <AppConfig_Set+0x32>
    609e:	4b07      	ldr	r3, [pc, #28]	; (60bc <AppConfig_Set+0x48>)
    60a0:	4798      	blx	r3
    60a2:	4b07      	ldr	r3, [pc, #28]	; (60c0 <AppConfig_Set+0x4c>)
    60a4:	4798      	blx	r3
    60a6:	4620      	mov	r0, r4
    60a8:	bd10      	pop	{r4, pc}
    60aa:	bf00      	nop
    60ac:	2000ee3c 	.word	0x2000ee3c
    60b0:	0000ece5 	.word	0x0000ece5
    60b4:	0000fd81 	.word	0x0000fd81
    60b8:	00005339 	.word	0x00005339
    60bc:	0000b135 	.word	0x0000b135
    60c0:	00007451 	.word	0x00007451

000060c4 <AppCalib_Set>:
    60c4:	b510      	push	{r4, lr}
    60c6:	4c09      	ldr	r4, [pc, #36]	; (60ec <AppCalib_Set+0x28>)
    60c8:	4b09      	ldr	r3, [pc, #36]	; (60f0 <AppCalib_Set+0x2c>)
    60ca:	4798      	blx	r3
    60cc:	4620      	mov	r0, r4
    60ce:	f64f 72ff 	movw	r2, #65535	; 0xffff
    60d2:	217c      	movs	r1, #124	; 0x7c
    60d4:	4b07      	ldr	r3, [pc, #28]	; (60f4 <AppCalib_Set+0x30>)
    60d6:	4798      	blx	r3
    60d8:	1f21      	subs	r1, r4, #4
    60da:	f844 0c04 	str.w	r0, [r4, #-4]
    60de:	2280      	movs	r2, #128	; 0x80
    60e0:	f44f 6000 	mov.w	r0, #2048	; 0x800
    60e4:	4b04      	ldr	r3, [pc, #16]	; (60f8 <AppCalib_Set+0x34>)
    60e6:	e8bd 4010 	ldmia.w	sp!, {r4, lr}
    60ea:	4718      	bx	r3
    60ec:	2000f0c0 	.word	0x2000f0c0
    60f0:	0000ece5 	.word	0x0000ece5
    60f4:	0000fd81 	.word	0x0000fd81
    60f8:	00005339 	.word	0x00005339

000060fc <AppLog_Default>:
    60fc:	e92d 41f0 	stmdb	sp!, {r4, r5, r6, r7, r8, lr}
    6100:	4c16      	ldr	r4, [pc, #88]	; (615c <AppLog_Default+0x60>)
    6102:	2201      	movs	r2, #1
    6104:	2300      	movs	r3, #0
    6106:	60a2      	str	r2, [r4, #8]
    6108:	6063      	str	r3, [r4, #4]
    610a:	b108      	cbz	r0, 6110 <AppLog_Default+0x14>
    610c:	6123      	str	r3, [r4, #16]
    610e:	60e3      	str	r3, [r4, #12]
    6110:	2300      	movs	r3, #0
    6112:	f64f 72ff 	movw	r2, #65535	; 0xffff
    6116:	2178      	movs	r1, #120	; 0x78
    6118:	f24d 67d8 	movw	r7, #55000	; 0xd6d8
    611c:	2664      	movs	r6, #100	; 0x64
    611e:	4810      	ldr	r0, [pc, #64]	; (6160 <AppLog_Default+0x64>)
    6120:	4d10      	ldr	r5, [pc, #64]	; (6164 <AppLog_Default+0x68>)
    6122:	82e3      	strh	r3, [r4, #22]
    6124:	82a3      	strh	r3, [r4, #20]
    6126:	8363      	strh	r3, [r4, #26]
    6128:	8327      	strh	r7, [r4, #24]
    612a:	7726      	strb	r6, [r4, #28]
    612c:	47a8      	blx	r5
    612e:	2280      	movs	r2, #128	; 0x80
    6130:	6020      	str	r0, [r4, #0]
    6132:	490a      	ldr	r1, [pc, #40]	; (615c <AppLog_Default+0x60>)
    6134:	4b0c      	ldr	r3, [pc, #48]	; (6168 <AppLog_Default+0x6c>)
    6136:	f44f 6040 	mov.w	r0, #3072	; 0xc00
    613a:	4798      	blx	r3
    613c:	b908      	cbnz	r0, 6142 <AppLog_Default+0x46>
    613e:	e8bd 81f0 	ldmia.w	sp!, {r4, r5, r6, r7, r8, pc}
    6142:	2280      	movs	r2, #128	; 0x80
    6144:	4905      	ldr	r1, [pc, #20]	; (615c <AppLog_Default+0x60>)
    6146:	4b09      	ldr	r3, [pc, #36]	; (616c <AppLog_Default+0x70>)
    6148:	f44f 6040 	mov.w	r0, #3072	; 0xc00
    614c:	4798      	blx	r3
    614e:	4b08      	ldr	r3, [pc, #32]	; (6170 <AppLog_Default+0x74>)
    6150:	4798      	blx	r3
    6152:	4b08      	ldr	r3, [pc, #32]	; (6174 <AppLog_Default+0x78>)
    6154:	e8bd 41f0 	ldmia.w	sp!, {r4, r5, r6, r7, r8, lr}
    6158:	4718      	bx	r3
    615a:	bf00      	nop
    615c:	2001fe80 	.word	0x2001fe80
    6160:	2001fe84 	.word	0x2001fe84
    6164:	0000fd81 	.word	0x0000fd81
    6168:	00005339 	.word	0x00005339
    616c:	00005309 	.word	0x00005309
    6170:	0000b135 	.word	0x0000b135
    6174:	00007451 	.word	0x00007451

00006178 <AppConfig_CheckConfig>:
    6178:	e92d 4ff0 	stmdb	sp!, {r4, r5, r6, r7, r8, r9, sl, fp, lr}
    617c:	4d25      	ldr	r5, [pc, #148]	; (6214 <AppConfig_CheckConfig+0x9c>)
    617e:	f895 9001 	ldrb.w	r9, [r5, #1]
    6182:	b081      	sub	sp, #4
    6184:	f1b9 0f00 	cmp.w	r9, #0
    6188:	d03b      	beq.n	6202 <AppConfig_CheckConfig+0x8a>
    618a:	f04f 0a00 	mov.w	sl, #0
    618e:	f8df 8090 	ldr.w	r8, [pc, #144]	; 6220 <AppConfig_CheckConfig+0xa8>
    6192:	f505 75de 	add.w	r5, r5, #444	; 0x1bc
    6196:	4657      	mov	r7, sl
    6198:	2601      	movs	r6, #1
    619a:	e01c      	b.n	61d6 <AppConfig_CheckConfig+0x5e>
    619c:	f892 2040 	ldrb.w	r2, [r2, #64]	; 0x40
    61a0:	46b3      	mov	fp, r6
    61a2:	8869      	ldrh	r1, [r5, #2]
    61a4:	4450      	add	r0, sl
    61a6:	4291      	cmp	r1, r2
    61a8:	f106 0601 	add.w	r6, r6, #1
    61ac:	f100 0040 	add.w	r0, r0, #64	; 0x40
    61b0:	d802      	bhi.n	61b8 <AppConfig_CheckConfig+0x40>
    61b2:	88a9      	ldrh	r1, [r5, #4]
    61b4:	4291      	cmp	r1, r2
    61b6:	d206      	bcs.n	61c6 <AppConfig_CheckConfig+0x4e>
    61b8:	4440      	add	r0, r8
    61ba:	4622      	mov	r2, r4
    61bc:	4629      	mov	r1, r5
    61be:	4b16      	ldr	r3, [pc, #88]	; (6218 <AppConfig_CheckConfig+0xa0>)
    61c0:	4798      	blx	r3
    61c2:	3701      	adds	r7, #1
    61c4:	b2ff      	uxtb	r7, r7
    61c6:	3c01      	subs	r4, #1
    61c8:	4454      	add	r4, sl
    61ca:	45d9      	cmp	r9, fp
    61cc:	fa1f fa84 	uxth.w	sl, r4
    61d0:	f105 0520 	add.w	r5, r5, #32
    61d4:	dd14      	ble.n	6200 <AppConfig_CheckConfig+0x88>
    61d6:	f815 4c04 	ldrb.w	r4, [r5, #-4]
    61da:	eb08 020a 	add.w	r2, r8, sl
    61de:	1e70      	subs	r0, r6, #1
    61e0:	2c02      	cmp	r4, #2
    61e2:	4402      	add	r2, r0
    61e4:	d1da      	bne.n	619c <AppConfig_CheckConfig+0x24>
    61e6:	eb08 020a 	add.w	r2, r8, sl
    61ea:	1991      	adds	r1, r2, r6
    61ec:	4402      	add	r2, r0
    61ee:	f891 1040 	ldrb.w	r1, [r1, #64]	; 0x40
    61f2:	f892 2040 	ldrb.w	r2, [r2, #64]	; 0x40
    61f6:	eb02 2201 	add.w	r2, r2, r1, lsl #8
    61fa:	b292      	uxth	r2, r2
    61fc:	46b3      	mov	fp, r6
    61fe:	e7d0      	b.n	61a2 <AppConfig_CheckConfig+0x2a>
    6200:	b917      	cbnz	r7, 6208 <AppConfig_CheckConfig+0x90>
    6202:	b001      	add	sp, #4
    6204:	e8bd 8ff0 	ldmia.w	sp!, {r4, r5, r6, r7, r8, r9, sl, fp, pc}
    6208:	4b04      	ldr	r3, [pc, #16]	; (621c <AppConfig_CheckConfig+0xa4>)
    620a:	b001      	add	sp, #4
    620c:	e8bd 4ff0 	ldmia.w	sp!, {r4, r5, r6, r7, r8, r9, sl, fp, lr}
    6210:	4718      	bx	r3
    6212:	bf00      	nop
    6214:	2000f340 	.word	0x2000f340
    6218:	00010a69 	.word	0x00010a69
    621c:	00006075 	.word	0x00006075
    6220:	2000ee38 	.word	0x2000ee38

00006224 <AppLog_Set>:
    6224:	b570      	push	{r4, r5, r6, lr}
    6226:	4c0a      	ldr	r4, [pc, #40]	; (6250 <AppLog_Set+0x2c>)
    6228:	4b0a      	ldr	r3, [pc, #40]	; (6254 <AppLog_Set+0x30>)
    622a:	4798      	blx	r3
    622c:	2500      	movs	r5, #0
    622e:	1d20      	adds	r0, r4, #4
    6230:	f64f 72ff 	movw	r2, #65535	; 0xffff
    6234:	2178      	movs	r1, #120	; 0x78
    6236:	4b08      	ldr	r3, [pc, #32]	; (6258 <AppLog_Set+0x34>)
    6238:	8365      	strh	r5, [r4, #26]
    623a:	4798      	blx	r3
    623c:	4621      	mov	r1, r4
    623e:	6020      	str	r0, [r4, #0]
    6240:	2280      	movs	r2, #128	; 0x80
    6242:	f44f 6040 	mov.w	r0, #3072	; 0xc00
    6246:	4b05      	ldr	r3, [pc, #20]	; (625c <AppLog_Set+0x38>)
    6248:	e8bd 4070 	ldmia.w	sp!, {r4, r5, r6, lr}
    624c:	4718      	bx	r3
    624e:	bf00      	nop
    6250:	2001fe80 	.word	0x2001fe80
    6254:	0000ece5 	.word	0x0000ece5
    6258:	0000fd81 	.word	0x0000fd81
    625c:	00005339 	.word	0x00005339

00006260 <AppConfig_Init>:
    6260:	e92d 41f0 	stmdb	sp!, {r4, r5, r6, r7, r8, lr}
    6264:	4e52      	ldr	r6, [pc, #328]	; (63b0 <AppConfig_Init+0x150>)
    6266:	4c53      	ldr	r4, [pc, #332]	; (63b4 <AppConfig_Init+0x154>)
    6268:	4d53      	ldr	r5, [pc, #332]	; (63b8 <AppConfig_Init+0x158>)
    626a:	4631      	mov	r1, r6
    626c:	f44f 7200 	mov.w	r2, #512	; 0x200
    6270:	2000      	movs	r0, #0
    6272:	47a0      	blx	r4
    6274:	4b51      	ldr	r3, [pc, #324]	; (63bc <AppConfig_Init+0x15c>)
    6276:	1d30      	adds	r0, r6, #4
    6278:	f64f 72ff 	movw	r2, #65535	; 0xffff
    627c:	f44f 71fe 	mov.w	r1, #508	; 0x1fc
    6280:	601e      	str	r6, [r3, #0]
    6282:	47a8      	blx	r5
    6284:	6833      	ldr	r3, [r6, #0]
    6286:	4283      	cmp	r3, r0
    6288:	d07b      	beq.n	6382 <AppConfig_Init+0x122>
    628a:	4b4d      	ldr	r3, [pc, #308]	; (63c0 <AppConfig_Init+0x160>)
    628c:	4798      	blx	r3
    628e:	484d      	ldr	r0, [pc, #308]	; (63c4 <AppConfig_Init+0x164>)
    6290:	f890 e001 	ldrb.w	lr, [r0, #1]
    6294:	f1be 0f00 	cmp.w	lr, #0
    6298:	d02b      	beq.n	62f2 <AppConfig_Init+0x92>
    629a:	2700      	movs	r7, #0
    629c:	46b8      	mov	r8, r7
    629e:	463a      	mov	r2, r7
    62a0:	e005      	b.n	62ae <AppConfig_Init+0x4e>
    62a2:	3701      	adds	r7, #1
    62a4:	4577      	cmp	r7, lr
    62a6:	b2da      	uxtb	r2, r3
    62a8:	f100 0020 	add.w	r0, r0, #32
    62ac:	d01e      	beq.n	62ec <AppConfig_Init+0x8c>
    62ae:	f890 11b8 	ldrb.w	r1, [r0, #440]	; 0x1b8
    62b2:	1e4b      	subs	r3, r1, #1
    62b4:	2901      	cmp	r1, #1
    62b6:	4413      	add	r3, r2
    62b8:	d1f3      	bne.n	62a2 <AppConfig_Init+0x42>
    62ba:	443a      	add	r2, r7
    62bc:	18b1      	adds	r1, r6, r2
    62be:	f8b0 c1be 	ldrh.w	ip, [r0, #446]	; 0x1be
    62c2:	f891 1040 	ldrb.w	r1, [r1, #64]	; 0x40
    62c6:	458c      	cmp	ip, r1
    62c8:	d803      	bhi.n	62d2 <AppConfig_Init+0x72>
    62ca:	f8b0 c1c0 	ldrh.w	ip, [r0, #448]	; 0x1c0
    62ce:	458c      	cmp	ip, r1
    62d0:	d2e7      	bcs.n	62a2 <AppConfig_Init+0x42>
    62d2:	4432      	add	r2, r6
    62d4:	3701      	adds	r7, #1
    62d6:	f8b0 11bc 	ldrh.w	r1, [r0, #444]	; 0x1bc
    62da:	f882 1040 	strb.w	r1, [r2, #64]	; 0x40
    62de:	4577      	cmp	r7, lr
    62e0:	f04f 0801 	mov.w	r8, #1
    62e4:	b2da      	uxtb	r2, r3
    62e6:	f100 0020 	add.w	r0, r0, #32
    62ea:	d1e0      	bne.n	62ae <AppConfig_Init+0x4e>
    62ec:	f1b8 0f00 	cmp.w	r8, #0
    62f0:	d129      	bne.n	6346 <AppConfig_Init+0xe6>
    62f2:	4e35      	ldr	r6, [pc, #212]	; (63c8 <AppConfig_Init+0x168>)
    62f4:	2280      	movs	r2, #128	; 0x80
    62f6:	4631      	mov	r1, r6
    62f8:	f44f 6040 	mov.w	r0, #3072	; 0xc00
    62fc:	47a0      	blx	r4
    62fe:	4b33      	ldr	r3, [pc, #204]	; (63cc <AppConfig_Init+0x16c>)
    6300:	1d30      	adds	r0, r6, #4
    6302:	f64f 72ff 	movw	r2, #65535	; 0xffff
    6306:	2178      	movs	r1, #120	; 0x78
    6308:	601e      	str	r6, [r3, #0]
    630a:	47a8      	blx	r5
    630c:	6833      	ldr	r3, [r6, #0]
    630e:	4283      	cmp	r3, r0
    6310:	d02a      	beq.n	6368 <AppConfig_Init+0x108>
    6312:	2001      	movs	r0, #1
    6314:	4b2e      	ldr	r3, [pc, #184]	; (63d0 <AppConfig_Init+0x170>)
    6316:	4798      	blx	r3
    6318:	4e2e      	ldr	r6, [pc, #184]	; (63d4 <AppConfig_Init+0x174>)
    631a:	2280      	movs	r2, #128	; 0x80
    631c:	4631      	mov	r1, r6
    631e:	f44f 6000 	mov.w	r0, #2048	; 0x800
    6322:	47a0      	blx	r4
    6324:	4b2c      	ldr	r3, [pc, #176]	; (63d8 <AppConfig_Init+0x178>)
    6326:	1d30      	adds	r0, r6, #4
    6328:	f64f 72ff 	movw	r2, #65535	; 0xffff
    632c:	217c      	movs	r1, #124	; 0x7c
    632e:	601e      	str	r6, [r3, #0]
    6330:	47a8      	blx	r5
    6332:	6833      	ldr	r3, [r6, #0]
    6334:	4283      	cmp	r3, r0
    6336:	d133      	bne.n	63a0 <AppConfig_Init+0x140>
    6338:	68b3      	ldr	r3, [r6, #8]
    633a:	b13b      	cbz	r3, 634c <AppConfig_Init+0xec>
    633c:	4b27      	ldr	r3, [pc, #156]	; (63dc <AppConfig_Init+0x17c>)
    633e:	4a28      	ldr	r2, [pc, #160]	; (63e0 <AppConfig_Init+0x180>)
    6340:	601a      	str	r2, [r3, #0]
    6342:	e8bd 81f0 	ldmia.w	sp!, {r4, r5, r6, r7, r8, pc}
    6346:	4b27      	ldr	r3, [pc, #156]	; (63e4 <AppConfig_Init+0x184>)
    6348:	4798      	blx	r3
    634a:	e7d2      	b.n	62f2 <AppConfig_Init+0x92>
    634c:	2280      	movs	r2, #128	; 0x80
    634e:	4631      	mov	r1, r6
    6350:	f44f 6000 	mov.w	r0, #2048	; 0x800
    6354:	47a0      	blx	r4
    6356:	2201      	movs	r2, #1
    6358:	4b23      	ldr	r3, [pc, #140]	; (63e8 <AppConfig_Init+0x188>)
    635a:	60b2      	str	r2, [r6, #8]
    635c:	4798      	blx	r3
    635e:	4b1f      	ldr	r3, [pc, #124]	; (63dc <AppConfig_Init+0x17c>)
    6360:	4a1f      	ldr	r2, [pc, #124]	; (63e0 <AppConfig_Init+0x180>)
    6362:	601a      	str	r2, [r3, #0]
    6364:	e8bd 81f0 	ldmia.w	sp!, {r4, r5, r6, r7, r8, pc}
    6368:	68b3      	ldr	r3, [r6, #8]
    636a:	2b00      	cmp	r3, #0
    636c:	d1d4      	bne.n	6318 <AppConfig_Init+0xb8>
    636e:	2280      	movs	r2, #128	; 0x80
    6370:	4631      	mov	r1, r6
    6372:	f44f 6040 	mov.w	r0, #3072	; 0xc00
    6376:	47a0      	blx	r4
    6378:	2201      	movs	r2, #1
    637a:	4b1c      	ldr	r3, [pc, #112]	; (63ec <AppConfig_Init+0x18c>)
    637c:	60b2      	str	r2, [r6, #8]
    637e:	4798      	blx	r3
    6380:	e7ca      	b.n	6318 <AppConfig_Init+0xb8>
    6382:	68b3      	ldr	r3, [r6, #8]
    6384:	2b06      	cmp	r3, #6
    6386:	d882      	bhi.n	628e <AppConfig_Init+0x2e>
    6388:	2b01      	cmp	r3, #1
    638a:	bf9c      	itt	ls
    638c:	2300      	movls	r3, #0
    638e:	8733      	strhls	r3, [r6, #56]	; 0x38
    6390:	2102      	movs	r1, #2
    6392:	2207      	movs	r2, #7
    6394:	4b13      	ldr	r3, [pc, #76]	; (63e4 <AppConfig_Init+0x184>)
    6396:	f886 1046 	strb.w	r1, [r6, #70]	; 0x46
    639a:	60b2      	str	r2, [r6, #8]
    639c:	4798      	blx	r3
    639e:	e776      	b.n	628e <AppConfig_Init+0x2e>
    63a0:	4b13      	ldr	r3, [pc, #76]	; (63f0 <AppConfig_Init+0x190>)
    63a2:	4798      	blx	r3
    63a4:	4b0d      	ldr	r3, [pc, #52]	; (63dc <AppConfig_Init+0x17c>)
    63a6:	4a0e      	ldr	r2, [pc, #56]	; (63e0 <AppConfig_Init+0x180>)
    63a8:	601a      	str	r2, [r3, #0]
    63aa:	e8bd 81f0 	ldmia.w	sp!, {r4, r5, r6, r7, r8, pc}
    63ae:	bf00      	nop
    63b0:	2000ee38 	.word	0x2000ee38
    63b4:	00005309 	.word	0x00005309
    63b8:	0000fd81 	.word	0x0000fd81
    63bc:	2000ee34 	.word	0x2000ee34
    63c0:	00005f29 	.word	0x00005f29
    63c4:	2000f340 	.word	0x2000f340
    63c8:	2001fe80 	.word	0x2001fe80
    63cc:	2000ee30 	.word	0x2000ee30
    63d0:	000060fd 	.word	0x000060fd
    63d4:	2000f0bc 	.word	0x2000f0bc
    63d8:	2000f13c 	.word	0x2000f13c
    63dc:	2000f038 	.word	0x2000f038
    63e0:	2000f03c 	.word	0x2000f03c
    63e4:	00006075 	.word	0x00006075
    63e8:	000060c5 	.word	0x000060c5
    63ec:	00006225 	.word	0x00006225
    63f0:	00005ecd 	.word	0x00005ecd

000063f4 <atmel_start_init>:
    63f4:	4b00      	ldr	r3, [pc, #0]	; (63f8 <atmel_start_init+0x4>)
    63f6:	4718      	bx	r3
    63f8:	00008711 	.word	0x00008711

000063fc <Dummy_Handler>:
    63fc:	4b01      	ldr	r3, [pc, #4]	; (6404 <Dummy_Handler+0x8>)
    63fe:	225e      	movs	r2, #94	; 0x5e
    6400:	745a      	strb	r2, [r3, #17]
    6402:	e7fe      	b.n	6402 <Dummy_Handler+0x6>
    6404:	2001ff00 	.word	0x2001ff00

00006408 <Dummy_Handler2>:
    6408:	4b01      	ldr	r3, [pc, #4]	; (6410 <Dummy_Handler2+0x8>)
    640a:	2228      	movs	r2, #40	; 0x28
    640c:	745a      	strb	r2, [r3, #17]
    640e:	e7fe      	b.n	640e <Dummy_Handler2+0x6>
    6410:	2001ff00 	.word	0x2001ff00

00006414 <Dummy_Handler3>:
    6414:	4b01      	ldr	r3, [pc, #4]	; (641c <Dummy_Handler3+0x8>)
    6416:	2229      	movs	r2, #41	; 0x29
    6418:	745a      	strb	r2, [r3, #17]
    641a:	e7fe      	b.n	641a <Dummy_Handler3+0x6>
    641c:	2001ff00 	.word	0x2001ff00

00006420 <NonMaskableInt_Handler2>:
    6420:	4b01      	ldr	r3, [pc, #4]	; (6428 <NonMaskableInt_Handler2+0x8>)
    6422:	222b      	movs	r2, #43	; 0x2b
    6424:	745a      	strb	r2, [r3, #17]
    6426:	e7fe      	b.n	6426 <NonMaskableInt_Handler2+0x6>
    6428:	2001ff00 	.word	0x2001ff00

0000642c <HardFault_Handler2>:
    642c:	e7fe      	b.n	642c <HardFault_Handler2>
    642e:	bf00      	nop

00006430 <MemManagement_Handler2>:
    6430:	4b01      	ldr	r3, [pc, #4]	; (6438 <MemManagement_Handler2+0x8>)
    6432:	2240      	movs	r2, #64	; 0x40
    6434:	745a      	strb	r2, [r3, #17]
    6436:	e7fe      	b.n	6436 <MemManagement_Handler2+0x6>
    6438:	2001ff00 	.word	0x2001ff00

0000643c <BusFault_Handler2>:
    643c:	4b01      	ldr	r3, [pc, #4]	; (6444 <BusFault_Handler2+0x8>)
    643e:	2221      	movs	r2, #33	; 0x21
    6440:	745a      	strb	r2, [r3, #17]
    6442:	e7fe      	b.n	6442 <BusFault_Handler2+0x6>
    6444:	2001ff00 	.word	0x2001ff00

00006448 <UsageFault_Handler2>:
    6448:	4b01      	ldr	r3, [pc, #4]	; (6450 <UsageFault_Handler2+0x8>)
    644a:	223d      	movs	r2, #61	; 0x3d
    644c:	745a      	strb	r2, [r3, #17]
    644e:	e7fe      	b.n	644e <UsageFault_Handler2+0x6>
    6450:	2001ff00 	.word	0x2001ff00

00006454 <Reset_Handler>:
    6454:	491b      	ldr	r1, [pc, #108]	; (64c4 <Reset_Handler+0x70>)
    6456:	4a1c      	ldr	r2, [pc, #112]	; (64c8 <Reset_Handler+0x74>)
    6458:	4291      	cmp	r1, r2
    645a:	b508      	push	{r3, lr}
    645c:	d00e      	beq.n	647c <Reset_Handler+0x28>
    645e:	481b      	ldr	r0, [pc, #108]	; (64cc <Reset_Handler+0x78>)
    6460:	4282      	cmp	r2, r0
    6462:	d20b      	bcs.n	647c <Reset_Handler+0x28>
    6464:	43d3      	mvns	r3, r2
    6466:	4403      	add	r3, r0
    6468:	f023 0303 	bic.w	r3, r3, #3
    646c:	3304      	adds	r3, #4
    646e:	4413      	add	r3, r2
    6470:	f851 0b04 	ldr.w	r0, [r1], #4
    6474:	f842 0b04 	str.w	r0, [r2], #4
    6478:	429a      	cmp	r2, r3
    647a:	d1f9      	bne.n	6470 <Reset_Handler+0x1c>
    647c:	4a14      	ldr	r2, [pc, #80]	; (64d0 <Reset_Handler+0x7c>)
    647e:	4915      	ldr	r1, [pc, #84]	; (64d4 <Reset_Handler+0x80>)
    6480:	428a      	cmp	r2, r1
    6482:	d20a      	bcs.n	649a <Reset_Handler+0x46>
    6484:	43d3      	mvns	r3, r2
    6486:	440b      	add	r3, r1
    6488:	f023 0303 	bic.w	r3, r3, #3
    648c:	3304      	adds	r3, #4
    648e:	4413      	add	r3, r2
    6490:	2100      	movs	r1, #0
    6492:	f842 1b04 	str.w	r1, [r2], #4
    6496:	429a      	cmp	r2, r3
    6498:	d1fb      	bne.n	6492 <Reset_Handler+0x3e>
    649a:	4a0f      	ldr	r2, [pc, #60]	; (64d8 <Reset_Handler+0x84>)
    649c:	4b0f      	ldr	r3, [pc, #60]	; (64dc <Reset_Handler+0x88>)
    649e:	f022 027f 	bic.w	r2, r2, #127	; 0x7f
    64a2:	609a      	str	r2, [r3, #8]
    64a4:	f8d3 2088 	ldr.w	r2, [r3, #136]	; 0x88
    64a8:	f442 0270 	orr.w	r2, r2, #15728640	; 0xf00000
    64ac:	f8c3 2088 	str.w	r2, [r3, #136]	; 0x88
    64b0:	f3bf 8f4f 	dsb	sy
    64b4:	f3bf 8f6f 	isb	sy
    64b8:	4b09      	ldr	r3, [pc, #36]	; (64e0 <Reset_Handler+0x8c>)
    64ba:	4798      	blx	r3
    64bc:	4b09      	ldr	r3, [pc, #36]	; (64e4 <Reset_Handler+0x90>)
    64be:	4798      	blx	r3
    64c0:	e7fe      	b.n	64c0 <Reset_Handler+0x6c>
    64c2:	bf00      	nop
    64c4:	00012760 	.word	0x00012760
    64c8:	20002200 	.word	0x20002200
    64cc:	20002af4 	.word	0x20002af4
    64d0:	20002b00 	.word	0x20002b00
    64d4:	2000fa0c 	.word	0x2000fa0c
    64d8:	00004000 	.word	0x00004000
    64dc:	e000ed00 	.word	0xe000ed00
    64e0:	00010a21 	.word	0x00010a21
    64e4:	0000c681 	.word	0x0000c681

000064e8 <_gpio_set_pin_function>:
    64e8:	b430      	push	{r4, r5}
    64ea:	1c4b      	adds	r3, r1, #1
    64ec:	b2c5      	uxtb	r5, r0
    64ee:	ea4f 1050 	mov.w	r0, r0, lsr #5
    64f2:	f005 041f 	and.w	r4, r5, #31
    64f6:	b2c0      	uxtb	r0, r0
    64f8:	d027      	beq.n	654a <_gpio_set_pin_function+0x62>
    64fa:	01c3      	lsls	r3, r0, #7
    64fc:	f103 4382 	add.w	r3, r3, #1090519040	; 0x41000000
    6500:	f503 4300 	add.w	r3, r3, #32768	; 0x8000
    6504:	1918      	adds	r0, r3, r4
    6506:	eb03 0354 	add.w	r3, r3, r4, lsr #1
    650a:	f890 2040 	ldrb.w	r2, [r0, #64]	; 0x40
    650e:	f002 02fe 	and.w	r2, r2, #254	; 0xfe
    6512:	f042 0201 	orr.w	r2, r2, #1
    6516:	f880 2040 	strb.w	r2, [r0, #64]	; 0x40
    651a:	07ea      	lsls	r2, r5, #31
    651c:	d40a      	bmi.n	6534 <_gpio_set_pin_function+0x4c>
    651e:	f893 2030 	ldrb.w	r2, [r3, #48]	; 0x30
    6522:	f001 010f 	and.w	r1, r1, #15
    6526:	f002 02f0 	and.w	r2, r2, #240	; 0xf0
    652a:	4311      	orrs	r1, r2
    652c:	f883 1030 	strb.w	r1, [r3, #48]	; 0x30
    6530:	bc30      	pop	{r4, r5}
    6532:	4770      	bx	lr
    6534:	f893 2030 	ldrb.w	r2, [r3, #48]	; 0x30
    6538:	f002 020f 	and.w	r2, r2, #15
    653c:	ea42 1101 	orr.w	r1, r2, r1, lsl #4
    6540:	b2c9      	uxtb	r1, r1
    6542:	f883 1030 	strb.w	r1, [r3, #48]	; 0x30
    6546:	bc30      	pop	{r4, r5}
    6548:	4770      	bx	lr
    654a:	eb04 10c0 	add.w	r0, r4, r0, lsl #7
    654e:	f100 4082 	add.w	r0, r0, #1090519040	; 0x41000000
    6552:	f500 4000 	add.w	r0, r0, #32768	; 0x8000
    6556:	f890 3040 	ldrb.w	r3, [r0, #64]	; 0x40
    655a:	f003 03fe 	and.w	r3, r3, #254	; 0xfe
    655e:	f880 3040 	strb.w	r3, [r0, #64]	; 0x40
    6562:	bc30      	pop	{r4, r5}
    6564:	4770      	bx	lr
    6566:	bf00      	nop

00006568 <StepDown_SetControl.isra.4>:
    6568:	e92d 4ff0 	stmdb	sp!, {r4, r5, r6, r7, r8, r9, sl, fp, lr}
    656c:	b087      	sub	sp, #28
    656e:	680b      	ldr	r3, [r1, #0]
    6570:	9301      	str	r3, [sp, #4]
    6572:	4a9d      	ldr	r2, [pc, #628]	; (67e8 <StepDown_SetControl.isra.4+0x280>)
    6574:	8b8b      	ldrh	r3, [r1, #28]
    6576:	460c      	mov	r4, r1
    6578:	f3c3 2307 	ubfx	r3, r3, #8, #8
    657c:	6811      	ldr	r1, [r2, #0]
    657e:	0a02      	lsrs	r2, r0, #8
    6580:	1ad5      	subs	r5, r2, r3
    6582:	2d00      	cmp	r5, #0
    6584:	bfb8      	it	lt
    6586:	426d      	neglt	r5, r5
    6588:	429a      	cmp	r2, r3
    658a:	4606      	mov	r6, r0
    658c:	f891 a041 	ldrb.w	sl, [r1, #65]	; 0x41
    6590:	f891 7046 	ldrb.w	r7, [r1, #70]	; 0x46
    6594:	f000 80e9 	beq.w	676a <StepDown_SetControl.isra.4+0x202>
    6598:	2300      	movs	r3, #0
    659a:	f884 303e 	strb.w	r3, [r4, #62]	; 0x3e
    659e:	f894 303e 	ldrb.w	r3, [r4, #62]	; 0x3e
    65a2:	f8df 8254 	ldr.w	r8, [pc, #596]	; 67f8 <StepDown_SetControl.isra.4+0x290>
    65a6:	f8df 9254 	ldr.w	r9, [pc, #596]	; 67fc <StepDown_SetControl.isra.4+0x294>
    65aa:	091b      	lsrs	r3, r3, #4
    65ac:	112d      	asrs	r5, r5, #4
    65ae:	3302      	adds	r3, #2
    65b0:	3f01      	subs	r7, #1
    65b2:	2d03      	cmp	r5, #3
    65b4:	9304      	str	r3, [sp, #16]
    65b6:	b2fb      	uxtb	r3, r7
    65b8:	bfa8      	it	ge
    65ba:	2503      	movge	r5, #3
    65bc:	9302      	str	r3, [sp, #8]
    65be:	2301      	movs	r3, #1
    65c0:	fa5f fb85 	uxtb.w	fp, r5
    65c4:	9303      	str	r3, [sp, #12]
    65c6:	f1ba 0f02 	cmp.w	sl, #2
    65ca:	d052      	beq.n	6672 <StepDown_SetControl.isra.4+0x10a>
    65cc:	4b87      	ldr	r3, [pc, #540]	; (67ec <StepDown_SetControl.isra.4+0x284>)
    65ce:	4798      	blx	r3
    65d0:	2800      	cmp	r0, #0
    65d2:	d14e      	bne.n	6672 <StepDown_SetControl.isra.4+0x10a>
    65d4:	f1ba 0f01 	cmp.w	sl, #1
    65d8:	f000 80ee 	beq.w	67b8 <StepDown_SetControl.isra.4+0x250>
    65dc:	f1ba 0f03 	cmp.w	sl, #3
    65e0:	f000 80d2 	beq.w	6788 <StepDown_SetControl.isra.4+0x220>
    65e4:	6823      	ldr	r3, [r4, #0]
    65e6:	6822      	ldr	r2, [r4, #0]
    65e8:	1af3      	subs	r3, r6, r3
    65ea:	bf48      	it	mi
    65ec:	330f      	addmi	r3, #15
    65ee:	eb02 1323 	add.w	r3, r2, r3, asr #4
    65f2:	2104      	movs	r1, #4
    65f4:	2200      	movs	r2, #0
    65f6:	6023      	str	r3, [r4, #0]
    65f8:	f888 2002 	strb.w	r2, [r8, #2]
    65fc:	f884 204f 	strb.w	r2, [r4, #79]	; 0x4f
    6600:	f884 104e 	strb.w	r1, [r4, #78]	; 0x4e
    6604:	6823      	ldr	r3, [r4, #0]
    6606:	9a01      	ldr	r2, [sp, #4]
    6608:	429a      	cmp	r2, r3
    660a:	d165      	bne.n	66d8 <StepDown_SetControl.isra.4+0x170>
    660c:	6823      	ldr	r3, [r4, #0]
    660e:	42b3      	cmp	r3, r6
    6610:	d062      	beq.n	66d8 <StepDown_SetControl.isra.4+0x170>
    6612:	6823      	ldr	r3, [r4, #0]
    6614:	9a02      	ldr	r2, [sp, #8]
    6616:	42b3      	cmp	r3, r6
    6618:	6823      	ldr	r3, [r4, #0]
    661a:	bfb4      	ite	lt
    661c:	3301      	addlt	r3, #1
    661e:	f103 33ff 	addge.w	r3, r3, #4294967295
    6622:	6023      	str	r3, [r4, #0]
    6624:	2a02      	cmp	r2, #2
    6626:	83a6      	strh	r6, [r4, #28]
    6628:	6863      	ldr	r3, [r4, #4]
    662a:	d95a      	bls.n	66e2 <StepDown_SetControl.isra.4+0x17a>
    662c:	6822      	ldr	r2, [r4, #0]
    662e:	0212      	lsls	r2, r2, #8
    6630:	6062      	str	r2, [r4, #4]
    6632:	6822      	ldr	r2, [r4, #0]
    6634:	42b2      	cmp	r2, r6
    6636:	d004      	beq.n	6642 <StepDown_SetControl.isra.4+0xda>
    6638:	6862      	ldr	r2, [r4, #4]
    663a:	b29b      	uxth	r3, r3
    663c:	4293      	cmp	r3, r2
    663e:	f000 808c 	beq.w	675a <StepDown_SetControl.isra.4+0x1f2>
    6642:	6863      	ldr	r3, [r4, #4]
    6644:	60e3      	str	r3, [r4, #12]
    6646:	6860      	ldr	r0, [r4, #4]
    6648:	4b69      	ldr	r3, [pc, #420]	; (67f0 <StepDown_SetControl.isra.4+0x288>)
    664a:	4798      	blx	r3
    664c:	6060      	str	r0, [r4, #4]
    664e:	6863      	ldr	r3, [r4, #4]
    6650:	f898 2003 	ldrb.w	r2, [r8, #3]
    6654:	121b      	asrs	r3, r3, #8
    6656:	60a3      	str	r3, [r4, #8]
    6658:	6863      	ldr	r3, [r4, #4]
    665a:	f8c4 305a 	str.w	r3, [r4, #90]	; 0x5a
    665e:	b12a      	cbz	r2, 666c <StepDown_SetControl.isra.4+0x104>
    6660:	8be3      	ldrh	r3, [r4, #30]
    6662:	f898 1004 	ldrb.w	r1, [r8, #4]
    6666:	b29b      	uxth	r3, r3
    6668:	4299      	cmp	r1, r3
    666a:	d067      	beq.n	673c <StepDown_SetControl.isra.4+0x1d4>
    666c:	b007      	add	sp, #28
    666e:	e8bd 8ff0 	ldmia.w	sp!, {r4, r5, r6, r7, r8, r9, sl, fp, pc}
    6672:	f894 3050 	ldrb.w	r3, [r4, #80]	; 0x50
    6676:	42ab      	cmp	r3, r5
    6678:	dc56      	bgt.n	6728 <StepDown_SetControl.isra.4+0x1c0>
    667a:	f8b8 3000 	ldrh.w	r3, [r8]
    667e:	f5b3 7faf 	cmp.w	r3, #350	; 0x15e
    6682:	d910      	bls.n	66a6 <StepDown_SetControl.isra.4+0x13e>
    6684:	2320      	movs	r3, #32
    6686:	f889 304f 	strb.w	r3, [r9, #79]	; 0x4f
    668a:	f889 b050 	strb.w	fp, [r9, #80]	; 0x50
    668e:	f889 324f 	strb.w	r3, [r9, #591]	; 0x24f
    6692:	f889 b250 	strb.w	fp, [r9, #592]	; 0x250
    6696:	f889 344f 	strb.w	r3, [r9, #1103]	; 0x44f
    669a:	f889 b450 	strb.w	fp, [r9, #1104]	; 0x450
    669e:	f889 364f 	strb.w	r3, [r9, #1615]	; 0x64f
    66a2:	f889 b650 	strb.w	fp, [r9, #1616]	; 0x650
    66a6:	f894 3050 	ldrb.w	r3, [r4, #80]	; 0x50
    66aa:	f1c3 0304 	rsb	r3, r3, #4
    66ae:	b2db      	uxtb	r3, r3
    66b0:	f884 304e 	strb.w	r3, [r4, #78]	; 0x4e
    66b4:	6823      	ldr	r3, [r4, #0]
    66b6:	f894 104e 	ldrb.w	r1, [r4, #78]	; 0x4e
    66ba:	6822      	ldr	r2, [r4, #0]
    66bc:	1af3      	subs	r3, r6, r3
    66be:	410b      	asrs	r3, r1
    66c0:	4413      	add	r3, r2
    66c2:	6023      	str	r3, [r4, #0]
    66c4:	f894 304f 	ldrb.w	r3, [r4, #79]	; 0x4f
    66c8:	bb3b      	cbnz	r3, 671a <StepDown_SetControl.isra.4+0x1b2>
    66ca:	2300      	movs	r3, #0
    66cc:	f888 3002 	strb.w	r3, [r8, #2]
    66d0:	6823      	ldr	r3, [r4, #0]
    66d2:	9a01      	ldr	r2, [sp, #4]
    66d4:	429a      	cmp	r2, r3
    66d6:	d099      	beq.n	660c <StepDown_SetControl.isra.4+0xa4>
    66d8:	9a02      	ldr	r2, [sp, #8]
    66da:	83a6      	strh	r6, [r4, #28]
    66dc:	2a02      	cmp	r2, #2
    66de:	6863      	ldr	r3, [r4, #4]
    66e0:	d8a4      	bhi.n	662c <StepDown_SetControl.isra.4+0xc4>
    66e2:	6821      	ldr	r1, [r4, #0]
    66e4:	6822      	ldr	r2, [r4, #0]
    66e6:	9205      	str	r2, [sp, #20]
    66e8:	f3c1 210f 	ubfx	r1, r1, #8, #16
    66ec:	eb07 2e07 	add.w	lr, r7, r7, lsl #8
    66f0:	1c4a      	adds	r2, r1, #1
    66f2:	f8d4 c000 	ldr.w	ip, [r4]
    66f6:	483f      	ldr	r0, [pc, #252]	; (67f4 <StepDown_SetControl.isra.4+0x28c>)
    66f8:	4472      	add	r2, lr
    66fa:	4471      	add	r1, lr
    66fc:	f64f 7eff 	movw	lr, #65535	; 0xffff
    6700:	45f4      	cmp	ip, lr
    6702:	f830 2012 	ldrh.w	r2, [r0, r2, lsl #1]
    6706:	f830 1011 	ldrh.w	r1, [r0, r1, lsl #1]
    670a:	d03a      	beq.n	6782 <StepDown_SetControl.isra.4+0x21a>
    670c:	f89d 0014 	ldrb.w	r0, [sp, #20]
    6710:	1a52      	subs	r2, r2, r1
    6712:	0209      	lsls	r1, r1, #8
    6714:	fb00 1202 	mla	r2, r0, r2, r1
    6718:	e78a      	b.n	6630 <StepDown_SetControl.isra.4+0xc8>
    671a:	f894 304f 	ldrb.w	r3, [r4, #79]	; 0x4f
    671e:	3b01      	subs	r3, #1
    6720:	b2db      	uxtb	r3, r3
    6722:	f884 304f 	strb.w	r3, [r4, #79]	; 0x4f
    6726:	e7d0      	b.n	66ca <StepDown_SetControl.isra.4+0x162>
    6728:	f894 304f 	ldrb.w	r3, [r4, #79]	; 0x4f
    672c:	2b00      	cmp	r3, #0
    672e:	d1ba      	bne.n	66a6 <StepDown_SetControl.isra.4+0x13e>
    6730:	f8b8 3000 	ldrh.w	r3, [r8]
    6734:	f5b3 7faf 	cmp.w	r3, #350	; 0x15e
    6738:	d9b5      	bls.n	66a6 <StepDown_SetControl.isra.4+0x13e>
    673a:	e7a3      	b.n	6684 <StepDown_SetControl.isra.4+0x11c>
    673c:	2a01      	cmp	r2, #1
    673e:	f898 3005 	ldrb.w	r3, [r8, #5]
    6742:	d932      	bls.n	67aa <StepDown_SetControl.isra.4+0x242>
    6744:	2200      	movs	r2, #0
    6746:	f8c8 2008 	str.w	r2, [r8, #8]
    674a:	2b00      	cmp	r3, #0
    674c:	d08e      	beq.n	666c <StepDown_SetControl.isra.4+0x104>
    674e:	3b01      	subs	r3, #1
    6750:	f888 3005 	strb.w	r3, [r8, #5]
    6754:	b007      	add	sp, #28
    6756:	e8bd 8ff0 	ldmia.w	sp!, {r4, r5, r6, r7, r8, r9, sl, fp, pc}
    675a:	9b03      	ldr	r3, [sp, #12]
    675c:	9a04      	ldr	r2, [sp, #16]
    675e:	3301      	adds	r3, #1
    6760:	429a      	cmp	r2, r3
    6762:	9303      	str	r3, [sp, #12]
    6764:	f47f af2f 	bne.w	65c6 <StepDown_SetControl.isra.4+0x5e>
    6768:	e76b      	b.n	6642 <StepDown_SetControl.isra.4+0xda>
    676a:	f894 303e 	ldrb.w	r3, [r4, #62]	; 0x3e
    676e:	2b1f      	cmp	r3, #31
    6770:	f63f af15 	bhi.w	659e <StepDown_SetControl.isra.4+0x36>
    6774:	f894 303e 	ldrb.w	r3, [r4, #62]	; 0x3e
    6778:	3301      	adds	r3, #1
    677a:	b2db      	uxtb	r3, r3
    677c:	f884 303e 	strb.w	r3, [r4, #62]	; 0x3e
    6780:	e70d      	b.n	659e <StepDown_SetControl.isra.4+0x36>
    6782:	f06f 427f 	mvn.w	r2, #4278190080	; 0xff000000
    6786:	e753      	b.n	6630 <StepDown_SetControl.isra.4+0xc8>
    6788:	6823      	ldr	r3, [r4, #0]
    678a:	6822      	ldr	r2, [r4, #0]
    678c:	1af3      	subs	r3, r6, r3
    678e:	bf48      	it	mi
    6790:	333f      	addmi	r3, #63	; 0x3f
    6792:	eb02 13a3 	add.w	r3, r2, r3, asr #6
    6796:	2106      	movs	r1, #6
    6798:	2200      	movs	r2, #0
    679a:	6023      	str	r3, [r4, #0]
    679c:	f888 2002 	strb.w	r2, [r8, #2]
    67a0:	f884 204f 	strb.w	r2, [r4, #79]	; 0x4f
    67a4:	f884 104e 	strb.w	r1, [r4, #78]	; 0x4e
    67a8:	e792      	b.n	66d0 <StepDown_SetControl.isra.4+0x168>
    67aa:	2b00      	cmp	r3, #0
    67ac:	f43f af5e 	beq.w	666c <StepDown_SetControl.isra.4+0x104>
    67b0:	2200      	movs	r2, #0
    67b2:	f8c8 2008 	str.w	r2, [r8, #8]
    67b6:	e7ca      	b.n	674e <StepDown_SetControl.isra.4+0x1e6>
    67b8:	f8b8 3000 	ldrh.w	r3, [r8]
    67bc:	f5b3 7faf 	cmp.w	r3, #350	; 0x15e
    67c0:	f67f af10 	bls.w	65e4 <StepDown_SetControl.isra.4+0x7c>
    67c4:	6823      	ldr	r3, [r4, #0]
    67c6:	6822      	ldr	r2, [r4, #0]
    67c8:	1af3      	subs	r3, r6, r3
    67ca:	bf48      	it	mi
    67cc:	330f      	addmi	r3, #15
    67ce:	eb02 1323 	add.w	r3, r2, r3, asr #4
    67d2:	6023      	str	r3, [r4, #0]
    67d4:	2100      	movs	r1, #0
    67d6:	2204      	movs	r2, #4
    67d8:	2301      	movs	r3, #1
    67da:	f884 104f 	strb.w	r1, [r4, #79]	; 0x4f
    67de:	f888 3002 	strb.w	r3, [r8, #2]
    67e2:	f884 204e 	strb.w	r2, [r4, #78]	; 0x4e
    67e6:	e773      	b.n	66d0 <StepDown_SetControl.isra.4+0x168>
    67e8:	2000ee34 	.word	0x2000ee34
    67ec:	0000b8f5 	.word	0x0000b8f5
    67f0:	0000b429 	.word	0x0000b429
    67f4:	000113b0 	.word	0x000113b0
    67f8:	20003624 	.word	0x20003624
    67fc:	20002204 	.word	0x20002204

00006800 <StepDown_ChannelEnable_Ch4>:
    6800:	4b22      	ldr	r3, [pc, #136]	; (688c <StepDown_ChannelEnable_Ch4+0x8c>)
    6802:	eb03 2241 	add.w	r2, r3, r1, lsl #9
    6806:	f892 205e 	ldrb.w	r2, [r2, #94]	; 0x5e
    680a:	b158      	cbz	r0, 6824 <StepDown_ChannelEnable_Ch4+0x24>
    680c:	b2d2      	uxtb	r2, r2
    680e:	00c9      	lsls	r1, r1, #3
    6810:	2a00      	cmp	r2, #0
    6812:	bf08      	it	eq
    6814:	3101      	addeq	r1, #1
    6816:	eb03 1381 	add.w	r3, r3, r1, lsl #6
    681a:	3360      	adds	r3, #96	; 0x60
    681c:	f8d3 3002 	ldr.w	r3, [r3, #2]
    6820:	2b1e      	cmp	r3, #30
    6822:	dc1e      	bgt.n	6862 <StepDown_ChannelEnable_Ch4+0x62>
    6824:	b410      	push	{r4}
    6826:	4a1a      	ldr	r2, [pc, #104]	; (6890 <StepDown_ChannelEnable_Ch4+0x90>)
    6828:	4b1a      	ldr	r3, [pc, #104]	; (6894 <StepDown_ChannelEnable_Ch4+0x94>)
    682a:	481b      	ldr	r0, [pc, #108]	; (6898 <StepDown_ChannelEnable_Ch4+0x98>)
    682c:	6090      	str	r0, [r2, #8]
    682e:	491b      	ldr	r1, [pc, #108]	; (689c <StepDown_ChannelEnable_Ch4+0x9c>)
    6830:	4c1b      	ldr	r4, [pc, #108]	; (68a0 <StepDown_ChannelEnable_Ch4+0xa0>)
    6832:	f44f 1200 	mov.w	r2, #2097152	; 0x200000
    6836:	f04f 4080 	mov.w	r0, #1073741824	; 0x40000000
    683a:	619a      	str	r2, [r3, #24]
    683c:	609a      	str	r2, [r3, #8]
    683e:	6298      	str	r0, [r3, #40]	; 0x28
    6840:	6299      	str	r1, [r3, #40]	; 0x28
    6842:	f893 2055 	ldrb.w	r2, [r3, #85]	; 0x55
    6846:	2102      	movs	r1, #2
    6848:	f002 02fe 	and.w	r2, r2, #254	; 0xfe
    684c:	f04f 4040 	mov.w	r0, #3221225472	; 0xc0000000
    6850:	f883 2055 	strb.w	r2, [r3, #85]	; 0x55
    6854:	6099      	str	r1, [r3, #8]
    6856:	629c      	str	r4, [r3, #40]	; 0x28
    6858:	6298      	str	r0, [r3, #40]	; 0x28
    685a:	6159      	str	r1, [r3, #20]
    685c:	f85d 4b04 	ldr.w	r4, [sp], #4
    6860:	4770      	bx	lr
    6862:	4b0b      	ldr	r3, [pc, #44]	; (6890 <StepDown_ChannelEnable_Ch4+0x90>)
    6864:	4a0b      	ldr	r2, [pc, #44]	; (6894 <StepDown_ChannelEnable_Ch4+0x94>)
    6866:	490f      	ldr	r1, [pc, #60]	; (68a4 <StepDown_ChannelEnable_Ch4+0xa4>)
    6868:	6099      	str	r1, [r3, #8]
    686a:	f892 3055 	ldrb.w	r3, [r2, #85]	; 0x55
    686e:	f003 03fe 	and.w	r3, r3, #254	; 0xfe
    6872:	f043 0301 	orr.w	r3, r3, #1
    6876:	f882 3055 	strb.w	r3, [r2, #85]	; 0x55
    687a:	f892 303a 	ldrb.w	r3, [r2, #58]	; 0x3a
    687e:	f003 030f 	and.w	r3, r3, #15
    6882:	f043 0360 	orr.w	r3, r3, #96	; 0x60
    6886:	f882 303a 	strb.w	r3, [r2, #58]	; 0x3a
    688a:	4770      	bx	lr
    688c:	20002204 	.word	0x20002204
    6890:	42003800 	.word	0x42003800
    6894:	41008000 	.word	0x41008000
    6898:	01606800 	.word	0x01606800
    689c:	c0000020 	.word	0xc0000020
    68a0:	40000002 	.word	0x40000002
    68a4:	01606802 	.word	0x01606802

000068a8 <StepDown_ChannelEnable_Ch3>:
    68a8:	4b22      	ldr	r3, [pc, #136]	; (6934 <StepDown_ChannelEnable_Ch3+0x8c>)
    68aa:	eb03 2241 	add.w	r2, r3, r1, lsl #9
    68ae:	f892 205e 	ldrb.w	r2, [r2, #94]	; 0x5e
    68b2:	b158      	cbz	r0, 68cc <StepDown_ChannelEnable_Ch3+0x24>
    68b4:	b2d2      	uxtb	r2, r2
    68b6:	00c9      	lsls	r1, r1, #3
    68b8:	2a00      	cmp	r2, #0
    68ba:	bf08      	it	eq
    68bc:	3101      	addeq	r1, #1
    68be:	eb03 1381 	add.w	r3, r3, r1, lsl #6
    68c2:	3360      	adds	r3, #96	; 0x60
    68c4:	f8d3 3002 	ldr.w	r3, [r3, #2]
    68c8:	2b1e      	cmp	r3, #30
    68ca:	dc1d      	bgt.n	6908 <StepDown_ChannelEnable_Ch3+0x60>
    68cc:	b410      	push	{r4}
    68ce:	4a1a      	ldr	r2, [pc, #104]	; (6938 <StepDown_ChannelEnable_Ch3+0x90>)
    68d0:	4b1a      	ldr	r3, [pc, #104]	; (693c <StepDown_ChannelEnable_Ch3+0x94>)
    68d2:	481b      	ldr	r0, [pc, #108]	; (6940 <StepDown_ChannelEnable_Ch3+0x98>)
    68d4:	6110      	str	r0, [r2, #16]
    68d6:	491b      	ldr	r1, [pc, #108]	; (6944 <StepDown_ChannelEnable_Ch3+0x9c>)
    68d8:	4c1b      	ldr	r4, [pc, #108]	; (6948 <StepDown_ChannelEnable_Ch3+0xa0>)
    68da:	f04f 7280 	mov.w	r2, #16777216	; 0x1000000
    68de:	f04f 4080 	mov.w	r0, #1073741824	; 0x40000000
    68e2:	619a      	str	r2, [r3, #24]
    68e4:	609a      	str	r2, [r3, #8]
    68e6:	6298      	str	r0, [r3, #40]	; 0x28
    68e8:	6299      	str	r1, [r3, #40]	; 0x28
    68ea:	f893 2058 	ldrb.w	r2, [r3, #88]	; 0x58
    68ee:	f04f 7100 	mov.w	r1, #33554432	; 0x2000000
    68f2:	f002 02fe 	and.w	r2, r2, #254	; 0xfe
    68f6:	f883 2058 	strb.w	r2, [r3, #88]	; 0x58
    68fa:	6099      	str	r1, [r3, #8]
    68fc:	6298      	str	r0, [r3, #40]	; 0x28
    68fe:	629c      	str	r4, [r3, #40]	; 0x28
    6900:	6159      	str	r1, [r3, #20]
    6902:	f85d 4b04 	ldr.w	r4, [sp], #4
    6906:	4770      	bx	lr
    6908:	4b0b      	ldr	r3, [pc, #44]	; (6938 <StepDown_ChannelEnable_Ch3+0x90>)
    690a:	4a0c      	ldr	r2, [pc, #48]	; (693c <StepDown_ChannelEnable_Ch3+0x94>)
    690c:	490f      	ldr	r1, [pc, #60]	; (694c <StepDown_ChannelEnable_Ch3+0xa4>)
    690e:	6119      	str	r1, [r3, #16]
    6910:	f892 3058 	ldrb.w	r3, [r2, #88]	; 0x58
    6914:	f003 03fe 	and.w	r3, r3, #254	; 0xfe
    6918:	f043 0301 	orr.w	r3, r3, #1
    691c:	f882 3058 	strb.w	r3, [r2, #88]	; 0x58
    6920:	f892 303c 	ldrb.w	r3, [r2, #60]	; 0x3c
    6924:	f003 03f0 	and.w	r3, r3, #240	; 0xf0
    6928:	f043 0305 	orr.w	r3, r3, #5
    692c:	f882 303c 	strb.w	r3, [r2, #60]	; 0x3c
    6930:	4770      	bx	lr
    6932:	bf00      	nop
    6934:	20002204 	.word	0x20002204
    6938:	42003800 	.word	0x42003800
    693c:	41008000 	.word	0x41008000
    6940:	01606800 	.word	0x01606800
    6944:	c0000100 	.word	0xc0000100
    6948:	c0000200 	.word	0xc0000200
    694c:	01606802 	.word	0x01606802

00006950 <StepDown_ChannelEnable_Ch1>:
    6950:	4b23      	ldr	r3, [pc, #140]	; (69e0 <StepDown_ChannelEnable_Ch1+0x90>)
    6952:	eb03 2241 	add.w	r2, r3, r1, lsl #9
    6956:	f892 205e 	ldrb.w	r2, [r2, #94]	; 0x5e
    695a:	b158      	cbz	r0, 6974 <StepDown_ChannelEnable_Ch1+0x24>
    695c:	b2d2      	uxtb	r2, r2
    695e:	00c9      	lsls	r1, r1, #3
    6960:	2a00      	cmp	r2, #0
    6962:	bf08      	it	eq
    6964:	3101      	addeq	r1, #1
    6966:	eb03 1381 	add.w	r3, r3, r1, lsl #6
    696a:	3360      	adds	r3, #96	; 0x60
    696c:	f8d3 3002 	ldr.w	r3, [r3, #2]
    6970:	2b1e      	cmp	r3, #30
    6972:	dc20      	bgt.n	69b6 <StepDown_ChannelEnable_Ch1+0x66>
    6974:	b410      	push	{r4}
    6976:	4a1b      	ldr	r2, [pc, #108]	; (69e4 <StepDown_ChannelEnable_Ch1+0x94>)
    6978:	4b1b      	ldr	r3, [pc, #108]	; (69e8 <StepDown_ChannelEnable_Ch1+0x98>)
    697a:	481c      	ldr	r0, [pc, #112]	; (69ec <StepDown_ChannelEnable_Ch1+0x9c>)
    697c:	6150      	str	r0, [r2, #20]
    697e:	491c      	ldr	r1, [pc, #112]	; (69f0 <StepDown_ChannelEnable_Ch1+0xa0>)
    6980:	4c1c      	ldr	r4, [pc, #112]	; (69f4 <StepDown_ChannelEnable_Ch1+0xa4>)
    6982:	f44f 5200 	mov.w	r2, #8192	; 0x2000
    6986:	f04f 4040 	mov.w	r0, #3221225472	; 0xc0000000
    698a:	f8c3 2098 	str.w	r2, [r3, #152]	; 0x98
    698e:	f8c3 2088 	str.w	r2, [r3, #136]	; 0x88
    6992:	f8c3 10a8 	str.w	r1, [r3, #168]	; 0xa8
    6996:	f8c3 00a8 	str.w	r0, [r3, #168]	; 0xa8
    699a:	f893 20cd 	ldrb.w	r2, [r3, #205]	; 0xcd
    699e:	2180      	movs	r1, #128	; 0x80
    69a0:	f002 02fe 	and.w	r2, r2, #254	; 0xfe
    69a4:	f883 20cd 	strb.w	r2, [r3, #205]	; 0xcd
    69a8:	6099      	str	r1, [r3, #8]
    69aa:	629c      	str	r4, [r3, #40]	; 0x28
    69ac:	6298      	str	r0, [r3, #40]	; 0x28
    69ae:	6159      	str	r1, [r3, #20]
    69b0:	f85d 4b04 	ldr.w	r4, [sp], #4
    69b4:	4770      	bx	lr
    69b6:	4b0b      	ldr	r3, [pc, #44]	; (69e4 <StepDown_ChannelEnable_Ch1+0x94>)
    69b8:	4a0b      	ldr	r2, [pc, #44]	; (69e8 <StepDown_ChannelEnable_Ch1+0x98>)
    69ba:	490f      	ldr	r1, [pc, #60]	; (69f8 <StepDown_ChannelEnable_Ch1+0xa8>)
    69bc:	6159      	str	r1, [r3, #20]
    69be:	f892 30cd 	ldrb.w	r3, [r2, #205]	; 0xcd
    69c2:	f003 03fe 	and.w	r3, r3, #254	; 0xfe
    69c6:	f043 0301 	orr.w	r3, r3, #1
    69ca:	f882 30cd 	strb.w	r3, [r2, #205]	; 0xcd
    69ce:	f892 30b6 	ldrb.w	r3, [r2, #182]	; 0xb6
    69d2:	f003 030f 	and.w	r3, r3, #15
    69d6:	f043 0350 	orr.w	r3, r3, #80	; 0x50
    69da:	f882 30b6 	strb.w	r3, [r2, #182]	; 0xb6
    69de:	4770      	bx	lr
    69e0:	20002204 	.word	0x20002204
    69e4:	42003800 	.word	0x42003800
    69e8:	41008000 	.word	0x41008000
    69ec:	01606800 	.word	0x01606800
    69f0:	40002000 	.word	0x40002000
    69f4:	40000080 	.word	0x40000080
    69f8:	01606802 	.word	0x01606802

000069fc <StepDown_ChannelEnable_Ch2>:
    69fc:	4b22      	ldr	r3, [pc, #136]	; (6a88 <StepDown_ChannelEnable_Ch2+0x8c>)
    69fe:	eb03 2241 	add.w	r2, r3, r1, lsl #9
    6a02:	f892 205e 	ldrb.w	r2, [r2, #94]	; 0x5e
    6a06:	b158      	cbz	r0, 6a20 <StepDown_ChannelEnable_Ch2+0x24>
    6a08:	b2d2      	uxtb	r2, r2
    6a0a:	00c9      	lsls	r1, r1, #3
    6a0c:	2a00      	cmp	r2, #0
    6a0e:	bf08      	it	eq
    6a10:	3101      	addeq	r1, #1
    6a12:	eb03 1381 	add.w	r3, r3, r1, lsl #6
    6a16:	3360      	adds	r3, #96	; 0x60
    6a18:	f8d3 3002 	ldr.w	r3, [r3, #2]
    6a1c:	2b1e      	cmp	r3, #30
    6a1e:	dc1e      	bgt.n	6a5e <StepDown_ChannelEnable_Ch2+0x62>
    6a20:	b410      	push	{r4}
    6a22:	4a1a      	ldr	r2, [pc, #104]	; (6a8c <StepDown_ChannelEnable_Ch2+0x90>)
    6a24:	4b1a      	ldr	r3, [pc, #104]	; (6a90 <StepDown_ChannelEnable_Ch2+0x94>)
    6a26:	481b      	ldr	r0, [pc, #108]	; (6a94 <StepDown_ChannelEnable_Ch2+0x98>)
    6a28:	60d0      	str	r0, [r2, #12]
    6a2a:	491b      	ldr	r1, [pc, #108]	; (6a98 <StepDown_ChannelEnable_Ch2+0x9c>)
    6a2c:	4c1b      	ldr	r4, [pc, #108]	; (6a9c <StepDown_ChannelEnable_Ch2+0xa0>)
    6a2e:	f44f 2200 	mov.w	r2, #524288	; 0x80000
    6a32:	f04f 4080 	mov.w	r0, #1073741824	; 0x40000000
    6a36:	619a      	str	r2, [r3, #24]
    6a38:	609a      	str	r2, [r3, #8]
    6a3a:	6298      	str	r0, [r3, #40]	; 0x28
    6a3c:	6299      	str	r1, [r3, #40]	; 0x28
    6a3e:	f893 2053 	ldrb.w	r2, [r3, #83]	; 0x53
    6a42:	2108      	movs	r1, #8
    6a44:	f002 02fe 	and.w	r2, r2, #254	; 0xfe
    6a48:	f04f 4040 	mov.w	r0, #3221225472	; 0xc0000000
    6a4c:	f883 2053 	strb.w	r2, [r3, #83]	; 0x53
    6a50:	6099      	str	r1, [r3, #8]
    6a52:	629c      	str	r4, [r3, #40]	; 0x28
    6a54:	6298      	str	r0, [r3, #40]	; 0x28
    6a56:	6159      	str	r1, [r3, #20]
    6a58:	f85d 4b04 	ldr.w	r4, [sp], #4
    6a5c:	4770      	bx	lr
    6a5e:	4b0b      	ldr	r3, [pc, #44]	; (6a8c <StepDown_ChannelEnable_Ch2+0x90>)
    6a60:	4a0b      	ldr	r2, [pc, #44]	; (6a90 <StepDown_ChannelEnable_Ch2+0x94>)
    6a62:	490f      	ldr	r1, [pc, #60]	; (6aa0 <StepDown_ChannelEnable_Ch2+0xa4>)
    6a64:	60d9      	str	r1, [r3, #12]
    6a66:	f892 3053 	ldrb.w	r3, [r2, #83]	; 0x53
    6a6a:	f003 03fe 	and.w	r3, r3, #254	; 0xfe
    6a6e:	f043 0301 	orr.w	r3, r3, #1
    6a72:	f882 3053 	strb.w	r3, [r2, #83]	; 0x53
    6a76:	f892 3039 	ldrb.w	r3, [r2, #57]	; 0x39
    6a7a:	f003 030f 	and.w	r3, r3, #15
    6a7e:	f043 0350 	orr.w	r3, r3, #80	; 0x50
    6a82:	f882 3039 	strb.w	r3, [r2, #57]	; 0x39
    6a86:	4770      	bx	lr
    6a88:	20002204 	.word	0x20002204
    6a8c:	42003800 	.word	0x42003800
    6a90:	41008000 	.word	0x41008000
    6a94:	01606800 	.word	0x01606800
    6a98:	c0000008 	.word	0xc0000008
    6a9c:	40000008 	.word	0x40000008
    6aa0:	01606802 	.word	0x01606802

00006aa4 <StepDown_InitPwmChannel1>:
    6aa4:	b4f0      	push	{r4, r5, r6, r7}
    6aa6:	4a18      	ldr	r2, [pc, #96]	; (6b08 <StepDown_InitPwmChannel1+0x64>)
    6aa8:	4918      	ldr	r1, [pc, #96]	; (6b0c <StepDown_InitPwmChannel1+0x68>)
    6aaa:	69d3      	ldr	r3, [r2, #28]
    6aac:	4c18      	ldr	r4, [pc, #96]	; (6b10 <StepDown_InitPwmChannel1+0x6c>)
    6aae:	f043 0310 	orr.w	r3, r3, #16
    6ab2:	2543      	movs	r5, #67	; 0x43
    6ab4:	2001      	movs	r0, #1
    6ab6:	61d3      	str	r3, [r2, #28]
    6ab8:	f8c4 50f4 	str.w	r5, [r4, #244]	; 0xf4
    6abc:	460a      	mov	r2, r1
    6abe:	6008      	str	r0, [r1, #0]
    6ac0:	6893      	ldr	r3, [r2, #8]
    6ac2:	f013 0301 	ands.w	r3, r3, #1
    6ac6:	d1fb      	bne.n	6ac0 <StepDown_InitPwmChannel1+0x1c>
    6ac8:	2101      	movs	r1, #1
    6aca:	6013      	str	r3, [r2, #0]
    6acc:	6291      	str	r1, [r2, #40]	; 0x28
    6ace:	6c14      	ldr	r4, [r2, #64]	; 0x40
    6ad0:	4910      	ldr	r1, [pc, #64]	; (6b14 <StepDown_InitPwmChannel1+0x70>)
    6ad2:	4f11      	ldr	r7, [pc, #68]	; (6b18 <StepDown_InitPwmChannel1+0x74>)
    6ad4:	f06f 407f 	mvn.w	r0, #4278190080	; 0xff000000
    6ad8:	f360 0417 	bfi	r4, r0, #0, #24
    6adc:	2602      	movs	r6, #2
    6ade:	f44f 7580 	mov.w	r5, #256	; 0x100
    6ae2:	2020      	movs	r0, #32
    6ae4:	6414      	str	r4, [r2, #64]	; 0x40
    6ae6:	6497      	str	r7, [r2, #72]	; 0x48
    6ae8:	63d6      	str	r6, [r2, #60]	; 0x3c
    6aea:	6215      	str	r5, [r2, #32]
    6aec:	f8c1 008c 	str.w	r0, [r1, #140]	; 0x8c
    6af0:	f3bf 8f4f 	dsb	sy
    6af4:	f3bf 8f6f 	isb	sy
    6af8:	f8c1 018c 	str.w	r0, [r1, #396]	; 0x18c
    6afc:	f881 3365 	strb.w	r3, [r1, #869]	; 0x365
    6b00:	bcf0      	pop	{r4, r5, r6, r7}
    6b02:	60c8      	str	r0, [r1, #12]
    6b04:	4770      	bx	lr
    6b06:	bf00      	nop
    6b08:	40000800 	.word	0x40000800
    6b0c:	42001000 	.word	0x42001000
    6b10:	40001c00 	.word	0x40001c00
    6b14:	e000e100 	.word	0xe000e100
    6b18:	00ffffe0 	.word	0x00ffffe0

00006b1c <StepDown_InitPwmChannel2>:
    6b1c:	b4f0      	push	{r4, r5, r6, r7}
    6b1e:	4a18      	ldr	r2, [pc, #96]	; (6b80 <StepDown_InitPwmChannel2+0x64>)
    6b20:	4918      	ldr	r1, [pc, #96]	; (6b84 <StepDown_InitPwmChannel2+0x68>)
    6b22:	6993      	ldr	r3, [r2, #24]
    6b24:	4c18      	ldr	r4, [pc, #96]	; (6b88 <StepDown_InitPwmChannel2+0x6c>)
    6b26:	f443 5380 	orr.w	r3, r3, #4096	; 0x1000
    6b2a:	2543      	movs	r5, #67	; 0x43
    6b2c:	2001      	movs	r0, #1
    6b2e:	6193      	str	r3, [r2, #24]
    6b30:	f8c4 50e4 	str.w	r5, [r4, #228]	; 0xe4
    6b34:	460a      	mov	r2, r1
    6b36:	6008      	str	r0, [r1, #0]
    6b38:	6893      	ldr	r3, [r2, #8]
    6b3a:	f013 0301 	ands.w	r3, r3, #1
    6b3e:	d1fb      	bne.n	6b38 <StepDown_InitPwmChannel2+0x1c>
    6b40:	2101      	movs	r1, #1
    6b42:	6013      	str	r3, [r2, #0]
    6b44:	6291      	str	r1, [r2, #40]	; 0x28
    6b46:	6c14      	ldr	r4, [r2, #64]	; 0x40
    6b48:	4910      	ldr	r1, [pc, #64]	; (6b8c <StepDown_InitPwmChannel2+0x70>)
    6b4a:	4f11      	ldr	r7, [pc, #68]	; (6b90 <StepDown_InitPwmChannel2+0x74>)
    6b4c:	f06f 407f 	mvn.w	r0, #4278190080	; 0xff000000
    6b50:	f360 0417 	bfi	r4, r0, #0, #24
    6b54:	2602      	movs	r6, #2
    6b56:	f44f 7580 	mov.w	r5, #256	; 0x100
    6b5a:	f04f 5080 	mov.w	r0, #268435456	; 0x10000000
    6b5e:	6414      	str	r4, [r2, #64]	; 0x40
    6b60:	6517      	str	r7, [r2, #80]	; 0x50
    6b62:	63d6      	str	r6, [r2, #60]	; 0x3c
    6b64:	6215      	str	r5, [r2, #32]
    6b66:	f8c1 0088 	str.w	r0, [r1, #136]	; 0x88
    6b6a:	f3bf 8f4f 	dsb	sy
    6b6e:	f3bf 8f6f 	isb	sy
    6b72:	f8c1 0188 	str.w	r0, [r1, #392]	; 0x188
    6b76:	f881 335c 	strb.w	r3, [r1, #860]	; 0x35c
    6b7a:	bcf0      	pop	{r4, r5, r6, r7}
    6b7c:	6088      	str	r0, [r1, #8]
    6b7e:	4770      	bx	lr
    6b80:	40000800 	.word	0x40000800
    6b84:	41018000 	.word	0x41018000
    6b88:	40001c00 	.word	0x40001c00
    6b8c:	e000e100 	.word	0xe000e100
    6b90:	00ffffe0 	.word	0x00ffffe0

00006b94 <StepDown_InitPwmChannel3>:
    6b94:	b470      	push	{r4, r5, r6}
    6b96:	4a18      	ldr	r2, [pc, #96]	; (6bf8 <StepDown_InitPwmChannel3+0x64>)
    6b98:	4918      	ldr	r1, [pc, #96]	; (6bfc <StepDown_InitPwmChannel3+0x68>)
    6b9a:	69d3      	ldr	r3, [r2, #28]
    6b9c:	4c18      	ldr	r4, [pc, #96]	; (6c00 <StepDown_InitPwmChannel3+0x6c>)
    6b9e:	f043 0308 	orr.w	r3, r3, #8
    6ba2:	2543      	movs	r5, #67	; 0x43
    6ba4:	2001      	movs	r0, #1
    6ba6:	61d3      	str	r3, [r2, #28]
    6ba8:	f8c4 50f4 	str.w	r5, [r4, #244]	; 0xf4
    6bac:	460a      	mov	r2, r1
    6bae:	6008      	str	r0, [r1, #0]
    6bb0:	6893      	ldr	r3, [r2, #8]
    6bb2:	f013 0301 	ands.w	r3, r3, #1
    6bb6:	d1fb      	bne.n	6bb0 <StepDown_InitPwmChannel3+0x1c>
    6bb8:	2101      	movs	r1, #1
    6bba:	6013      	str	r3, [r2, #0]
    6bbc:	6291      	str	r1, [r2, #40]	; 0x28
    6bbe:	6c14      	ldr	r4, [r2, #64]	; 0x40
    6bc0:	4910      	ldr	r1, [pc, #64]	; (6c04 <StepDown_InitPwmChannel3+0x70>)
    6bc2:	f64f 70ff 	movw	r0, #65535	; 0xffff
    6bc6:	f360 0417 	bfi	r4, r0, #0, #24
    6bca:	f64f 76e0 	movw	r6, #65504	; 0xffe0
    6bce:	2002      	movs	r0, #2
    6bd0:	f44f 7580 	mov.w	r5, #256	; 0x100
    6bd4:	6414      	str	r4, [r2, #64]	; 0x40
    6bd6:	64d6      	str	r6, [r2, #76]	; 0x4c
    6bd8:	63d0      	str	r0, [r2, #60]	; 0x3c
    6bda:	6215      	str	r5, [r2, #32]
    6bdc:	f8c1 008c 	str.w	r0, [r1, #140]	; 0x8c
    6be0:	f3bf 8f4f 	dsb	sy
    6be4:	f3bf 8f6f 	isb	sy
    6be8:	f8c1 018c 	str.w	r0, [r1, #396]	; 0x18c
    6bec:	f881 3361 	strb.w	r3, [r1, #865]	; 0x361
    6bf0:	bc70      	pop	{r4, r5, r6}
    6bf2:	60c8      	str	r0, [r1, #12]
    6bf4:	4770      	bx	lr
    6bf6:	bf00      	nop
    6bf8:	40000800 	.word	0x40000800
    6bfc:	42000c00 	.word	0x42000c00
    6c00:	40001c00 	.word	0x40001c00
    6c04:	e000e100 	.word	0xe000e100

00006c08 <StepDown_InitPwmChannel4>:
    6c08:	b4f0      	push	{r4, r5, r6, r7}
    6c0a:	4a19      	ldr	r2, [pc, #100]	; (6c70 <StepDown_InitPwmChannel4+0x68>)
    6c0c:	4919      	ldr	r1, [pc, #100]	; (6c74 <StepDown_InitPwmChannel4+0x6c>)
    6c0e:	6993      	ldr	r3, [r2, #24]
    6c10:	4c19      	ldr	r4, [pc, #100]	; (6c78 <StepDown_InitPwmChannel4+0x70>)
    6c12:	f443 6300 	orr.w	r3, r3, #2048	; 0x800
    6c16:	2543      	movs	r5, #67	; 0x43
    6c18:	2001      	movs	r0, #1
    6c1a:	6193      	str	r3, [r2, #24]
    6c1c:	f8c4 50e4 	str.w	r5, [r4, #228]	; 0xe4
    6c20:	460a      	mov	r2, r1
    6c22:	6008      	str	r0, [r1, #0]
    6c24:	6893      	ldr	r3, [r2, #8]
    6c26:	f013 0301 	ands.w	r3, r3, #1
    6c2a:	d1fb      	bne.n	6c24 <StepDown_InitPwmChannel4+0x1c>
    6c2c:	2101      	movs	r1, #1
    6c2e:	6013      	str	r3, [r2, #0]
    6c30:	6291      	str	r1, [r2, #40]	; 0x28
    6c32:	6c14      	ldr	r4, [r2, #64]	; 0x40
    6c34:	4911      	ldr	r1, [pc, #68]	; (6c7c <StepDown_InitPwmChannel4+0x74>)
    6c36:	f64f 70ff 	movw	r0, #65535	; 0xffff
    6c3a:	f360 0417 	bfi	r4, r0, #0, #24
    6c3e:	f64f 77e0 	movw	r7, #65504	; 0xffe0
    6c42:	2602      	movs	r6, #2
    6c44:	f44f 7580 	mov.w	r5, #256	; 0x100
    6c48:	f44f 1000 	mov.w	r0, #2097152	; 0x200000
    6c4c:	6414      	str	r4, [r2, #64]	; 0x40
    6c4e:	6497      	str	r7, [r2, #72]	; 0x48
    6c50:	63d6      	str	r6, [r2, #60]	; 0x3c
    6c52:	6215      	str	r5, [r2, #32]
    6c54:	f8c1 0088 	str.w	r0, [r1, #136]	; 0x88
    6c58:	f3bf 8f4f 	dsb	sy
    6c5c:	f3bf 8f6f 	isb	sy
    6c60:	f8c1 0188 	str.w	r0, [r1, #392]	; 0x188
    6c64:	f881 3355 	strb.w	r3, [r1, #853]	; 0x355
    6c68:	bcf0      	pop	{r4, r5, r6, r7}
    6c6a:	6088      	str	r0, [r1, #8]
    6c6c:	4770      	bx	lr
    6c6e:	bf00      	nop
    6c70:	40000800 	.word	0x40000800
    6c74:	41016000 	.word	0x41016000
    6c78:	40001c00 	.word	0x40001c00
    6c7c:	e000e100 	.word	0xe000e100

00006c80 <StepDown_InitChannel1>:
    6c80:	b5f8      	push	{r3, r4, r5, r6, r7, lr}
    6c82:	4a38      	ldr	r2, [pc, #224]	; (6d64 <StepDown_InitChannel1+0xe4>)
    6c84:	4938      	ldr	r1, [pc, #224]	; (6d68 <StepDown_InitChannel1+0xe8>)
    6c86:	6993      	ldr	r3, [r2, #24]
    6c88:	4c38      	ldr	r4, [pc, #224]	; (6d6c <StepDown_InitChannel1+0xec>)
    6c8a:	f443 4380 	orr.w	r3, r3, #16384	; 0x4000
    6c8e:	2543      	movs	r5, #67	; 0x43
    6c90:	2001      	movs	r0, #1
    6c92:	6193      	str	r3, [r2, #24]
    6c94:	f8c4 50e8 	str.w	r5, [r4, #232]	; 0xe8
    6c98:	460a      	mov	r2, r1
    6c9a:	6008      	str	r0, [r1, #0]
    6c9c:	6913      	ldr	r3, [r2, #16]
    6c9e:	f013 0301 	ands.w	r3, r3, #1
    6ca2:	d1fb      	bne.n	6c9c <StepDown_InitChannel1+0x1c>
    6ca4:	f242 1023 	movw	r0, #8483	; 0x2123
    6ca8:	2503      	movs	r5, #3
    6caa:	f44f 7446 	mov.w	r4, #792	; 0x318
    6cae:	2104      	movs	r1, #4
    6cb0:	6013      	str	r3, [r2, #0]
    6cb2:	7315      	strb	r5, [r2, #12]
    6cb4:	8614      	strh	r4, [r2, #48]	; 0x30
    6cb6:	80d0      	strh	r0, [r2, #6]
    6cb8:	7151      	strb	r1, [r2, #5]
    6cba:	6813      	ldr	r3, [r2, #0]
    6cbc:	492c      	ldr	r1, [pc, #176]	; (6d70 <StepDown_InitChannel1+0xf0>)
    6cbe:	4f2d      	ldr	r7, [pc, #180]	; (6d74 <StepDown_InitChannel1+0xf4>)
    6cc0:	4e2d      	ldr	r6, [pc, #180]	; (6d78 <StepDown_InitChannel1+0xf8>)
    6cc2:	4d2e      	ldr	r5, [pc, #184]	; (6d7c <StepDown_InitChannel1+0xfc>)
    6cc4:	f043 0302 	orr.w	r3, r3, #2
    6cc8:	6013      	str	r3, [r2, #0]
    6cca:	4788      	blx	r1
    6ccc:	4b2c      	ldr	r3, [pc, #176]	; (6d80 <StepDown_InitChannel1+0x100>)
    6cce:	4a2d      	ldr	r2, [pc, #180]	; (6d84 <StepDown_InitChannel1+0x104>)
    6cd0:	6ad9      	ldr	r1, [r3, #44]	; 0x2c
    6cd2:	4824      	ldr	r0, [pc, #144]	; (6d64 <StepDown_InitChannel1+0xe4>)
    6cd4:	f8df c094 	ldr.w	ip, [pc, #148]	; 6d6c <StepDown_InitChannel1+0xec>
    6cd8:	f8df e0ac 	ldr.w	lr, [pc, #172]	; 6d88 <StepDown_InitChannel1+0x108>
    6cdc:	f041 0187 	orr.w	r1, r1, #135	; 0x87
    6ce0:	62d9      	str	r1, [r3, #44]	; 0x2c
    6ce2:	f44f 7106 	mov.w	r1, #536	; 0x218
    6ce6:	6211      	str	r1, [r2, #32]
    6ce8:	f240 2177 	movw	r1, #631	; 0x277
    6cec:	6291      	str	r1, [r2, #40]	; 0x28
    6cee:	2102      	movs	r1, #2
    6cf0:	f8c2 1124 	str.w	r1, [r2, #292]	; 0x124
    6cf4:	2101      	movs	r1, #1
    6cf6:	f8c2 11dc 	str.w	r1, [r2, #476]	; 0x1dc
    6cfa:	6051      	str	r1, [r2, #4]
    6cfc:	69c2      	ldr	r2, [r0, #28]
    6cfe:	f442 4280 	orr.w	r2, r2, #16384	; 0x4000
    6d02:	61c2      	str	r2, [r0, #28]
    6d04:	2480      	movs	r4, #128	; 0x80
    6d06:	2243      	movs	r2, #67	; 0x43
    6d08:	f04f 4040 	mov.w	r0, #3221225472	; 0xc0000000
    6d0c:	f8cc 2104 	str.w	r2, [ip, #260]	; 0x104
    6d10:	f8c7 e014 	str.w	lr, [r7, #20]
    6d14:	609c      	str	r4, [r3, #8]
    6d16:	629e      	str	r6, [r3, #40]	; 0x28
    6d18:	6298      	str	r0, [r3, #40]	; 0x28
    6d1a:	f893 2047 	ldrb.w	r2, [r3, #71]	; 0x47
    6d1e:	f002 02fb 	and.w	r2, r2, #251	; 0xfb
    6d22:	f883 2047 	strb.w	r2, [r3, #71]	; 0x47
    6d26:	f893 2047 	ldrb.w	r2, [r3, #71]	; 0x47
    6d2a:	f44f 5100 	mov.w	r1, #8192	; 0x2000
    6d2e:	f002 02fe 	and.w	r2, r2, #254	; 0xfe
    6d32:	f883 2047 	strb.w	r2, [r3, #71]	; 0x47
    6d36:	615c      	str	r4, [r3, #20]
    6d38:	f8c3 1088 	str.w	r1, [r3, #136]	; 0x88
    6d3c:	f8c3 50a8 	str.w	r5, [r3, #168]	; 0xa8
    6d40:	f8c3 00a8 	str.w	r0, [r3, #168]	; 0xa8
    6d44:	f893 20cd 	ldrb.w	r2, [r3, #205]	; 0xcd
    6d48:	f002 02fb 	and.w	r2, r2, #251	; 0xfb
    6d4c:	f883 20cd 	strb.w	r2, [r3, #205]	; 0xcd
    6d50:	f893 20cd 	ldrb.w	r2, [r3, #205]	; 0xcd
    6d54:	f002 02fe 	and.w	r2, r2, #254	; 0xfe
    6d58:	f883 20cd 	strb.w	r2, [r3, #205]	; 0xcd
    6d5c:	f8c3 1098 	str.w	r1, [r3, #152]	; 0x98
    6d60:	bdf8      	pop	{r3, r4, r5, r6, r7, pc}
    6d62:	bf00      	nop
    6d64:	40000800 	.word	0x40000800
    6d68:	4101c000 	.word	0x4101c000
    6d6c:	40001c00 	.word	0x40001c00
    6d70:	00006aa5 	.word	0x00006aa5
    6d74:	42003800 	.word	0x42003800
    6d78:	40000080 	.word	0x40000080
    6d7c:	40002000 	.word	0x40002000
    6d80:	41008000 	.word	0x41008000
    6d84:	4100e000 	.word	0x4100e000
    6d88:	01606800 	.word	0x01606800

00006d8c <StepDown_InitChannel2>:
    6d8c:	b5f8      	push	{r3, r4, r5, r6, r7, lr}
    6d8e:	4a31      	ldr	r2, [pc, #196]	; (6e54 <StepDown_InitChannel2+0xc8>)
    6d90:	4931      	ldr	r1, [pc, #196]	; (6e58 <StepDown_InitChannel2+0xcc>)
    6d92:	6953      	ldr	r3, [r2, #20]
    6d94:	4c31      	ldr	r4, [pc, #196]	; (6e5c <StepDown_InitChannel2+0xd0>)
    6d96:	f443 4300 	orr.w	r3, r3, #32768	; 0x8000
    6d9a:	2543      	movs	r5, #67	; 0x43
    6d9c:	2001      	movs	r0, #1
    6d9e:	6153      	str	r3, [r2, #20]
    6da0:	f8c4 50a4 	str.w	r5, [r4, #164]	; 0xa4
    6da4:	460a      	mov	r2, r1
    6da6:	6008      	str	r0, [r1, #0]
    6da8:	6913      	ldr	r3, [r2, #16]
    6daa:	f013 0301 	ands.w	r3, r3, #1
    6dae:	d1fb      	bne.n	6da8 <StepDown_InitChannel2+0x1c>
    6db0:	2404      	movs	r4, #4
    6db2:	2503      	movs	r5, #3
    6db4:	f44f 7046 	mov.w	r0, #792	; 0x318
    6db8:	f242 1123 	movw	r1, #8483	; 0x2123
    6dbc:	6013      	str	r3, [r2, #0]
    6dbe:	7315      	strb	r5, [r2, #12]
    6dc0:	8610      	strh	r0, [r2, #48]	; 0x30
    6dc2:	80d1      	strh	r1, [r2, #6]
    6dc4:	7154      	strb	r4, [r2, #5]
    6dc6:	6813      	ldr	r3, [r2, #0]
    6dc8:	4925      	ldr	r1, [pc, #148]	; (6e60 <StepDown_InitChannel2+0xd4>)
    6dca:	4f26      	ldr	r7, [pc, #152]	; (6e64 <StepDown_InitChannel2+0xd8>)
    6dcc:	4e26      	ldr	r6, [pc, #152]	; (6e68 <StepDown_InitChannel2+0xdc>)
    6dce:	f043 0302 	orr.w	r3, r3, #2
    6dd2:	6013      	str	r3, [r2, #0]
    6dd4:	4788      	blx	r1
    6dd6:	4b25      	ldr	r3, [pc, #148]	; (6e6c <StepDown_InitChannel2+0xe0>)
    6dd8:	4a25      	ldr	r2, [pc, #148]	; (6e70 <StepDown_InitChannel2+0xe4>)
    6dda:	6ad9      	ldr	r1, [r3, #44]	; 0x2c
    6ddc:	f8df e098 	ldr.w	lr, [pc, #152]	; 6e78 <StepDown_InitChannel2+0xec>
    6de0:	f441 0103 	orr.w	r1, r1, #8585216	; 0x830000
    6de4:	62d9      	str	r1, [r3, #44]	; 0x2c
    6de6:	f240 211d 	movw	r1, #541	; 0x21d
    6dea:	6311      	str	r1, [r2, #48]	; 0x30
    6dec:	f240 2175 	movw	r1, #629	; 0x275
    6df0:	6391      	str	r1, [r2, #56]	; 0x38
    6df2:	2008      	movs	r0, #8
    6df4:	f04f 4140 	mov.w	r1, #3221225472	; 0xc0000000
    6df8:	f8c2 412c 	str.w	r4, [r2, #300]	; 0x12c
    6dfc:	f8c2 51d4 	str.w	r5, [r2, #468]	; 0x1d4
    6e00:	6054      	str	r4, [r2, #4]
    6e02:	f8c7 e00c 	str.w	lr, [r7, #12]
    6e06:	6098      	str	r0, [r3, #8]
    6e08:	629e      	str	r6, [r3, #40]	; 0x28
    6e0a:	6299      	str	r1, [r3, #40]	; 0x28
    6e0c:	f893 2043 	ldrb.w	r2, [r3, #67]	; 0x43
    6e10:	4c18      	ldr	r4, [pc, #96]	; (6e74 <StepDown_InitChannel2+0xe8>)
    6e12:	f002 02fb 	and.w	r2, r2, #251	; 0xfb
    6e16:	f883 2043 	strb.w	r2, [r3, #67]	; 0x43
    6e1a:	f893 2043 	ldrb.w	r2, [r3, #67]	; 0x43
    6e1e:	f44f 2100 	mov.w	r1, #524288	; 0x80000
    6e22:	f002 02fe 	and.w	r2, r2, #254	; 0xfe
    6e26:	f04f 4580 	mov.w	r5, #1073741824	; 0x40000000
    6e2a:	f883 2043 	strb.w	r2, [r3, #67]	; 0x43
    6e2e:	6158      	str	r0, [r3, #20]
    6e30:	6099      	str	r1, [r3, #8]
    6e32:	629d      	str	r5, [r3, #40]	; 0x28
    6e34:	629c      	str	r4, [r3, #40]	; 0x28
    6e36:	f893 2053 	ldrb.w	r2, [r3, #83]	; 0x53
    6e3a:	f002 02fb 	and.w	r2, r2, #251	; 0xfb
    6e3e:	f883 2053 	strb.w	r2, [r3, #83]	; 0x53
    6e42:	f893 2053 	ldrb.w	r2, [r3, #83]	; 0x53
    6e46:	f002 02fe 	and.w	r2, r2, #254	; 0xfe
    6e4a:	f883 2053 	strb.w	r2, [r3, #83]	; 0x53
    6e4e:	6199      	str	r1, [r3, #24]
    6e50:	bdf8      	pop	{r3, r4, r5, r6, r7, pc}
    6e52:	bf00      	nop
    6e54:	40000800 	.word	0x40000800
    6e58:	40003c00 	.word	0x40003c00
    6e5c:	40001c00 	.word	0x40001c00
    6e60:	00006b1d 	.word	0x00006b1d
    6e64:	42003800 	.word	0x42003800
    6e68:	40000008 	.word	0x40000008
    6e6c:	41008000 	.word	0x41008000
    6e70:	4100e000 	.word	0x4100e000
    6e74:	c0000008 	.word	0xc0000008
    6e78:	01606800 	.word	0x01606800

00006e7c <StepDown_InitChannel3>:
    6e7c:	b5f8      	push	{r3, r4, r5, r6, r7, lr}
    6e7e:	4a32      	ldr	r2, [pc, #200]	; (6f48 <StepDown_InitChannel3+0xcc>)
    6e80:	4932      	ldr	r1, [pc, #200]	; (6f4c <StepDown_InitChannel3+0xd0>)
    6e82:	6993      	ldr	r3, [r2, #24]
    6e84:	4c32      	ldr	r4, [pc, #200]	; (6f50 <StepDown_InitChannel3+0xd4>)
    6e86:	f443 5300 	orr.w	r3, r3, #8192	; 0x2000
    6e8a:	2543      	movs	r5, #67	; 0x43
    6e8c:	2001      	movs	r0, #1
    6e8e:	6193      	str	r3, [r2, #24]
    6e90:	f8c4 50e8 	str.w	r5, [r4, #232]	; 0xe8
    6e94:	460a      	mov	r2, r1
    6e96:	6008      	str	r0, [r1, #0]
    6e98:	6913      	ldr	r3, [r2, #16]
    6e9a:	f013 0301 	ands.w	r3, r3, #1
    6e9e:	d1fb      	bne.n	6e98 <StepDown_InitChannel3+0x1c>
    6ea0:	f242 1023 	movw	r0, #8483	; 0x2123
    6ea4:	2503      	movs	r5, #3
    6ea6:	f44f 7446 	mov.w	r4, #792	; 0x318
    6eaa:	2104      	movs	r1, #4
    6eac:	6013      	str	r3, [r2, #0]
    6eae:	7315      	strb	r5, [r2, #12]
    6eb0:	8614      	strh	r4, [r2, #48]	; 0x30
    6eb2:	80d0      	strh	r0, [r2, #6]
    6eb4:	7151      	strb	r1, [r2, #5]
    6eb6:	6813      	ldr	r3, [r2, #0]
    6eb8:	4926      	ldr	r1, [pc, #152]	; (6f54 <StepDown_InitChannel3+0xd8>)
    6eba:	4f27      	ldr	r7, [pc, #156]	; (6f58 <StepDown_InitChannel3+0xdc>)
    6ebc:	4e27      	ldr	r6, [pc, #156]	; (6f5c <StepDown_InitChannel3+0xe0>)
    6ebe:	4d28      	ldr	r5, [pc, #160]	; (6f60 <StepDown_InitChannel3+0xe4>)
    6ec0:	f043 0302 	orr.w	r3, r3, #2
    6ec4:	6013      	str	r3, [r2, #0]
    6ec6:	4788      	blx	r1
    6ec8:	4b26      	ldr	r3, [pc, #152]	; (6f64 <StepDown_InitChannel3+0xe8>)
    6eca:	4a27      	ldr	r2, [pc, #156]	; (6f68 <StepDown_InitChannel3+0xec>)
    6ecc:	6ad9      	ldr	r1, [r3, #44]	; 0x2c
    6ece:	f8df e09c 	ldr.w	lr, [pc, #156]	; 6f6c <StepDown_InitChannel3+0xf0>
    6ed2:	f441 4119 	orr.w	r1, r1, #39168	; 0x9900
    6ed6:	f240 2416 	movw	r4, #534	; 0x216
    6eda:	f240 2076 	movw	r0, #630	; 0x276
    6ede:	62d9      	str	r1, [r3, #44]	; 0x2c
    6ee0:	6414      	str	r4, [r2, #64]	; 0x40
    6ee2:	2106      	movs	r1, #6
    6ee4:	6490      	str	r0, [r2, #72]	; 0x48
    6ee6:	2005      	movs	r0, #5
    6ee8:	f8c2 1128 	str.w	r1, [r2, #296]	; 0x128
    6eec:	f04f 7400 	mov.w	r4, #33554432	; 0x2000000
    6ef0:	f8c2 01d8 	str.w	r0, [r2, #472]	; 0x1d8
    6ef4:	2110      	movs	r1, #16
    6ef6:	f04f 4080 	mov.w	r0, #1073741824	; 0x40000000
    6efa:	6051      	str	r1, [r2, #4]
    6efc:	f8c7 e010 	str.w	lr, [r7, #16]
    6f00:	609c      	str	r4, [r3, #8]
    6f02:	6298      	str	r0, [r3, #40]	; 0x28
    6f04:	629e      	str	r6, [r3, #40]	; 0x28
    6f06:	f893 2059 	ldrb.w	r2, [r3, #89]	; 0x59
    6f0a:	f002 02fb 	and.w	r2, r2, #251	; 0xfb
    6f0e:	f883 2059 	strb.w	r2, [r3, #89]	; 0x59
    6f12:	f893 2059 	ldrb.w	r2, [r3, #89]	; 0x59
    6f16:	f04f 7180 	mov.w	r1, #16777216	; 0x1000000
    6f1a:	f002 02fe 	and.w	r2, r2, #254	; 0xfe
    6f1e:	f883 2059 	strb.w	r2, [r3, #89]	; 0x59
    6f22:	615c      	str	r4, [r3, #20]
    6f24:	6099      	str	r1, [r3, #8]
    6f26:	6298      	str	r0, [r3, #40]	; 0x28
    6f28:	629d      	str	r5, [r3, #40]	; 0x28
    6f2a:	f893 2058 	ldrb.w	r2, [r3, #88]	; 0x58
    6f2e:	f002 02fb 	and.w	r2, r2, #251	; 0xfb
    6f32:	f883 2058 	strb.w	r2, [r3, #88]	; 0x58
    6f36:	f893 2058 	ldrb.w	r2, [r3, #88]	; 0x58
    6f3a:	f002 02fe 	and.w	r2, r2, #254	; 0xfe
    6f3e:	f883 2058 	strb.w	r2, [r3, #88]	; 0x58
    6f42:	6199      	str	r1, [r3, #24]
    6f44:	bdf8      	pop	{r3, r4, r5, r6, r7, pc}
    6f46:	bf00      	nop
    6f48:	40000800 	.word	0x40000800
    6f4c:	4101a000 	.word	0x4101a000
    6f50:	40001c00 	.word	0x40001c00
    6f54:	00006b95 	.word	0x00006b95
    6f58:	42003800 	.word	0x42003800
    6f5c:	c0000200 	.word	0xc0000200
    6f60:	c0000100 	.word	0xc0000100
    6f64:	41008000 	.word	0x41008000
    6f68:	4100e000 	.word	0x4100e000
    6f6c:	01606800 	.word	0x01606800

00006f70 <StepDown_InitChannel4>:
    6f70:	b5f8      	push	{r3, r4, r5, r6, r7, lr}
    6f72:	4a32      	ldr	r2, [pc, #200]	; (703c <StepDown_InitChannel4+0xcc>)
    6f74:	4932      	ldr	r1, [pc, #200]	; (7040 <StepDown_InitChannel4+0xd0>)
    6f76:	6953      	ldr	r3, [r2, #20]
    6f78:	4c32      	ldr	r4, [pc, #200]	; (7044 <StepDown_InitChannel4+0xd4>)
    6f7a:	f443 4380 	orr.w	r3, r3, #16384	; 0x4000
    6f7e:	2543      	movs	r5, #67	; 0x43
    6f80:	2001      	movs	r0, #1
    6f82:	6153      	str	r3, [r2, #20]
    6f84:	f8c4 50a4 	str.w	r5, [r4, #164]	; 0xa4
    6f88:	460a      	mov	r2, r1
    6f8a:	6008      	str	r0, [r1, #0]
    6f8c:	6913      	ldr	r3, [r2, #16]
    6f8e:	f013 0301 	ands.w	r3, r3, #1
    6f92:	d1fb      	bne.n	6f8c <StepDown_InitChannel4+0x1c>
    6f94:	f242 1023 	movw	r0, #8483	; 0x2123
    6f98:	2503      	movs	r5, #3
    6f9a:	f44f 7446 	mov.w	r4, #792	; 0x318
    6f9e:	2104      	movs	r1, #4
    6fa0:	6013      	str	r3, [r2, #0]
    6fa2:	7315      	strb	r5, [r2, #12]
    6fa4:	8614      	strh	r4, [r2, #48]	; 0x30
    6fa6:	80d0      	strh	r0, [r2, #6]
    6fa8:	7151      	strb	r1, [r2, #5]
    6faa:	6813      	ldr	r3, [r2, #0]
    6fac:	4926      	ldr	r1, [pc, #152]	; (7048 <StepDown_InitChannel4+0xd8>)
    6fae:	4e27      	ldr	r6, [pc, #156]	; (704c <StepDown_InitChannel4+0xdc>)
    6fb0:	4d27      	ldr	r5, [pc, #156]	; (7050 <StepDown_InitChannel4+0xe0>)
    6fb2:	4f28      	ldr	r7, [pc, #160]	; (7054 <StepDown_InitChannel4+0xe4>)
    6fb4:	4c28      	ldr	r4, [pc, #160]	; (7058 <StepDown_InitChannel4+0xe8>)
    6fb6:	f043 0302 	orr.w	r3, r3, #2
    6fba:	6013      	str	r3, [r2, #0]
    6fbc:	4788      	blx	r1
    6fbe:	4b27      	ldr	r3, [pc, #156]	; (705c <StepDown_InitChannel4+0xec>)
    6fc0:	4a27      	ldr	r2, [pc, #156]	; (7060 <StepDown_InitChannel4+0xf0>)
    6fc2:	6ad9      	ldr	r1, [r3, #44]	; 0x2c
    6fc4:	f041 4101 	orr.w	r1, r1, #2164260864	; 0x81000000
    6fc8:	62d9      	str	r1, [r3, #44]	; 0x2c
    6fca:	f44f 701d 	mov.w	r0, #628	; 0x274
    6fce:	2108      	movs	r1, #8
    6fd0:	f240 2e12 	movw	lr, #530	; 0x212
    6fd4:	f8c2 e050 	str.w	lr, [r2, #80]	; 0x50
    6fd8:	6590      	str	r0, [r2, #88]	; 0x58
    6fda:	f8c2 1130 	str.w	r1, [r2, #304]	; 0x130
    6fde:	2007      	movs	r0, #7
    6fe0:	2140      	movs	r1, #64	; 0x40
    6fe2:	f8c2 01d0 	str.w	r0, [r2, #464]	; 0x1d0
    6fe6:	6051      	str	r1, [r2, #4]
    6fe8:	2002      	movs	r0, #2
    6fea:	f04f 4240 	mov.w	r2, #3221225472	; 0xc0000000
    6fee:	60b7      	str	r7, [r6, #8]
    6ff0:	6098      	str	r0, [r3, #8]
    6ff2:	629d      	str	r5, [r3, #40]	; 0x28
    6ff4:	629a      	str	r2, [r3, #40]	; 0x28
    6ff6:	f893 2041 	ldrb.w	r2, [r3, #65]	; 0x41
    6ffa:	f002 02fb 	and.w	r2, r2, #251	; 0xfb
    6ffe:	f883 2041 	strb.w	r2, [r3, #65]	; 0x41
    7002:	f893 2041 	ldrb.w	r2, [r3, #65]	; 0x41
    7006:	f44f 1100 	mov.w	r1, #2097152	; 0x200000
    700a:	f002 02fe 	and.w	r2, r2, #254	; 0xfe
    700e:	f04f 4580 	mov.w	r5, #1073741824	; 0x40000000
    7012:	f883 2041 	strb.w	r2, [r3, #65]	; 0x41
    7016:	6158      	str	r0, [r3, #20]
    7018:	6099      	str	r1, [r3, #8]
    701a:	629d      	str	r5, [r3, #40]	; 0x28
    701c:	629c      	str	r4, [r3, #40]	; 0x28
    701e:	f893 2055 	ldrb.w	r2, [r3, #85]	; 0x55
    7022:	f002 02fb 	and.w	r2, r2, #251	; 0xfb
    7026:	f883 2055 	strb.w	r2, [r3, #85]	; 0x55
    702a:	f893 2055 	ldrb.w	r2, [r3, #85]	; 0x55
    702e:	f002 02fe 	and.w	r2, r2, #254	; 0xfe
    7032:	f883 2055 	strb.w	r2, [r3, #85]	; 0x55
    7036:	6199      	str	r1, [r3, #24]
    7038:	bdf8      	pop	{r3, r4, r5, r6, r7, pc}
    703a:	bf00      	nop
    703c:	40000800 	.word	0x40000800
    7040:	40003800 	.word	0x40003800
    7044:	40001c00 	.word	0x40001c00
    7048:	00006c09 	.word	0x00006c09
    704c:	42003800 	.word	0x42003800
    7050:	40000002 	.word	0x40000002
    7054:	01606800 	.word	0x01606800
    7058:	c0000020 	.word	0xc0000020
    705c:	41008000 	.word	0x41008000
    7060:	4100e000 	.word	0x4100e000

00007064 <Filter_LowPass>:
    7064:	4281      	cmp	r1, r0
    7066:	d005      	beq.n	7074 <Filter_LowPass+0x10>
    7068:	d906      	bls.n	7078 <Filter_LowPass+0x14>
    706a:	1a09      	subs	r1, r1, r0
    706c:	40d1      	lsrs	r1, r2
    706e:	4401      	add	r1, r0
    7070:	4288      	cmp	r0, r1
    7072:	d00a      	beq.n	708a <Filter_LowPass+0x26>
    7074:	4608      	mov	r0, r1
    7076:	4770      	bx	lr
    7078:	1a41      	subs	r1, r0, r1
    707a:	40d1      	lsrs	r1, r2
    707c:	1a41      	subs	r1, r0, r1
    707e:	4288      	cmp	r0, r1
    7080:	bf08      	it	eq
    7082:	f101 31ff 	addeq.w	r1, r1, #4294967295
    7086:	4608      	mov	r0, r1
    7088:	4770      	bx	lr
    708a:	3101      	adds	r1, #1
    708c:	4608      	mov	r0, r1
    708e:	4770      	bx	lr

00007090 <StepDown_IsClosed>:
    7090:	4b02      	ldr	r3, [pc, #8]	; (709c <StepDown_IsClosed+0xc>)
    7092:	8998      	ldrh	r0, [r3, #12]
    7094:	3000      	adds	r0, #0
    7096:	bf18      	it	ne
    7098:	2001      	movne	r0, #1
    709a:	4770      	bx	lr
    709c:	20003624 	.word	0x20003624

000070a0 <StepDown_Close>:
    70a0:	4b0c      	ldr	r3, [pc, #48]	; (70d4 <StepDown_Close+0x34>)
    70a2:	4a0d      	ldr	r2, [pc, #52]	; (70d8 <StepDown_Close+0x38>)
    70a4:	b510      	push	{r4, lr}
    70a6:	fba3 1300 	umull	r1, r3, r3, r0
    70aa:	4c0c      	ldr	r4, [pc, #48]	; (70dc <StepDown_Close+0x3c>)
    70ac:	2100      	movs	r1, #0
    70ae:	08db      	lsrs	r3, r3, #3
    70b0:	4608      	mov	r0, r1
    70b2:	81a3      	strh	r3, [r4, #12]
    70b4:	4790      	blx	r2
    70b6:	2101      	movs	r1, #1
    70b8:	2000      	movs	r0, #0
    70ba:	4b09      	ldr	r3, [pc, #36]	; (70e0 <StepDown_Close+0x40>)
    70bc:	4798      	blx	r3
    70be:	2102      	movs	r1, #2
    70c0:	2000      	movs	r0, #0
    70c2:	4b08      	ldr	r3, [pc, #32]	; (70e4 <StepDown_Close+0x44>)
    70c4:	4798      	blx	r3
    70c6:	2103      	movs	r1, #3
    70c8:	2000      	movs	r0, #0
    70ca:	4b07      	ldr	r3, [pc, #28]	; (70e8 <StepDown_Close+0x48>)
    70cc:	e8bd 4010 	ldmia.w	sp!, {r4, lr}
    70d0:	4718      	bx	r3
    70d2:	bf00      	nop
    70d4:	cccccccd 	.word	0xcccccccd
    70d8:	00006951 	.word	0x00006951
    70dc:	20003624 	.word	0x20003624
    70e0:	000069fd 	.word	0x000069fd
    70e4:	000068a9 	.word	0x000068a9
    70e8:	00006801 	.word	0x00006801

000070ec <StepDown_CheckLimits.part.6>:
    70ec:	b570      	push	{r4, r5, r6, lr}
    70ee:	4b47      	ldr	r3, [pc, #284]	; (720c <StepDown_CheckLimits.part.6+0x120>)
    70f0:	4e47      	ldr	r6, [pc, #284]	; (7210 <StepDown_CheckLimits.part.6+0x124>)
    70f2:	4798      	blx	r3
    70f4:	88f3      	ldrh	r3, [r6, #6]
    70f6:	4298      	cmp	r0, r3
    70f8:	4605      	mov	r5, r0
    70fa:	d224      	bcs.n	7146 <StepDown_CheckLimits.part.6+0x5a>
    70fc:	4c45      	ldr	r4, [pc, #276]	; (7214 <StepDown_CheckLimits.part.6+0x128>)
    70fe:	7ba3      	ldrb	r3, [r4, #14]
    7100:	3301      	adds	r3, #1
    7102:	b2db      	uxtb	r3, r3
    7104:	2b07      	cmp	r3, #7
    7106:	73a3      	strb	r3, [r4, #14]
    7108:	d864      	bhi.n	71d4 <StepDown_CheckLimits.part.6+0xe8>
    710a:	b943      	cbnz	r3, 711e <StepDown_CheckLimits.part.6+0x32>
    710c:	88b3      	ldrh	r3, [r6, #4]
    710e:	429d      	cmp	r5, r3
    7110:	d250      	bcs.n	71b4 <StepDown_CheckLimits.part.6+0xc8>
    7112:	7be3      	ldrb	r3, [r4, #15]
    7114:	3301      	adds	r3, #1
    7116:	b2db      	uxtb	r3, r3
    7118:	2b07      	cmp	r3, #7
    711a:	73e3      	strb	r3, [r4, #15]
    711c:	d864      	bhi.n	71e8 <StepDown_CheckLimits.part.6+0xfc>
    711e:	f64c 7308 	movw	r3, #53000	; 0xcf08
    7122:	429d      	cmp	r5, r3
    7124:	d936      	bls.n	7194 <StepDown_CheckLimits.part.6+0xa8>
    7126:	7c23      	ldrb	r3, [r4, #16]
    7128:	3301      	adds	r3, #1
    712a:	b2db      	uxtb	r3, r3
    712c:	2b03      	cmp	r3, #3
    712e:	7423      	strb	r3, [r4, #16]
    7130:	d865      	bhi.n	71fe <StepDown_CheckLimits.part.6+0x112>
    7132:	4b39      	ldr	r3, [pc, #228]	; (7218 <StepDown_CheckLimits.part.6+0x12c>)
    7134:	4798      	blx	r3
    7136:	7c63      	ldrb	r3, [r4, #17]
    7138:	b300      	cbz	r0, 717c <StepDown_CheckLimits.part.6+0x90>
    713a:	3301      	adds	r3, #1
    713c:	b2db      	uxtb	r3, r3
    713e:	2b09      	cmp	r3, #9
    7140:	7463      	strb	r3, [r4, #17]
    7142:	d857      	bhi.n	71f4 <StepDown_CheckLimits.part.6+0x108>
    7144:	bd70      	pop	{r4, r5, r6, pc}
    7146:	f503 737a 	add.w	r3, r3, #1000	; 0x3e8
    714a:	4c32      	ldr	r4, [pc, #200]	; (7214 <StepDown_CheckLimits.part.6+0x128>)
    714c:	4298      	cmp	r0, r3
    714e:	7ba3      	ldrb	r3, [r4, #14]
    7150:	d30d      	bcc.n	716e <StepDown_CheckLimits.part.6+0x82>
    7152:	2b00      	cmp	r3, #0
    7154:	d0da      	beq.n	710c <StepDown_CheckLimits.part.6+0x20>
    7156:	3b01      	subs	r3, #1
    7158:	b2db      	uxtb	r3, r3
    715a:	73a3      	strb	r3, [r4, #14]
    715c:	2b00      	cmp	r3, #0
    715e:	d1de      	bne.n	711e <StepDown_CheckLimits.part.6+0x32>
    7160:	4b2e      	ldr	r3, [pc, #184]	; (721c <StepDown_CheckLimits.part.6+0x130>)
    7162:	2004      	movs	r0, #4
    7164:	4798      	blx	r3
    7166:	7ba3      	ldrb	r3, [r4, #14]
    7168:	2b00      	cmp	r3, #0
    716a:	d0cf      	beq.n	710c <StepDown_CheckLimits.part.6+0x20>
    716c:	e7d7      	b.n	711e <StepDown_CheckLimits.part.6+0x32>
    716e:	2b00      	cmp	r3, #0
    7170:	d0cc      	beq.n	710c <StepDown_CheckLimits.part.6+0x20>
    7172:	f44f 707a 	mov.w	r0, #1000	; 0x3e8
    7176:	4b2a      	ldr	r3, [pc, #168]	; (7220 <StepDown_CheckLimits.part.6+0x134>)
    7178:	4798      	blx	r3
    717a:	e7d0      	b.n	711e <StepDown_CheckLimits.part.6+0x32>
    717c:	2b00      	cmp	r3, #0
    717e:	d0e1      	beq.n	7144 <StepDown_CheckLimits.part.6+0x58>
    7180:	3b01      	subs	r3, #1
    7182:	b2db      	uxtb	r3, r3
    7184:	7463      	strb	r3, [r4, #17]
    7186:	2b00      	cmp	r3, #0
    7188:	d1dc      	bne.n	7144 <StepDown_CheckLimits.part.6+0x58>
    718a:	2007      	movs	r0, #7
    718c:	4b25      	ldr	r3, [pc, #148]	; (7224 <StepDown_CheckLimits.part.6+0x138>)
    718e:	e8bd 4070 	ldmia.w	sp!, {r4, r5, r6, lr}
    7192:	4718      	bx	r3
    7194:	f64c 331f 	movw	r3, #51999	; 0xcb1f
    7198:	429d      	cmp	r5, r3
    719a:	d8ca      	bhi.n	7132 <StepDown_CheckLimits.part.6+0x46>
    719c:	7c23      	ldrb	r3, [r4, #16]
    719e:	2b00      	cmp	r3, #0
    71a0:	d0c7      	beq.n	7132 <StepDown_CheckLimits.part.6+0x46>
    71a2:	3b01      	subs	r3, #1
    71a4:	b2db      	uxtb	r3, r3
    71a6:	7423      	strb	r3, [r4, #16]
    71a8:	2b00      	cmp	r3, #0
    71aa:	d1c2      	bne.n	7132 <StepDown_CheckLimits.part.6+0x46>
    71ac:	2006      	movs	r0, #6
    71ae:	4b1d      	ldr	r3, [pc, #116]	; (7224 <StepDown_CheckLimits.part.6+0x138>)
    71b0:	4798      	blx	r3
    71b2:	e7be      	b.n	7132 <StepDown_CheckLimits.part.6+0x46>
    71b4:	f503 73fa 	add.w	r3, r3, #500	; 0x1f4
    71b8:	429d      	cmp	r5, r3
    71ba:	d3b0      	bcc.n	711e <StepDown_CheckLimits.part.6+0x32>
    71bc:	7be3      	ldrb	r3, [r4, #15]
    71be:	2b00      	cmp	r3, #0
    71c0:	d0ad      	beq.n	711e <StepDown_CheckLimits.part.6+0x32>
    71c2:	3b01      	subs	r3, #1
    71c4:	b2db      	uxtb	r3, r3
    71c6:	73e3      	strb	r3, [r4, #15]
    71c8:	2b00      	cmp	r3, #0
    71ca:	d1a8      	bne.n	711e <StepDown_CheckLimits.part.6+0x32>
    71cc:	2001      	movs	r0, #1
    71ce:	4b15      	ldr	r3, [pc, #84]	; (7224 <StepDown_CheckLimits.part.6+0x138>)
    71d0:	4798      	blx	r3
    71d2:	e7a4      	b.n	711e <StepDown_CheckLimits.part.6+0x32>
    71d4:	2004      	movs	r0, #4
    71d6:	4b14      	ldr	r3, [pc, #80]	; (7228 <StepDown_CheckLimits.part.6+0x13c>)
    71d8:	4798      	blx	r3
    71da:	2204      	movs	r2, #4
    71dc:	f44f 60fa 	mov.w	r0, #2000	; 0x7d0
    71e0:	4b0f      	ldr	r3, [pc, #60]	; (7220 <StepDown_CheckLimits.part.6+0x134>)
    71e2:	73a2      	strb	r2, [r4, #14]
    71e4:	4798      	blx	r3
    71e6:	e79a      	b.n	711e <StepDown_CheckLimits.part.6+0x32>
    71e8:	4b10      	ldr	r3, [pc, #64]	; (722c <StepDown_CheckLimits.part.6+0x140>)
    71ea:	2001      	movs	r0, #1
    71ec:	4798      	blx	r3
    71ee:	2304      	movs	r3, #4
    71f0:	73e3      	strb	r3, [r4, #15]
    71f2:	e794      	b.n	711e <StepDown_CheckLimits.part.6+0x32>
    71f4:	2007      	movs	r0, #7
    71f6:	4b0d      	ldr	r3, [pc, #52]	; (722c <StepDown_CheckLimits.part.6+0x140>)
    71f8:	e8bd 4070 	ldmia.w	sp!, {r4, r5, r6, lr}
    71fc:	4718      	bx	r3
    71fe:	4b0b      	ldr	r3, [pc, #44]	; (722c <StepDown_CheckLimits.part.6+0x140>)
    7200:	2006      	movs	r0, #6
    7202:	4798      	blx	r3
    7204:	2304      	movs	r3, #4
    7206:	7423      	strb	r3, [r4, #16]
    7208:	e793      	b.n	7132 <StepDown_CheckLimits.part.6+0x46>
    720a:	bf00      	nop
    720c:	0000ceb9 	.word	0x0000ceb9
    7210:	2000f340 	.word	0x2000f340
    7214:	20003624 	.word	0x20003624
    7218:	0000b45d 	.word	0x0000b45d
    721c:	0000d0b5 	.word	0x0000d0b5
    7220:	000070a1 	.word	0x000070a1
    7224:	0000d109 	.word	0x0000d109
    7228:	0000d0a5 	.word	0x0000d0a5
    722c:	0000d0f9 	.word	0x0000d0f9

00007230 <TCC3_0_Handler>:
    7230:	b470      	push	{r4, r5, r6}
    7232:	4b1f      	ldr	r3, [pc, #124]	; (72b0 <TCC3_0_Handler+0x80>)
    7234:	4c1f      	ldr	r4, [pc, #124]	; (72b4 <TCC3_0_Handler+0x84>)
    7236:	f893 005f 	ldrb.w	r0, [r3, #95]	; 0x5f
    723a:	f893 105e 	ldrb.w	r1, [r3, #94]	; 0x5e
    723e:	1c0a      	adds	r2, r1, #0
    7240:	b2c0      	uxtb	r0, r0
    7242:	bf18      	it	ne
    7244:	2201      	movne	r2, #1
    7246:	eb00 1202 	add.w	r2, r0, r2, lsl #4
    724a:	f102 0618 	add.w	r6, r2, #24
    724e:	eb03 0686 	add.w	r6, r3, r6, lsl #2
    7252:	f102 0538 	add.w	r5, r2, #56	; 0x38
    7256:	f8d6 6002 	ldr.w	r6, [r6, #2]
    725a:	66e6      	str	r6, [r4, #108]	; 0x6c
    725c:	eb03 0585 	add.w	r5, r3, r5, lsl #2
    7260:	3258      	adds	r2, #88	; 0x58
    7262:	f8d5 5002 	ldr.w	r5, [r5, #2]
    7266:	6725      	str	r5, [r4, #112]	; 0x70
    7268:	eb03 0282 	add.w	r2, r3, r2, lsl #2
    726c:	f001 01ff 	and.w	r1, r1, #255	; 0xff
    7270:	f8d2 2002 	ldr.w	r2, [r2, #2]
    7274:	6762      	str	r2, [r4, #116]	; 0x74
    7276:	f893 205f 	ldrb.w	r2, [r3, #95]	; 0x5f
    727a:	3201      	adds	r2, #1
    727c:	b2d2      	uxtb	r2, r2
    727e:	2a0f      	cmp	r2, #15
    7280:	f883 205f 	strb.w	r2, [r3, #95]	; 0x5f
    7284:	bf84      	itt	hi
    7286:	2200      	movhi	r2, #0
    7288:	f883 205f 	strbhi.w	r2, [r3, #95]	; 0x5f
    728c:	f893 21f2 	ldrb.w	r2, [r3, #498]	; 0x1f2
    7290:	b252      	sxtb	r2, r2
    7292:	4290      	cmp	r0, r2
    7294:	d107      	bne.n	72a6 <TCC3_0_Handler+0x76>
    7296:	fab1 f181 	clz	r1, r1
    729a:	0949      	lsrs	r1, r1, #5
    729c:	22ff      	movs	r2, #255	; 0xff
    729e:	f883 105e 	strb.w	r1, [r3, #94]	; 0x5e
    72a2:	f883 21f2 	strb.w	r2, [r3, #498]	; 0x1f2
    72a6:	4b03      	ldr	r3, [pc, #12]	; (72b4 <TCC3_0_Handler+0x84>)
    72a8:	2201      	movs	r2, #1
    72aa:	62da      	str	r2, [r3, #44]	; 0x2c
    72ac:	bc70      	pop	{r4, r5, r6}
    72ae:	4770      	bx	lr
    72b0:	20002204 	.word	0x20002204
    72b4:	42001000 	.word	0x42001000

000072b8 <TCC1_0_Handler>:
    72b8:	b470      	push	{r4, r5, r6}
    72ba:	4b1f      	ldr	r3, [pc, #124]	; (7338 <TCC1_0_Handler+0x80>)
    72bc:	4c1f      	ldr	r4, [pc, #124]	; (733c <TCC1_0_Handler+0x84>)
    72be:	f893 025f 	ldrb.w	r0, [r3, #607]	; 0x25f
    72c2:	f893 125e 	ldrb.w	r1, [r3, #606]	; 0x25e
    72c6:	1c0a      	adds	r2, r1, #0
    72c8:	b2c0      	uxtb	r0, r0
    72ca:	bf18      	it	ne
    72cc:	2201      	movne	r2, #1
    72ce:	eb00 1202 	add.w	r2, r0, r2, lsl #4
    72d2:	f102 0618 	add.w	r6, r2, #24
    72d6:	eb03 0686 	add.w	r6, r3, r6, lsl #2
    72da:	f102 0538 	add.w	r5, r2, #56	; 0x38
    72de:	f8d6 6202 	ldr.w	r6, [r6, #514]	; 0x202
    72e2:	66e6      	str	r6, [r4, #108]	; 0x6c
    72e4:	eb03 0585 	add.w	r5, r3, r5, lsl #2
    72e8:	3258      	adds	r2, #88	; 0x58
    72ea:	f8d5 5202 	ldr.w	r5, [r5, #514]	; 0x202
    72ee:	6725      	str	r5, [r4, #112]	; 0x70
    72f0:	eb03 0282 	add.w	r2, r3, r2, lsl #2
    72f4:	f001 01ff 	and.w	r1, r1, #255	; 0xff
    72f8:	f8d2 2202 	ldr.w	r2, [r2, #514]	; 0x202
    72fc:	67e2      	str	r2, [r4, #124]	; 0x7c
    72fe:	f893 225f 	ldrb.w	r2, [r3, #607]	; 0x25f
    7302:	3201      	adds	r2, #1
    7304:	b2d2      	uxtb	r2, r2
    7306:	2a0f      	cmp	r2, #15
    7308:	f883 225f 	strb.w	r2, [r3, #607]	; 0x25f
    730c:	bf84      	itt	hi
    730e:	2200      	movhi	r2, #0
    7310:	f883 225f 	strbhi.w	r2, [r3, #607]	; 0x25f
    7314:	f893 23f2 	ldrb.w	r2, [r3, #1010]	; 0x3f2
    7318:	b252      	sxtb	r2, r2
    731a:	4290      	cmp	r0, r2
    731c:	d107      	bne.n	732e <TCC1_0_Handler+0x76>
    731e:	fab1 f181 	clz	r1, r1
    7322:	0949      	lsrs	r1, r1, #5
    7324:	22ff      	movs	r2, #255	; 0xff
    7326:	f883 125e 	strb.w	r1, [r3, #606]	; 0x25e
    732a:	f883 23f2 	strb.w	r2, [r3, #1010]	; 0x3f2
    732e:	4b03      	ldr	r3, [pc, #12]	; (733c <TCC1_0_Handler+0x84>)
    7330:	2201      	movs	r2, #1
    7332:	62da      	str	r2, [r3, #44]	; 0x2c
    7334:	bc70      	pop	{r4, r5, r6}
    7336:	4770      	bx	lr
    7338:	20002204 	.word	0x20002204
    733c:	41018000 	.word	0x41018000

00007340 <TCC2_0_Handler>:
    7340:	b470      	push	{r4, r5, r6}
    7342:	4b1f      	ldr	r3, [pc, #124]	; (73c0 <TCC2_0_Handler+0x80>)
    7344:	4c1f      	ldr	r4, [pc, #124]	; (73c4 <TCC2_0_Handler+0x84>)
    7346:	f893 045f 	ldrb.w	r0, [r3, #1119]	; 0x45f
    734a:	f893 145e 	ldrb.w	r1, [r3, #1118]	; 0x45e
    734e:	1c0a      	adds	r2, r1, #0
    7350:	b2c0      	uxtb	r0, r0
    7352:	bf18      	it	ne
    7354:	2201      	movne	r2, #1
    7356:	eb00 1202 	add.w	r2, r0, r2, lsl #4
    735a:	f102 0618 	add.w	r6, r2, #24
    735e:	eb03 0686 	add.w	r6, r3, r6, lsl #2
    7362:	f102 0538 	add.w	r5, r2, #56	; 0x38
    7366:	f8d6 6402 	ldr.w	r6, [r6, #1026]	; 0x402
    736a:	66e6      	str	r6, [r4, #108]	; 0x6c
    736c:	eb03 0585 	add.w	r5, r3, r5, lsl #2
    7370:	3258      	adds	r2, #88	; 0x58
    7372:	f8d5 5402 	ldr.w	r5, [r5, #1026]	; 0x402
    7376:	6725      	str	r5, [r4, #112]	; 0x70
    7378:	eb03 0282 	add.w	r2, r3, r2, lsl #2
    737c:	f001 01ff 	and.w	r1, r1, #255	; 0xff
    7380:	f8d2 2402 	ldr.w	r2, [r2, #1026]	; 0x402
    7384:	67a2      	str	r2, [r4, #120]	; 0x78
    7386:	f893 245f 	ldrb.w	r2, [r3, #1119]	; 0x45f
    738a:	3201      	adds	r2, #1
    738c:	b2d2      	uxtb	r2, r2
    738e:	2a0f      	cmp	r2, #15
    7390:	f883 245f 	strb.w	r2, [r3, #1119]	; 0x45f
    7394:	bf84      	itt	hi
    7396:	2200      	movhi	r2, #0
    7398:	f883 245f 	strbhi.w	r2, [r3, #1119]	; 0x45f
    739c:	f893 25f2 	ldrb.w	r2, [r3, #1522]	; 0x5f2
    73a0:	b252      	sxtb	r2, r2
    73a2:	4290      	cmp	r0, r2
    73a4:	d107      	bne.n	73b6 <TCC2_0_Handler+0x76>
    73a6:	fab1 f181 	clz	r1, r1
    73aa:	0949      	lsrs	r1, r1, #5
    73ac:	22ff      	movs	r2, #255	; 0xff
    73ae:	f883 145e 	strb.w	r1, [r3, #1118]	; 0x45e
    73b2:	f883 25f2 	strb.w	r2, [r3, #1522]	; 0x5f2
    73b6:	4b03      	ldr	r3, [pc, #12]	; (73c4 <TCC2_0_Handler+0x84>)
    73b8:	2201      	movs	r2, #1
    73ba:	62da      	str	r2, [r3, #44]	; 0x2c
    73bc:	bc70      	pop	{r4, r5, r6}
    73be:	4770      	bx	lr
    73c0:	20002204 	.word	0x20002204
    73c4:	42000c00 	.word	0x42000c00

000073c8 <TCC0_0_Handler>:
    73c8:	b470      	push	{r4, r5, r6}
    73ca:	4b1f      	ldr	r3, [pc, #124]	; (7448 <TCC0_0_Handler+0x80>)
    73cc:	4c1f      	ldr	r4, [pc, #124]	; (744c <TCC0_0_Handler+0x84>)
    73ce:	f893 065f 	ldrb.w	r0, [r3, #1631]	; 0x65f
    73d2:	f893 165e 	ldrb.w	r1, [r3, #1630]	; 0x65e
    73d6:	1c0a      	adds	r2, r1, #0
    73d8:	b2c0      	uxtb	r0, r0
    73da:	bf18      	it	ne
    73dc:	2201      	movne	r2, #1
    73de:	eb00 1202 	add.w	r2, r0, r2, lsl #4
    73e2:	f102 0618 	add.w	r6, r2, #24
    73e6:	eb03 0686 	add.w	r6, r3, r6, lsl #2
    73ea:	f102 0538 	add.w	r5, r2, #56	; 0x38
    73ee:	f8d6 6602 	ldr.w	r6, [r6, #1538]	; 0x602
    73f2:	66e6      	str	r6, [r4, #108]	; 0x6c
    73f4:	eb03 0585 	add.w	r5, r3, r5, lsl #2
    73f8:	3258      	adds	r2, #88	; 0x58
    73fa:	f8d5 5602 	ldr.w	r5, [r5, #1538]	; 0x602
    73fe:	6725      	str	r5, [r4, #112]	; 0x70
    7400:	eb03 0282 	add.w	r2, r3, r2, lsl #2
    7404:	f001 01ff 	and.w	r1, r1, #255	; 0xff
    7408:	f8d2 2602 	ldr.w	r2, [r2, #1538]	; 0x602
    740c:	6762      	str	r2, [r4, #116]	; 0x74
    740e:	f893 265f 	ldrb.w	r2, [r3, #1631]	; 0x65f
    7412:	3201      	adds	r2, #1
    7414:	b2d2      	uxtb	r2, r2
    7416:	2a0f      	cmp	r2, #15
    7418:	f883 265f 	strb.w	r2, [r3, #1631]	; 0x65f
    741c:	bf84      	itt	hi
    741e:	2200      	movhi	r2, #0
    7420:	f883 265f 	strbhi.w	r2, [r3, #1631]	; 0x65f
    7424:	f893 27f2 	ldrb.w	r2, [r3, #2034]	; 0x7f2
    7428:	b252      	sxtb	r2, r2
    742a:	4290      	cmp	r0, r2
    742c:	d107      	bne.n	743e <TCC0_0_Handler+0x76>
    742e:	fab1 f181 	clz	r1, r1
    7432:	0949      	lsrs	r1, r1, #5
    7434:	22ff      	movs	r2, #255	; 0xff
    7436:	f883 165e 	strb.w	r1, [r3, #1630]	; 0x65e
    743a:	f883 27f2 	strb.w	r2, [r3, #2034]	; 0x7f2
    743e:	4b03      	ldr	r3, [pc, #12]	; (744c <TCC0_0_Handler+0x84>)
    7440:	2201      	movs	r2, #1
    7442:	62da      	str	r2, [r3, #44]	; 0x2c
    7444:	bc70      	pop	{r4, r5, r6}
    7446:	4770      	bx	lr
    7448:	20002204 	.word	0x20002204
    744c:	41016000 	.word	0x41016000

00007450 <StepDown_Module_Update>:
    7450:	4770      	bx	lr
    7452:	bf00      	nop

00007454 <Stepdown_SetCurrentCalc>:
    7454:	e92d 47f0 	stmdb	sp!, {r4, r5, r6, r7, r8, r9, sl, lr}
    7458:	6a4b      	ldr	r3, [r1, #36]	; 0x24
    745a:	460c      	mov	r4, r1
    745c:	4691      	mov	r9, r2
    745e:	4606      	mov	r6, r0
    7460:	4798      	blx	r3
    7462:	6aa3      	ldr	r3, [r4, #40]	; 0x28
    7464:	4607      	mov	r7, r0
    7466:	4798      	blx	r3
    7468:	4b95      	ldr	r3, [pc, #596]	; (76c0 <Stepdown_SetCurrentCalc+0x26c>)
    746a:	4680      	mov	r8, r0
    746c:	4798      	blx	r3
    746e:	4a95      	ldr	r2, [pc, #596]	; (76c4 <Stepdown_SetCurrentCalc+0x270>)
    7470:	f8df e268 	ldr.w	lr, [pc, #616]	; 76dc <Stepdown_SetCurrentCalc+0x288>
    7474:	444a      	add	r2, r9
    7476:	4605      	mov	r5, r0
    7478:	f892 3074 	ldrb.w	r3, [r2, #116]	; 0x74
    747c:	f8d4 01e6 	ldr.w	r0, [r4, #486]	; 0x1e6
    7480:	ebc3 3103 	rsb	r1, r3, r3, lsl #12
    7484:	0209      	lsls	r1, r1, #8
    7486:	0889      	lsrs	r1, r1, #2
    7488:	fbae 3101 	umull	r3, r1, lr, r1
    748c:	0ac9      	lsrs	r1, r1, #11
    748e:	f3c1 034e 	ubfx	r3, r1, #1, #15
    7492:	4298      	cmp	r0, r3
    7494:	bf38      	it	cc
    7496:	f8c4 11e6 	strcc.w	r1, [r4, #486]	; 0x1e6
    749a:	6863      	ldr	r3, [r4, #4]
    749c:	121b      	asrs	r3, r3, #8
    749e:	fb06 f303 	mul.w	r3, r6, r3
    74a2:	0c1b      	lsrs	r3, r3, #16
    74a4:	f8a4 31f4 	strh.w	r3, [r4, #500]	; 0x1f4
    74a8:	f8d4 205a 	ldr.w	r2, [r4, #90]	; 0x5a
    74ac:	1212      	asrs	r2, r2, #8
    74ae:	b290      	uxth	r0, r2
    74b0:	f5b0 5f00 	cmp.w	r0, #8192	; 0x2000
    74b4:	fa1f f985 	uxth.w	r9, r5
    74b8:	d315      	bcc.n	74e6 <Stepdown_SetCurrentCalc+0x92>
    74ba:	f894 003f 	ldrb.w	r0, [r4, #63]	; 0x3f
    74be:	2809      	cmp	r0, #9
    74c0:	f240 80f0 	bls.w	76a4 <Stepdown_SetCurrentCalc+0x250>
    74c4:	ea4f 4808 	mov.w	r8, r8, lsl #16
    74c8:	b292      	uxth	r2, r2
    74ca:	fb98 f2f2 	sdiv	r2, r8, r2
    74ce:	4291      	cmp	r1, r2
    74d0:	f8d4 01e6 	ldr.w	r0, [r4, #486]	; 0x1e6
    74d4:	f8df a208 	ldr.w	sl, [pc, #520]	; 76e0 <Stepdown_SetCurrentCalc+0x28c>
    74d8:	bf38      	it	cc
    74da:	4611      	movcc	r1, r2
    74dc:	2208      	movs	r2, #8
    74de:	47d0      	blx	sl
    74e0:	f8c4 01e6 	str.w	r0, [r4, #486]	; 0x1e6
    74e4:	e00a      	b.n	74fc <Stepdown_SetCurrentCalc+0xa8>
    74e6:	2200      	movs	r2, #0
    74e8:	f884 203f 	strb.w	r2, [r4, #63]	; 0x3f
    74ec:	f8d4 01e6 	ldr.w	r0, [r4, #486]	; 0x1e6
    74f0:	f8df a1ec 	ldr.w	sl, [pc, #492]	; 76e0 <Stepdown_SetCurrentCalc+0x28c>
    74f4:	2208      	movs	r2, #8
    74f6:	47d0      	blx	sl
    74f8:	f8c4 01e6 	str.w	r0, [r4, #486]	; 0x1e6
    74fc:	68a2      	ldr	r2, [r4, #8]
    74fe:	2a00      	cmp	r2, #0
    7500:	bfd8      	it	le
    7502:	2700      	movle	r7, #0
    7504:	8727      	strh	r7, [r4, #56]	; 0x38
    7506:	8f21      	ldrh	r1, [r4, #56]	; 0x38
    7508:	8f62      	ldrh	r2, [r4, #58]	; 0x3a
    750a:	4291      	cmp	r1, r2
    750c:	bf84      	itt	hi
    750e:	8f22      	ldrhhi	r2, [r4, #56]	; 0x38
    7510:	8762      	strhhi	r2, [r4, #58]	; 0x3a
    7512:	f8a4 9042 	strh.w	r9, [r4, #66]	; 0x42
    7516:	f8b4 1042 	ldrh.w	r1, [r4, #66]	; 0x42
    751a:	8f22      	ldrh	r2, [r4, #56]	; 0x38
    751c:	f8df 91c4 	ldr.w	r9, [pc, #452]	; 76e4 <Stepdown_SetCurrentCalc+0x290>
    7520:	4291      	cmp	r1, r2
    7522:	bf3c      	itt	cc
    7524:	f8b4 2042 	ldrhcc.w	r2, [r4, #66]	; 0x42
    7528:	8722      	strhcc	r2, [r4, #56]	; 0x38
    752a:	f240 22ea 	movw	r2, #746	; 0x2ea
    752e:	fb02 f303 	mul.w	r3, r2, r3
    7532:	f8d4 21e6 	ldr.w	r2, [r4, #486]	; 0x1e6
    7536:	fbb3 f3f2 	udiv	r3, r3, r2
    753a:	2b4e      	cmp	r3, #78	; 0x4e
    753c:	bf38      	it	cc
    753e:	234e      	movcc	r3, #78	; 0x4e
    7540:	f1a3 0712 	sub.w	r7, r3, #18
    7544:	87a3      	strh	r3, [r4, #60]	; 0x3c
    7546:	86a7      	strh	r7, [r4, #52]	; 0x34
    7548:	f8d4 11e6 	ldr.w	r1, [r4, #486]	; 0x1e6
    754c:	f8b4 2042 	ldrh.w	r2, [r4, #66]	; 0x42
    7550:	f8d4 e1e6 	ldr.w	lr, [r4, #486]	; 0x1e6
    7554:	f8b4 0048 	ldrh.w	r0, [r4, #72]	; 0x48
    7558:	eba2 020e 	sub.w	r2, r2, lr
    755c:	f240 685b 	movw	r8, #1627	; 0x65b
    7560:	fb09 fe06 	mul.w	lr, r9, r6
    7564:	eb01 0181 	add.w	r1, r1, r1, lsl #2
    7568:	fb08 e212 	mls	r2, r8, r2, lr
    756c:	00c9      	lsls	r1, r1, #3
    756e:	fb03 2101 	mla	r1, r3, r1, r2
    7572:	0c09      	lsrs	r1, r1, #16
    7574:	39c6      	subs	r1, #198	; 0xc6
    7576:	f5b1 5f80 	cmp.w	r1, #4096	; 0x1000
    757a:	f894 204e 	ldrb.w	r2, [r4, #78]	; 0x4e
    757e:	bf28      	it	cs
    7580:	2100      	movcs	r1, #0
    7582:	47d0      	blx	sl
    7584:	f640 72ff 	movw	r2, #4095	; 0xfff
    7588:	b280      	uxth	r0, r0
    758a:	4290      	cmp	r0, r2
    758c:	bf28      	it	cs
    758e:	4610      	movcs	r0, r2
    7590:	f5b0 7f00 	cmp.w	r0, #512	; 0x200
    7594:	bf38      	it	cc
    7596:	f44f 7000 	movcc.w	r0, #512	; 0x200
    759a:	f8a4 0048 	strh.w	r0, [r4, #72]	; 0x48
    759e:	f8d4 204a 	ldr.w	r2, [r4, #74]	; 0x4a
    75a2:	f8d4 11e6 	ldr.w	r1, [r4, #486]	; 0x1e6
    75a6:	f8b4 0042 	ldrh.w	r0, [r4, #66]	; 0x42
    75aa:	f8d4 e1e6 	ldr.w	lr, [r4, #486]	; 0x1e6
    75ae:	1212      	asrs	r2, r2, #8
    75b0:	eb01 0181 	add.w	r1, r1, r1, lsl #2
    75b4:	eba0 000e 	sub.w	r0, r0, lr
    75b8:	fb06 f202 	mul.w	r2, r6, r2
    75bc:	00c9      	lsls	r1, r1, #3
    75be:	fb03 f101 	mul.w	r1, r3, r1
    75c2:	fb08 f800 	mul.w	r8, r8, r0
    75c6:	1412      	asrs	r2, r2, #16
    75c8:	fb09 1202 	mla	r2, r9, r2, r1
    75cc:	f508 0846 	add.w	r8, r8, #12976128	; 0xc60000
    75d0:	f8b4 0048 	ldrh.w	r0, [r4, #72]	; 0x48
    75d4:	f8b4 e048 	ldrh.w	lr, [r4, #72]	; 0x48
    75d8:	493b      	ldr	r1, [pc, #236]	; (76c8 <Stepdown_SetCurrentCalc+0x274>)
    75da:	4542      	cmp	r2, r8
    75dc:	bf86      	itte	hi
    75de:	eba2 0208 	subhi.w	r2, r2, r8
    75e2:	0c12      	lsrhi	r2, r2, #16
    75e4:	2200      	movls	r2, #0
    75e6:	f5a0 7000 	sub.w	r0, r0, #512	; 0x200
    75ea:	fb02 f200 	mul.w	r2, r2, r0
    75ee:	fbb2 f2fe 	udiv	r2, r2, lr
    75f2:	f502 7200 	add.w	r2, r2, #512	; 0x200
    75f6:	f8a4 2040 	strh.w	r2, [r4, #64]	; 0x40
    75fa:	f8b4 2040 	ldrh.w	r2, [r4, #64]	; 0x40
    75fe:	f640 70ff 	movw	r0, #4095	; 0xfff
    7602:	4282      	cmp	r2, r0
    7604:	bf28      	it	cs
    7606:	4602      	movcs	r2, r0
    7608:	f5b2 7f00 	cmp.w	r2, #512	; 0x200
    760c:	bf38      	it	cc
    760e:	f44f 7200 	movcc.w	r2, #512	; 0x200
    7612:	f8a4 2040 	strh.w	r2, [r4, #64]	; 0x40
    7616:	f8b4 0040 	ldrh.w	r0, [r4, #64]	; 0x40
    761a:	f8d4 21e6 	ldr.w	r2, [r4, #486]	; 0x1e6
    761e:	f8d4 e1e6 	ldr.w	lr, [r4, #486]	; 0x1e6
    7622:	f64e 7c4c 	movw	ip, #61260	; 0xef4c
    7626:	fb0c 1100 	mla	r1, ip, r0, r1
    762a:	eb07 00c7 	add.w	r0, r7, r7, lsl #3
    762e:	eb07 0780 	add.w	r7, r7, r0, lsl #2
    7632:	b2ad      	uxth	r5, r5
    7634:	f207 279a 	addw	r7, r7, #666	; 0x29a
    7638:	1aaa      	subs	r2, r5, r2
    763a:	fb0e 1717 	mls	r7, lr, r7, r1
    763e:	f240 51f1 	movw	r1, #1521	; 0x5f1
    7642:	fb01 7702 	mla	r7, r1, r2, r7
    7646:	8f22      	ldrh	r2, [r4, #56]	; 0x38
    7648:	0c3f      	lsrs	r7, r7, #16
    764a:	fb02 f707 	mul.w	r7, r2, r7
    764e:	0a3f      	lsrs	r7, r7, #8
    7650:	f8c4 71ea 	str.w	r7, [r4, #490]	; 0x1ea
    7654:	f8d4 01e6 	ldr.w	r0, [r4, #486]	; 0x1e6
    7658:	f8d4 21e6 	ldr.w	r2, [r4, #486]	; 0x1e6
    765c:	eb02 0182 	add.w	r1, r2, r2, lsl #2
    7660:	1a2d      	subs	r5, r5, r0
    7662:	eb02 0241 	add.w	r2, r2, r1, lsl #1
    7666:	ebc5 05c5 	rsb	r5, r5, r5, lsl #3
    766a:	fb03 f302 	mul.w	r3, r3, r2
    766e:	ebc3 1385 	rsb	r3, r3, r5, lsl #6
    7672:	0c1b      	lsrs	r3, r3, #16
    7674:	f203 439e 	addw	r3, r3, #1182	; 0x49e
    7678:	f8c4 31fc 	str.w	r3, [r4, #508]	; 0x1fc
    767c:	8be3      	ldrh	r3, [r4, #30]
    767e:	2b01      	cmp	r3, #1
    7680:	d019      	beq.n	76b6 <Stepdown_SetCurrentCalc+0x262>
    7682:	8be3      	ldrh	r3, [r4, #30]
    7684:	2b02      	cmp	r3, #2
    7686:	d018      	beq.n	76ba <Stepdown_SetCurrentCalc+0x266>
    7688:	8be3      	ldrh	r3, [r4, #30]
    768a:	2b03      	cmp	r3, #3
    768c:	bf0c      	ite	eq
    768e:	4a0f      	ldreq	r2, [pc, #60]	; (76cc <Stepdown_SetCurrentCalc+0x278>)
    7690:	4a0f      	ldrne	r2, [pc, #60]	; (76d0 <Stepdown_SetCurrentCalc+0x27c>)
    7692:	8ea3      	ldrh	r3, [r4, #52]	; 0x34
    7694:	8653      	strh	r3, [r2, #50]	; 0x32
    7696:	8ea3      	ldrh	r3, [r4, #52]	; 0x34
    7698:	3303      	adds	r3, #3
    769a:	b29b      	uxth	r3, r3
    769c:	8613      	strh	r3, [r2, #48]	; 0x30
    769e:	86e6      	strh	r6, [r4, #54]	; 0x36
    76a0:	e8bd 87f0 	ldmia.w	sp!, {r4, r5, r6, r7, r8, r9, sl, pc}
    76a4:	f894 203f 	ldrb.w	r2, [r4, #63]	; 0x3f
    76a8:	f8df a034 	ldr.w	sl, [pc, #52]	; 76e0 <Stepdown_SetCurrentCalc+0x28c>
    76ac:	3201      	adds	r2, #1
    76ae:	b2d2      	uxtb	r2, r2
    76b0:	f884 203f 	strb.w	r2, [r4, #63]	; 0x3f
    76b4:	e722      	b.n	74fc <Stepdown_SetCurrentCalc+0xa8>
    76b6:	4a07      	ldr	r2, [pc, #28]	; (76d4 <Stepdown_SetCurrentCalc+0x280>)
    76b8:	e7eb      	b.n	7692 <Stepdown_SetCurrentCalc+0x23e>
    76ba:	4a07      	ldr	r2, [pc, #28]	; (76d8 <Stepdown_SetCurrentCalc+0x284>)
    76bc:	e7e9      	b.n	7692 <Stepdown_SetCurrentCalc+0x23e>
    76be:	bf00      	nop
    76c0:	0000cee1 	.word	0x0000cee1
    76c4:	2000f8ac 	.word	0x2000f8ac
    76c8:	00b8c8b0 	.word	0x00b8c8b0
    76cc:	4101a000 	.word	0x4101a000
    76d0:	40003800 	.word	0x40003800
    76d4:	4101c000 	.word	0x4101c000
    76d8:	40003c00 	.word	0x40003c00
    76dc:	269664a7 	.word	0x269664a7
    76e0:	00007065 	.word	0x00007065
    76e4:	0003a214 	.word	0x0003a214

000076e8 <Stepdown_SetCurrentCh1>:
    76e8:	4b06      	ldr	r3, [pc, #24]	; (7704 <Stepdown_SetCurrentCh1+0x1c>)
    76ea:	4907      	ldr	r1, [pc, #28]	; (7708 <Stepdown_SetCurrentCh1+0x20>)
    76ec:	b410      	push	{r4}
    76ee:	eb03 0340 	add.w	r3, r3, r0, lsl #1
    76f2:	4c06      	ldr	r4, [pc, #24]	; (770c <Stepdown_SetCurrentCh1+0x24>)
    76f4:	4602      	mov	r2, r0
    76f6:	f8b3 0094 	ldrh.w	r0, [r3, #148]	; 0x94
    76fa:	4623      	mov	r3, r4
    76fc:	f85d 4b04 	ldr.w	r4, [sp], #4
    7700:	4718      	bx	r3
    7702:	bf00      	nop
    7704:	2000f8ac 	.word	0x2000f8ac
    7708:	20002204 	.word	0x20002204
    770c:	00007455 	.word	0x00007455

00007710 <Stepdown_SetCurrentCh2>:
    7710:	4b06      	ldr	r3, [pc, #24]	; (772c <Stepdown_SetCurrentCh2+0x1c>)
    7712:	4907      	ldr	r1, [pc, #28]	; (7730 <Stepdown_SetCurrentCh2+0x20>)
    7714:	b410      	push	{r4}
    7716:	eb03 0340 	add.w	r3, r3, r0, lsl #1
    771a:	4c06      	ldr	r4, [pc, #24]	; (7734 <Stepdown_SetCurrentCh2+0x24>)
    771c:	4602      	mov	r2, r0
    771e:	f8b3 0094 	ldrh.w	r0, [r3, #148]	; 0x94
    7722:	4623      	mov	r3, r4
    7724:	f85d 4b04 	ldr.w	r4, [sp], #4
    7728:	4718      	bx	r3
    772a:	bf00      	nop
    772c:	2000f8ac 	.word	0x2000f8ac
    7730:	20002404 	.word	0x20002404
    7734:	00007455 	.word	0x00007455

00007738 <Stepdown_SetCurrentCh3>:
    7738:	4b06      	ldr	r3, [pc, #24]	; (7754 <Stepdown_SetCurrentCh3+0x1c>)
    773a:	4907      	ldr	r1, [pc, #28]	; (7758 <Stepdown_SetCurrentCh3+0x20>)
    773c:	b410      	push	{r4}
    773e:	eb03 0340 	add.w	r3, r3, r0, lsl #1
    7742:	4c06      	ldr	r4, [pc, #24]	; (775c <Stepdown_SetCurrentCh3+0x24>)
    7744:	4602      	mov	r2, r0
    7746:	f8b3 0094 	ldrh.w	r0, [r3, #148]	; 0x94
    774a:	4623      	mov	r3, r4
    774c:	f85d 4b04 	ldr.w	r4, [sp], #4
    7750:	4718      	bx	r3
    7752:	bf00      	nop
    7754:	2000f8ac 	.word	0x2000f8ac
    7758:	20002604 	.word	0x20002604
    775c:	00007455 	.word	0x00007455

00007760 <Stepdown_SetCurrentCh4>:
    7760:	4b06      	ldr	r3, [pc, #24]	; (777c <Stepdown_SetCurrentCh4+0x1c>)
    7762:	4907      	ldr	r1, [pc, #28]	; (7780 <Stepdown_SetCurrentCh4+0x20>)
    7764:	b410      	push	{r4}
    7766:	eb03 0340 	add.w	r3, r3, r0, lsl #1
    776a:	4c06      	ldr	r4, [pc, #24]	; (7784 <Stepdown_SetCurrentCh4+0x24>)
    776c:	4602      	mov	r2, r0
    776e:	f8b3 0094 	ldrh.w	r0, [r3, #148]	; 0x94
    7772:	4623      	mov	r3, r4
    7774:	f85d 4b04 	ldr.w	r4, [sp], #4
    7778:	4718      	bx	r3
    777a:	bf00      	nop
    777c:	2000f8ac 	.word	0x2000f8ac
    7780:	20002804 	.word	0x20002804
    7784:	00007455 	.word	0x00007455

00007788 <Stepdown_SetCurrent>:
    7788:	b570      	push	{r4, r5, r6, lr}
    778a:	4e0e      	ldr	r6, [pc, #56]	; (77c4 <Stepdown_SetCurrent+0x3c>)
    778c:	4d0e      	ldr	r5, [pc, #56]	; (77c8 <Stepdown_SetCurrent+0x40>)
    778e:	4c0f      	ldr	r4, [pc, #60]	; (77cc <Stepdown_SetCurrent+0x44>)
    7790:	f8b5 0094 	ldrh.w	r0, [r5, #148]	; 0x94
    7794:	4631      	mov	r1, r6
    7796:	2200      	movs	r2, #0
    7798:	47a0      	blx	r4
    779a:	f506 7100 	add.w	r1, r6, #512	; 0x200
    779e:	f8b5 0096 	ldrh.w	r0, [r5, #150]	; 0x96
    77a2:	2201      	movs	r2, #1
    77a4:	47a0      	blx	r4
    77a6:	f506 6180 	add.w	r1, r6, #1024	; 0x400
    77aa:	f8b5 0098 	ldrh.w	r0, [r5, #152]	; 0x98
    77ae:	2202      	movs	r2, #2
    77b0:	47a0      	blx	r4
    77b2:	f506 61c0 	add.w	r1, r6, #1536	; 0x600
    77b6:	f8b5 009a 	ldrh.w	r0, [r5, #154]	; 0x9a
    77ba:	4623      	mov	r3, r4
    77bc:	2203      	movs	r2, #3
    77be:	e8bd 4070 	ldmia.w	sp!, {r4, r5, r6, lr}
    77c2:	4718      	bx	r3
    77c4:	20002204 	.word	0x20002204
    77c8:	2000f8ac 	.word	0x2000f8ac
    77cc:	00007455 	.word	0x00007455

000077d0 <StepDown_Init>:
    77d0:	b530      	push	{r4, r5, lr}
    77d2:	4915      	ldr	r1, [pc, #84]	; (7828 <StepDown_Init+0x58>)
    77d4:	4c15      	ldr	r4, [pc, #84]	; (782c <StepDown_Init+0x5c>)
    77d6:	698b      	ldr	r3, [r1, #24]
    77d8:	4d15      	ldr	r5, [pc, #84]	; (7830 <StepDown_Init+0x60>)
    77da:	4816      	ldr	r0, [pc, #88]	; (7834 <StepDown_Init+0x64>)
    77dc:	2201      	movs	r2, #1
    77de:	f043 0380 	orr.w	r3, r3, #128	; 0x80
    77e2:	618b      	str	r3, [r1, #24]
    77e4:	b083      	sub	sp, #12
    77e6:	702a      	strb	r2, [r5, #0]
    77e8:	7022      	strb	r2, [r4, #0]
    77ea:	4780      	blx	r0
    77ec:	4b12      	ldr	r3, [pc, #72]	; (7838 <StepDown_Init+0x68>)
    77ee:	4798      	blx	r3
    77f0:	4b12      	ldr	r3, [pc, #72]	; (783c <StepDown_Init+0x6c>)
    77f2:	4798      	blx	r3
    77f4:	4b12      	ldr	r3, [pc, #72]	; (7840 <StepDown_Init+0x70>)
    77f6:	4798      	blx	r3
    77f8:	4b12      	ldr	r3, [pc, #72]	; (7844 <StepDown_Init+0x74>)
    77fa:	4798      	blx	r3
    77fc:	2302      	movs	r3, #2
    77fe:	7023      	strb	r3, [r4, #0]
    7800:	4b11      	ldr	r3, [pc, #68]	; (7848 <StepDown_Init+0x78>)
    7802:	4798      	blx	r3
    7804:	4a11      	ldr	r2, [pc, #68]	; (784c <StepDown_Init+0x7c>)
    7806:	6953      	ldr	r3, [r2, #20]
    7808:	b10b      	cbz	r3, 780e <StepDown_Init+0x3e>
    780a:	b003      	add	sp, #12
    780c:	bd30      	pop	{r4, r5, pc}
    780e:	3214      	adds	r2, #20
    7810:	2106      	movs	r1, #6
    7812:	e88d 0006 	stmia.w	sp, {r1, r2}
    7816:	480e      	ldr	r0, [pc, #56]	; (7850 <StepDown_Init+0x80>)
    7818:	490e      	ldr	r1, [pc, #56]	; (7854 <StepDown_Init+0x84>)
    781a:	4c0f      	ldr	r4, [pc, #60]	; (7858 <StepDown_Init+0x88>)
    781c:	f44f 7200 	mov.w	r2, #512	; 0x200
    7820:	47a0      	blx	r4
    7822:	2801      	cmp	r0, #1
    7824:	d0f1      	beq.n	780a <StepDown_Init+0x3a>
    7826:	e7fe      	b.n	7826 <StepDown_Init+0x56>
    7828:	40000800 	.word	0x40000800
    782c:	42003800 	.word	0x42003800
    7830:	4100e000 	.word	0x4100e000
    7834:	00006c81 	.word	0x00006c81
    7838:	00006d8d 	.word	0x00006d8d
    783c:	00006e7d 	.word	0x00006e7d
    7840:	00006f71 	.word	0x00006f71
    7844:	000044d5 	.word	0x000044d5
    7848:	00007789 	.word	0x00007789
    784c:	20003624 	.word	0x20003624
    7850:	0000818d 	.word	0x0000818d
    7854:	000119f8 	.word	0x000119f8
    7858:	0000ea2d 	.word	0x0000ea2d

0000785c <StepDown_GetPower>:
    785c:	4b01      	ldr	r3, [pc, #4]	; (7864 <StepDown_GetPower+0x8>)
    785e:	6998      	ldr	r0, [r3, #24]
    7860:	4770      	bx	lr
    7862:	bf00      	nop
    7864:	20003624 	.word	0x20003624

00007868 <StepDown_SleepCheck>:
    7868:	4905      	ldr	r1, [pc, #20]	; (7880 <StepDown_SleepCheck+0x18>)
    786a:	2204      	movs	r2, #4
    786c:	8b8b      	ldrh	r3, [r1, #28]
    786e:	b29b      	uxth	r3, r3
    7870:	b91b      	cbnz	r3, 787a <StepDown_SleepCheck+0x12>
    7872:	3a01      	subs	r2, #1
    7874:	d1fa      	bne.n	786c <StepDown_SleepCheck+0x4>
    7876:	2001      	movs	r0, #1
    7878:	4770      	bx	lr
    787a:	2000      	movs	r0, #0
    787c:	4770      	bx	lr
    787e:	bf00      	nop
    7880:	20002204 	.word	0x20002204

00007884 <StepDown_GetDutyPercentage>:
    7884:	2803      	cmp	r0, #3
    7886:	d80d      	bhi.n	78a4 <StepDown_GetDutyPercentage+0x20>
    7888:	4b07      	ldr	r3, [pc, #28]	; (78a8 <StepDown_GetDutyPercentage+0x24>)
    788a:	eb03 2040 	add.w	r0, r3, r0, lsl #9
    788e:	6840      	ldr	r0, [r0, #4]
    7890:	b138      	cbz	r0, 78a2 <StepDown_GetDutyPercentage+0x1e>
    7892:	2364      	movs	r3, #100	; 0x64
    7894:	fb00 3003 	mla	r0, r0, r3, r3
    7898:	0e00      	lsrs	r0, r0, #24
    789a:	d001      	beq.n	78a0 <StepDown_GetDutyPercentage+0x1c>
    789c:	b2c0      	uxtb	r0, r0
    789e:	4770      	bx	lr
    78a0:	2001      	movs	r0, #1
    78a2:	4770      	bx	lr
    78a4:	2000      	movs	r0, #0
    78a6:	4770      	bx	lr
    78a8:	20002204 	.word	0x20002204

000078ac <StepDown_Logging>:
    78ac:	4912      	ldr	r1, [pc, #72]	; (78f8 <StepDown_Logging+0x4c>)
    78ae:	2204      	movs	r2, #4
    78b0:	8b8b      	ldrh	r3, [r1, #28]
    78b2:	b29b      	uxth	r3, r3
    78b4:	b9bb      	cbnz	r3, 78e6 <StepDown_Logging+0x3a>
    78b6:	3a01      	subs	r2, #1
    78b8:	d1fa      	bne.n	78b0 <StepDown_Logging+0x4>
    78ba:	b570      	push	{r4, r5, r6, lr}
    78bc:	4c0f      	ldr	r4, [pc, #60]	; (78fc <StepDown_Logging+0x50>)
    78be:	4d10      	ldr	r5, [pc, #64]	; (7900 <StepDown_Logging+0x54>)
    78c0:	47a0      	blx	r4
    78c2:	4b10      	ldr	r3, [pc, #64]	; (7904 <StepDown_Logging+0x58>)
    78c4:	681b      	ldr	r3, [r3, #0]
    78c6:	8b5b      	ldrh	r3, [r3, #26]
    78c8:	2b03      	cmp	r3, #3
    78ca:	d804      	bhi.n	78d6 <StepDown_Logging+0x2a>
    78cc:	69ea      	ldr	r2, [r5, #28]
    78ce:	4b0e      	ldr	r3, [pc, #56]	; (7908 <StepDown_Logging+0x5c>)
    78d0:	1a80      	subs	r0, r0, r2
    78d2:	4298      	cmp	r0, r3
    78d4:	d908      	bls.n	78e8 <StepDown_Logging+0x3c>
    78d6:	4b0d      	ldr	r3, [pc, #52]	; (790c <StepDown_Logging+0x60>)
    78d8:	4798      	blx	r3
    78da:	4b0d      	ldr	r3, [pc, #52]	; (7910 <StepDown_Logging+0x64>)
    78dc:	4798      	blx	r3
    78de:	b120      	cbz	r0, 78ea <StepDown_Logging+0x3e>
    78e0:	47a0      	blx	r4
    78e2:	61e8      	str	r0, [r5, #28]
    78e4:	bd70      	pop	{r4, r5, r6, pc}
    78e6:	4770      	bx	lr
    78e8:	bd70      	pop	{r4, r5, r6, pc}
    78ea:	2301      	movs	r3, #1
    78ec:	4618      	mov	r0, r3
    78ee:	2202      	movs	r2, #2
    78f0:	2105      	movs	r1, #5
    78f2:	4e08      	ldr	r6, [pc, #32]	; (7914 <StepDown_Logging+0x68>)
    78f4:	47b0      	blx	r6
    78f6:	e7f3      	b.n	78e0 <StepDown_Logging+0x34>
    78f8:	20002204 	.word	0x20002204
    78fc:	0000ece5 	.word	0x0000ece5
    7900:	20003624 	.word	0x20003624
    7904:	2000ee30 	.word	0x2000ee30
    7908:	02932dff 	.word	0x02932dff
    790c:	00006225 	.word	0x00006225
    7910:	0000b8f5 	.word	0x0000b8f5
    7914:	0000d1c1 	.word	0x0000d1c1

00007918 <StepDown_Timer>:
    7918:	b510      	push	{r4, lr}
    791a:	4c40      	ldr	r4, [pc, #256]	; (7a1c <StepDown_Timer+0x104>)
    791c:	8823      	ldrh	r3, [r4, #0]
    791e:	f64f 72ff 	movw	r2, #65535	; 0xffff
    7922:	4293      	cmp	r3, r2
    7924:	bf1c      	itt	ne
    7926:	3301      	addne	r3, #1
    7928:	8023      	strhne	r3, [r4, #0]
    792a:	f894 3020 	ldrb.w	r3, [r4, #32]
    792e:	3301      	adds	r3, #1
    7930:	b2db      	uxtb	r3, r3
    7932:	2b63      	cmp	r3, #99	; 0x63
    7934:	d819      	bhi.n	796a <StepDown_Timer+0x52>
    7936:	f884 3020 	strb.w	r3, [r4, #32]
    793a:	4b39      	ldr	r3, [pc, #228]	; (7a20 <StepDown_Timer+0x108>)
    793c:	4798      	blx	r3
    793e:	f894 3028 	ldrb.w	r3, [r4, #40]	; 0x28
    7942:	3301      	adds	r3, #1
    7944:	b2db      	uxtb	r3, r3
    7946:	2b07      	cmp	r3, #7
    7948:	d818      	bhi.n	797c <StepDown_Timer+0x64>
    794a:	f884 3028 	strb.w	r3, [r4, #40]	; 0x28
    794e:	8d63      	ldrh	r3, [r4, #42]	; 0x2a
    7950:	4a34      	ldr	r2, [pc, #208]	; (7a24 <StepDown_Timer+0x10c>)
    7952:	3301      	adds	r3, #1
    7954:	b29b      	uxth	r3, r3
    7956:	2151      	movs	r1, #81	; 0x51
    7958:	2b63      	cmp	r3, #99	; 0x63
    795a:	8563      	strh	r3, [r4, #42]	; 0x2a
    795c:	7451      	strb	r1, [r2, #17]
    795e:	d81e      	bhi.n	799e <StepDown_Timer+0x86>
    7960:	2b32      	cmp	r3, #50	; 0x32
    7962:	d025      	beq.n	79b0 <StepDown_Timer+0x98>
    7964:	2b19      	cmp	r3, #25
    7966:	d038      	beq.n	79da <StepDown_Timer+0xc2>
    7968:	bd10      	pop	{r4, pc}
    796a:	6a63      	ldr	r3, [r4, #36]	; 0x24
    796c:	2100      	movs	r1, #0
    796e:	3301      	adds	r3, #1
    7970:	2203      	movs	r2, #3
    7972:	6263      	str	r3, [r4, #36]	; 0x24
    7974:	f884 1020 	strb.w	r1, [r4, #32]
    7978:	7162      	strb	r2, [r4, #5]
    797a:	e7de      	b.n	793a <StepDown_Timer+0x22>
    797c:	f894 3029 	ldrb.w	r3, [r4, #41]	; 0x29
    7980:	2200      	movs	r2, #0
    7982:	2b01      	cmp	r3, #1
    7984:	f884 2028 	strb.w	r2, [r4, #40]	; 0x28
    7988:	d020      	beq.n	79cc <StepDown_Timer+0xb4>
    798a:	7962      	ldrb	r2, [r4, #5]
    798c:	b952      	cbnz	r2, 79a4 <StepDown_Timer+0x8c>
    798e:	3301      	adds	r3, #1
    7990:	b2db      	uxtb	r3, r3
    7992:	2b10      	cmp	r3, #16
    7994:	d900      	bls.n	7998 <StepDown_Timer+0x80>
    7996:	2300      	movs	r3, #0
    7998:	f884 3029 	strb.w	r3, [r4, #41]	; 0x29
    799c:	e7d7      	b.n	794e <StepDown_Timer+0x36>
    799e:	2300      	movs	r3, #0
    79a0:	8563      	strh	r3, [r4, #42]	; 0x2a
    79a2:	bd10      	pop	{r4, pc}
    79a4:	78e1      	ldrb	r1, [r4, #3]
    79a6:	2900      	cmp	r1, #0
    79a8:	d0f1      	beq.n	798e <StepDown_Timer+0x76>
    79aa:	3a01      	subs	r2, #1
    79ac:	7162      	strb	r2, [r4, #5]
    79ae:	e7ee      	b.n	798e <StepDown_Timer+0x76>
    79b0:	4c1d      	ldr	r4, [pc, #116]	; (7a28 <StepDown_Timer+0x110>)
    79b2:	6823      	ldr	r3, [r4, #0]
    79b4:	075b      	lsls	r3, r3, #29
    79b6:	d5d7      	bpl.n	7968 <StepDown_Timer+0x50>
    79b8:	4b1c      	ldr	r3, [pc, #112]	; (7a2c <StepDown_Timer+0x114>)
    79ba:	2102      	movs	r1, #2
    79bc:	f44f 7000 	mov.w	r0, #512	; 0x200
    79c0:	4798      	blx	r3
    79c2:	6823      	ldr	r3, [r4, #0]
    79c4:	f023 0304 	bic.w	r3, r3, #4
    79c8:	6023      	str	r3, [r4, #0]
    79ca:	bd10      	pop	{r4, pc}
    79cc:	78e2      	ldrb	r2, [r4, #3]
    79ce:	b302      	cbz	r2, 7a12 <StepDown_Timer+0xfa>
    79d0:	7962      	ldrb	r2, [r4, #5]
    79d2:	2a00      	cmp	r2, #0
    79d4:	d1e9      	bne.n	79aa <StepDown_Timer+0x92>
    79d6:	2302      	movs	r3, #2
    79d8:	e7de      	b.n	7998 <StepDown_Timer+0x80>
    79da:	8da3      	ldrh	r3, [r4, #44]	; 0x2c
    79dc:	3301      	adds	r3, #1
    79de:	b29b      	uxth	r3, r3
    79e0:	2b09      	cmp	r3, #9
    79e2:	85a3      	strh	r3, [r4, #44]	; 0x2c
    79e4:	d9c0      	bls.n	7968 <StepDown_Timer+0x50>
    79e6:	4b12      	ldr	r3, [pc, #72]	; (7a30 <StepDown_Timer+0x118>)
    79e8:	78d9      	ldrb	r1, [r3, #3]
    79ea:	b169      	cbz	r1, 7a08 <StepDown_Timer+0xf0>
    79ec:	4811      	ldr	r0, [pc, #68]	; (7a34 <StepDown_Timer+0x11c>)
    79ee:	6983      	ldr	r3, [r0, #24]
    79f0:	2b00      	cmp	r3, #0
    79f2:	dcb9      	bgt.n	7968 <StepDown_Timer+0x50>
    79f4:	2300      	movs	r3, #0
    79f6:	e002      	b.n	79fe <StepDown_Timer+0xe6>
    79f8:	6992      	ldr	r2, [r2, #24]
    79fa:	2a00      	cmp	r2, #0
    79fc:	dcb4      	bgt.n	7968 <StepDown_Timer+0x50>
    79fe:	3301      	adds	r3, #1
    7a00:	428b      	cmp	r3, r1
    7a02:	eb00 2243 	add.w	r2, r0, r3, lsl #9
    7a06:	dbf7      	blt.n	79f8 <StepDown_Timer+0xe0>
    7a08:	4b0b      	ldr	r3, [pc, #44]	; (7a38 <StepDown_Timer+0x120>)
    7a0a:	4798      	blx	r3
    7a0c:	2300      	movs	r3, #0
    7a0e:	85a3      	strh	r3, [r4, #44]	; 0x2c
    7a10:	bd10      	pop	{r4, pc}
    7a12:	2302      	movs	r3, #2
    7a14:	f884 3029 	strb.w	r3, [r4, #41]	; 0x29
    7a18:	e799      	b.n	794e <StepDown_Timer+0x36>
    7a1a:	bf00      	nop
    7a1c:	20003624 	.word	0x20003624
    7a20:	0000c275 	.word	0x0000c275
    7a24:	2001ff00 	.word	0x2001ff00
    7a28:	2000f9b4 	.word	0x2000f9b4
    7a2c:	0000c651 	.word	0x0000c651
    7a30:	2000f8ac 	.word	0x2000f8ac
    7a34:	20002204 	.word	0x20002204
    7a38:	0000afdd 	.word	0x0000afdd

00007a3c <StepDown_Start>:
    7a3c:	e92d 43f8 	stmdb	sp!, {r3, r4, r5, r6, r7, r8, r9, lr}
    7a40:	4c71      	ldr	r4, [pc, #452]	; (7c08 <StepDown_Start+0x1cc>)
    7a42:	4b72      	ldr	r3, [pc, #456]	; (7c0c <StepDown_Start+0x1d0>)
    7a44:	f894 505e 	ldrb.w	r5, [r4, #94]	; 0x5e
    7a48:	4798      	blx	r3
    7a4a:	4b71      	ldr	r3, [pc, #452]	; (7c10 <StepDown_Start+0x1d4>)
    7a4c:	4798      	blx	r3
    7a4e:	fab5 f585 	clz	r5, r5
    7a52:	4b70      	ldr	r3, [pc, #448]	; (7c14 <StepDown_Start+0x1d8>)
    7a54:	4798      	blx	r3
    7a56:	096d      	lsrs	r5, r5, #5
    7a58:	4b6f      	ldr	r3, [pc, #444]	; (7c18 <StepDown_Start+0x1dc>)
    7a5a:	4798      	blx	r3
    7a5c:	eb04 1385 	add.w	r3, r4, r5, lsl #6
    7a60:	4a6e      	ldr	r2, [pc, #440]	; (7c1c <StepDown_Start+0x1e0>)
    7a62:	f8d3 0062 	ldr.w	r0, [r3, #98]	; 0x62
    7a66:	6410      	str	r0, [r2, #64]	; 0x40
    7a68:	f8d3 60e2 	ldr.w	r6, [r3, #226]	; 0xe2
    7a6c:	6456      	str	r6, [r2, #68]	; 0x44
    7a6e:	f8d3 0162 	ldr.w	r0, [r3, #354]	; 0x162
    7a72:	6490      	str	r0, [r2, #72]	; 0x48
    7a74:	f04f 0c01 	mov.w	ip, #1
    7a78:	f04f 0eff 	mov.w	lr, #255	; 0xff
    7a7c:	f884 505e 	strb.w	r5, [r4, #94]	; 0x5e
    7a80:	f884 c05f 	strb.w	ip, [r4, #95]	; 0x5f
    7a84:	f884 e1f2 	strb.w	lr, [r4, #498]	; 0x1f2
    7a88:	f8d3 7062 	ldr.w	r7, [r3, #98]	; 0x62
    7a8c:	4e64      	ldr	r6, [pc, #400]	; (7c20 <StepDown_Start+0x1e4>)
    7a8e:	4865      	ldr	r0, [pc, #404]	; (7c24 <StepDown_Start+0x1e8>)
    7a90:	4965      	ldr	r1, [pc, #404]	; (7c28 <StepDown_Start+0x1ec>)
    7a92:	b2bf      	uxth	r7, r7
    7a94:	3f01      	subs	r7, #1
    7a96:	6357      	str	r7, [r2, #52]	; 0x34
    7a98:	f8d3 7262 	ldr.w	r7, [r3, #610]	; 0x262
    7a9c:	6437      	str	r7, [r6, #64]	; 0x40
    7a9e:	f8d3 92e2 	ldr.w	r9, [r3, #738]	; 0x2e2
    7aa2:	f8c6 9044 	str.w	r9, [r6, #68]	; 0x44
    7aa6:	f8d3 7362 	ldr.w	r7, [r3, #866]	; 0x362
    7aaa:	6537      	str	r7, [r6, #80]	; 0x50
    7aac:	f884 525e 	strb.w	r5, [r4, #606]	; 0x25e
    7ab0:	f884 c25f 	strb.w	ip, [r4, #607]	; 0x25f
    7ab4:	f884 e3f2 	strb.w	lr, [r4, #1010]	; 0x3f2
    7ab8:	f8d3 7262 	ldr.w	r7, [r3, #610]	; 0x262
    7abc:	b2bf      	uxth	r7, r7
    7abe:	f2a7 472f 	subw	r7, r7, #1071	; 0x42f
    7ac2:	6377      	str	r7, [r6, #52]	; 0x34
    7ac4:	f8d3 7462 	ldr.w	r7, [r3, #1122]	; 0x462
    7ac8:	6407      	str	r7, [r0, #64]	; 0x40
    7aca:	f8d3 94e2 	ldr.w	r9, [r3, #1250]	; 0x4e2
    7ace:	f8c0 9044 	str.w	r9, [r0, #68]	; 0x44
    7ad2:	f8d3 7562 	ldr.w	r7, [r3, #1378]	; 0x562
    7ad6:	64c7      	str	r7, [r0, #76]	; 0x4c
    7ad8:	f884 545e 	strb.w	r5, [r4, #1118]	; 0x45e
    7adc:	f884 c45f 	strb.w	ip, [r4, #1119]	; 0x45f
    7ae0:	f884 e5f2 	strb.w	lr, [r4, #1522]	; 0x5f2
    7ae4:	f8d3 7462 	ldr.w	r7, [r3, #1122]	; 0x462
    7ae8:	b2bf      	uxth	r7, r7
    7aea:	f6a7 075e 	subw	r7, r7, #2142	; 0x85e
    7aee:	6347      	str	r7, [r0, #52]	; 0x34
    7af0:	f8d3 7662 	ldr.w	r7, [r3, #1634]	; 0x662
    7af4:	640f      	str	r7, [r1, #64]	; 0x40
    7af6:	f503 67dc 	add.w	r7, r3, #1760	; 0x6e0
    7afa:	f503 68cc 	add.w	r8, r3, #1632	; 0x660
    7afe:	f8d7 7002 	ldr.w	r7, [r7, #2]
    7b02:	644f      	str	r7, [r1, #68]	; 0x44
    7b04:	f503 63ec 	add.w	r3, r3, #1888	; 0x760
    7b08:	f8d3 3002 	ldr.w	r3, [r3, #2]
    7b0c:	648b      	str	r3, [r1, #72]	; 0x48
    7b0e:	f884 565e 	strb.w	r5, [r4, #1630]	; 0x65e
    7b12:	f884 c65f 	strb.w	ip, [r4, #1631]	; 0x65f
    7b16:	f884 e7f2 	strb.w	lr, [r4, #2034]	; 0x7f2
    7b1a:	f8d8 3002 	ldr.w	r3, [r8, #2]
    7b1e:	b29b      	uxth	r3, r3
    7b20:	f6a3 438d 	subw	r3, r3, #3213	; 0xc8d
    7b24:	634b      	str	r3, [r1, #52]	; 0x34
    7b26:	b672      	cpsid	i
    7b28:	6813      	ldr	r3, [r2, #0]
    7b2a:	f043 0302 	orr.w	r3, r3, #2
    7b2e:	6013      	str	r3, [r2, #0]
    7b30:	6833      	ldr	r3, [r6, #0]
    7b32:	f043 0302 	orr.w	r3, r3, #2
    7b36:	6033      	str	r3, [r6, #0]
    7b38:	6803      	ldr	r3, [r0, #0]
    7b3a:	f043 0302 	orr.w	r3, r3, #2
    7b3e:	6003      	str	r3, [r0, #0]
    7b40:	680b      	ldr	r3, [r1, #0]
    7b42:	f043 0302 	orr.w	r3, r3, #2
    7b46:	600b      	str	r3, [r1, #0]
    7b48:	6893      	ldr	r3, [r2, #8]
    7b4a:	079c      	lsls	r4, r3, #30
    7b4c:	d4fc      	bmi.n	7b48 <StepDown_Start+0x10c>
    7b4e:	4a34      	ldr	r2, [pc, #208]	; (7c20 <StepDown_Start+0x1e4>)
    7b50:	6893      	ldr	r3, [r2, #8]
    7b52:	0798      	lsls	r0, r3, #30
    7b54:	d4fc      	bmi.n	7b50 <StepDown_Start+0x114>
    7b56:	4a33      	ldr	r2, [pc, #204]	; (7c24 <StepDown_Start+0x1e8>)
    7b58:	6893      	ldr	r3, [r2, #8]
    7b5a:	0799      	lsls	r1, r3, #30
    7b5c:	d4fc      	bmi.n	7b58 <StepDown_Start+0x11c>
    7b5e:	4a32      	ldr	r2, [pc, #200]	; (7c28 <StepDown_Start+0x1ec>)
    7b60:	6893      	ldr	r3, [r2, #8]
    7b62:	079b      	lsls	r3, r3, #30
    7b64:	d4fc      	bmi.n	7b60 <StepDown_Start+0x124>
    7b66:	b662      	cpsie	i
    7b68:	4830      	ldr	r0, [pc, #192]	; (7c2c <StepDown_Start+0x1f0>)
    7b6a:	4b31      	ldr	r3, [pc, #196]	; (7c30 <StepDown_Start+0x1f4>)
    7b6c:	4c31      	ldr	r4, [pc, #196]	; (7c34 <StepDown_Start+0x1f8>)
    7b6e:	6144      	str	r4, [r0, #20]
    7b70:	f893 20cd 	ldrb.w	r2, [r3, #205]	; 0xcd
    7b74:	4930      	ldr	r1, [pc, #192]	; (7c38 <StepDown_Start+0x1fc>)
    7b76:	f002 02fe 	and.w	r2, r2, #254	; 0xfe
    7b7a:	f042 0201 	orr.w	r2, r2, #1
    7b7e:	f883 20cd 	strb.w	r2, [r3, #205]	; 0xcd
    7b82:	f893 20b6 	ldrb.w	r2, [r3, #182]	; 0xb6
    7b86:	f002 020f 	and.w	r2, r2, #15
    7b8a:	f042 0250 	orr.w	r2, r2, #80	; 0x50
    7b8e:	f883 20b6 	strb.w	r2, [r3, #182]	; 0xb6
    7b92:	60c4      	str	r4, [r0, #12]
    7b94:	f893 2053 	ldrb.w	r2, [r3, #83]	; 0x53
    7b98:	f002 02fe 	and.w	r2, r2, #254	; 0xfe
    7b9c:	f042 0201 	orr.w	r2, r2, #1
    7ba0:	f883 2053 	strb.w	r2, [r3, #83]	; 0x53
    7ba4:	f893 2039 	ldrb.w	r2, [r3, #57]	; 0x39
    7ba8:	f002 020f 	and.w	r2, r2, #15
    7bac:	f042 0250 	orr.w	r2, r2, #80	; 0x50
    7bb0:	f883 2039 	strb.w	r2, [r3, #57]	; 0x39
    7bb4:	6104      	str	r4, [r0, #16]
    7bb6:	f893 2058 	ldrb.w	r2, [r3, #88]	; 0x58
    7bba:	f002 02fe 	and.w	r2, r2, #254	; 0xfe
    7bbe:	f042 0201 	orr.w	r2, r2, #1
    7bc2:	f883 2058 	strb.w	r2, [r3, #88]	; 0x58
    7bc6:	f893 203c 	ldrb.w	r2, [r3, #60]	; 0x3c
    7bca:	f002 02f0 	and.w	r2, r2, #240	; 0xf0
    7bce:	f042 0205 	orr.w	r2, r2, #5
    7bd2:	f883 203c 	strb.w	r2, [r3, #60]	; 0x3c
    7bd6:	6084      	str	r4, [r0, #8]
    7bd8:	f893 2055 	ldrb.w	r2, [r3, #85]	; 0x55
    7bdc:	f002 02fe 	and.w	r2, r2, #254	; 0xfe
    7be0:	f042 0201 	orr.w	r2, r2, #1
    7be4:	f883 2055 	strb.w	r2, [r3, #85]	; 0x55
    7be8:	f893 203a 	ldrb.w	r2, [r3, #58]	; 0x3a
    7bec:	f002 020f 	and.w	r2, r2, #15
    7bf0:	f042 0260 	orr.w	r2, r2, #96	; 0x60
    7bf4:	2001      	movs	r0, #1
    7bf6:	f883 203a 	strb.w	r2, [r3, #58]	; 0x3a
    7bfa:	f881 002e 	strb.w	r0, [r1, #46]	; 0x2e
    7bfe:	f881 002f 	strb.w	r0, [r1, #47]	; 0x2f
    7c02:	e8bd 83f8 	ldmia.w	sp!, {r3, r4, r5, r6, r7, r8, r9, pc}
    7c06:	bf00      	nop
    7c08:	20002204 	.word	0x20002204
    7c0c:	00006aa5 	.word	0x00006aa5
    7c10:	00006b1d 	.word	0x00006b1d
    7c14:	00006b95 	.word	0x00006b95
    7c18:	00006c09 	.word	0x00006c09
    7c1c:	42001000 	.word	0x42001000
    7c20:	41018000 	.word	0x41018000
    7c24:	42000c00 	.word	0x42000c00
    7c28:	41016000 	.word	0x41016000
    7c2c:	42003800 	.word	0x42003800
    7c30:	41008000 	.word	0x41008000
    7c34:	01606802 	.word	0x01606802
    7c38:	20003624 	.word	0x20003624
    7c3c:	00000000 	.word	0x00000000

00007c40 <StepDown_SetOutputs>:
    7c40:	e92d 4ff0 	stmdb	sp!, {r4, r5, r6, r7, r8, r9, sl, fp, lr}
    7c44:	b08d      	sub	sp, #52	; 0x34
    7c46:	2300      	movs	r3, #0
    7c48:	f8df a374 	ldr.w	sl, [pc, #884]	; 7fc0 <StepDown_SetOutputs+0x380>
    7c4c:	9302      	str	r3, [sp, #8]
    7c4e:	9304      	str	r3, [sp, #16]
    7c50:	9306      	str	r3, [sp, #24]
    7c52:	9305      	str	r3, [sp, #20]
    7c54:	9902      	ldr	r1, [sp, #8]
    7c56:	024e      	lsls	r6, r1, #9
    7c58:	eb0a 0306 	add.w	r3, sl, r6
    7c5c:	685a      	ldr	r2, [r3, #4]
    7c5e:	2a00      	cmp	r2, #0
    7c60:	f340 81d4 	ble.w	800c <StepDown_SetOutputs+0x3cc>
    7c64:	b2ca      	uxtb	r2, r1
    7c66:	6adb      	ldr	r3, [r3, #44]	; 0x2c
    7c68:	9203      	str	r2, [sp, #12]
    7c6a:	4610      	mov	r0, r2
    7c6c:	4798      	blx	r3
    7c6e:	eb0a 0306 	add.w	r3, sl, r6
    7c72:	699b      	ldr	r3, [r3, #24]
    7c74:	2b00      	cmp	r3, #0
    7c76:	dd03      	ble.n	7c80 <StepDown_SetOutputs+0x40>
    7c78:	9b06      	ldr	r3, [sp, #24]
    7c7a:	3301      	adds	r3, #1
    7c7c:	b2db      	uxtb	r3, r3
    7c7e:	9306      	str	r3, [sp, #24]
    7c80:	eb0a 0306 	add.w	r3, sl, r6
    7c84:	699b      	ldr	r3, [r3, #24]
    7c86:	9307      	str	r3, [sp, #28]
    7c88:	9b02      	ldr	r3, [sp, #8]
    7c8a:	b913      	cbnz	r3, 7c92 <StepDown_SetOutputs+0x52>
    7c8c:	23ff      	movs	r3, #255	; 0xff
    7c8e:	f88a 3800 	strb.w	r3, [sl, #2048]	; 0x800
    7c92:	eb0a 0306 	add.w	r3, sl, r6
    7c96:	f893 505e 	ldrb.w	r5, [r3, #94]	; 0x5e
    7c9a:	685a      	ldr	r2, [r3, #4]
    7c9c:	b2ed      	uxtb	r5, r5
    7c9e:	2a00      	cmp	r2, #0
    7ca0:	f000 8114 	beq.w	7ecc <StepDown_SetOutputs+0x28c>
    7ca4:	4abf      	ldr	r2, [pc, #764]	; (7fa4 <StepDown_SetOutputs+0x364>)
    7ca6:	8992      	ldrh	r2, [r2, #12]
    7ca8:	2a00      	cmp	r2, #0
    7caa:	f040 810f 	bne.w	7ecc <StepDown_SetOutputs+0x28c>
    7cae:	f99a 4800 	ldrsb.w	r4, [sl, #2048]	; 0x800
    7cb2:	2c00      	cmp	r4, #0
    7cb4:	f2c0 81c3 	blt.w	803e <StepDown_SetOutputs+0x3fe>
    7cb8:	eb0a 2244 	add.w	r2, sl, r4, lsl #9
    7cbc:	6912      	ldr	r2, [r2, #16]
    7cbe:	611a      	str	r2, [r3, #16]
    7cc0:	fab5 f385 	clz	r3, r5
    7cc4:	095b      	lsrs	r3, r3, #5
    7cc6:	9a02      	ldr	r2, [sp, #8]
    7cc8:	9308      	str	r3, [sp, #32]
    7cca:	eb0a 0b06 	add.w	fp, sl, r6
    7cce:	011b      	lsls	r3, r3, #4
    7cd0:	eb03 18c2 	add.w	r8, r3, r2, lsl #7
    7cd4:	9301      	str	r3, [sp, #4]
    7cd6:	f10b 0348 	add.w	r3, fp, #72	; 0x48
    7cda:	461f      	mov	r7, r3
    7cdc:	9609      	str	r6, [sp, #36]	; 0x24
    7cde:	f8df 92e4 	ldr.w	r9, [pc, #740]	; 7fc4 <StepDown_SetOutputs+0x384>
    7ce2:	2500      	movs	r5, #0
    7ce4:	4623      	mov	r3, r4
    7ce6:	4646      	mov	r6, r8
    7ce8:	e061      	b.n	7dae <StepDown_SetOutputs+0x16e>
    7cea:	f8d0 8002 	ldr.w	r8, [r0, #2]
    7cee:	f1a8 0e03 	sub.w	lr, r8, #3
    7cf2:	1973      	adds	r3, r6, r5
    7cf4:	3318      	adds	r3, #24
    7cf6:	eb0a 0383 	add.w	r3, sl, r3, lsl #2
    7cfa:	f240 102d 	movw	r0, #301	; 0x12d
    7cfe:	f8d3 8002 	ldr.w	r8, [r3, #2]
    7d02:	f8bb 2040 	ldrh.w	r2, [fp, #64]	; 0x40
    7d06:	f8bb 3036 	ldrh.w	r3, [fp, #54]	; 0x36
    7d0a:	eba8 080e 	sub.w	r8, r8, lr
    7d0e:	fb00 f008 	mul.w	r0, r0, r8
    7d12:	0b00      	lsrs	r0, r0, #12
    7d14:	b292      	uxth	r2, r2
    7d16:	fb02 f200 	mul.w	r2, r2, r0
    7d1a:	0b12      	lsrs	r2, r2, #12
    7d1c:	f8bb e042 	ldrh.w	lr, [fp, #66]	; 0x42
    7d20:	48a1      	ldr	r0, [pc, #644]	; (7fa8 <StepDown_SetOutputs+0x368>)
    7d22:	b29b      	uxth	r3, r3
    7d24:	f202 22ea 	addw	r2, r2, #746	; 0x2ea
    7d28:	fb03 f202 	mul.w	r2, r3, r2
    7d2c:	4b9f      	ldr	r3, [pc, #636]	; (7fac <StepDown_SetOutputs+0x36c>)
    7d2e:	fa1f fe8e 	uxth.w	lr, lr
    7d32:	fbb2 f4fe 	udiv	r4, r2, lr
    7d36:	4798      	blx	r3
    7d38:	f8db 3004 	ldr.w	r3, [fp, #4]
    7d3c:	f5b3 0f00 	cmp.w	r3, #8388608	; 0x800000
    7d40:	f000 003f 	and.w	r0, r0, #63	; 0x3f
    7d44:	db5f      	blt.n	7e06 <StepDown_SetOutputs+0x1c6>
    7d46:	f8db 3004 	ldr.w	r3, [fp, #4]
    7d4a:	f5b3 0f30 	cmp.w	r3, #11534336	; 0xb00000
    7d4e:	dc5a      	bgt.n	7e06 <StepDown_SetOutputs+0x1c6>
    7d50:	f8db 3004 	ldr.w	r3, [fp, #4]
    7d54:	4a96      	ldr	r2, [pc, #600]	; (7fb0 <StepDown_SetOutputs+0x370>)
    7d56:	f5c3 0330 	rsb	r3, r3, #11534336	; 0xb00000
    7d5a:	fb00 f003 	mul.w	r0, r0, r3
    7d5e:	fba2 3000 	umull	r3, r0, r2, r0
    7d62:	0d40      	lsrs	r0, r0, #21
    7d64:	f8d9 3000 	ldr.w	r3, [r9]
    7d68:	f893 3041 	ldrb.w	r3, [r3, #65]	; 0x41
    7d6c:	3b01      	subs	r3, #1
    7d6e:	2b01      	cmp	r3, #1
    7d70:	bf98      	it	ls
    7d72:	2000      	movls	r0, #0
    7d74:	1822      	adds	r2, r4, r0
    7d76:	f1b8 0f00 	cmp.w	r8, #0
    7d7a:	d101      	bne.n	7d80 <StepDown_SetOutputs+0x140>
    7d7c:	f04f 0801 	mov.w	r8, #1
    7d80:	1973      	adds	r3, r6, r5
    7d82:	3338      	adds	r3, #56	; 0x38
    7d84:	4542      	cmp	r2, r8
    7d86:	46c4      	mov	ip, r8
    7d88:	eb0a 0383 	add.w	r3, sl, r3, lsl #2
    7d8c:	d257      	bcs.n	7e3e <StepDown_SetOutputs+0x1fe>
    7d8e:	eba8 0802 	sub.w	r8, r8, r2
    7d92:	f8c3 8002 	str.w	r8, [r3, #2]
    7d96:	1973      	adds	r3, r6, r5
    7d98:	3358      	adds	r3, #88	; 0x58
    7d9a:	eb0a 0383 	add.w	r3, sl, r3, lsl #2
    7d9e:	3501      	adds	r5, #1
    7da0:	2d10      	cmp	r5, #16
    7da2:	f8c3 c002 	str.w	ip, [r3, #2]
    7da6:	f000 810f 	beq.w	7fc8 <StepDown_SetOutputs+0x388>
    7daa:	f99a 3800 	ldrsb.w	r3, [sl, #2048]	; 0x800
    7dae:	2b00      	cmp	r3, #0
    7db0:	db4c      	blt.n	7e4c <StepDown_SetOutputs+0x20c>
    7db2:	9a01      	ldr	r2, [sp, #4]
    7db4:	eb02 13c3 	add.w	r3, r2, r3, lsl #7
    7db8:	442b      	add	r3, r5
    7dba:	3318      	adds	r3, #24
    7dbc:	1972      	adds	r2, r6, r5
    7dbe:	eb0a 0383 	add.w	r3, sl, r3, lsl #2
    7dc2:	3218      	adds	r2, #24
    7dc4:	eb0a 0282 	add.w	r2, sl, r2, lsl #2
    7dc8:	f8d3 3002 	ldr.w	r3, [r3, #2]
    7dcc:	f8c2 3002 	str.w	r3, [r2, #2]
    7dd0:	1970      	adds	r0, r6, r5
    7dd2:	3018      	adds	r0, #24
    7dd4:	eb0a 0080 	add.w	r0, sl, r0, lsl #2
    7dd8:	f8d0 2002 	ldr.w	r2, [r0, #2]
    7ddc:	f8db 3004 	ldr.w	r3, [fp, #4]
    7de0:	f8d0 c002 	ldr.w	ip, [r0, #2]
    7de4:	fb82 2303 	smull	r2, r3, r2, r3
    7de8:	ea4f 6812 	mov.w	r8, r2, lsr #24
    7dec:	ea48 2803 	orr.w	r8, r8, r3, lsl #8
    7df0:	f108 0e03 	add.w	lr, r8, #3
    7df4:	45e6      	cmp	lr, ip
    7df6:	f63f af78 	bhi.w	7cea <StepDown_SetOutputs+0xaa>
    7dfa:	f1be 0f00 	cmp.w	lr, #0
    7dfe:	bf08      	it	eq
    7e00:	f04f 0e01 	moveq.w	lr, #1
    7e04:	e775      	b.n	7cf2 <StepDown_SetOutputs+0xb2>
    7e06:	f8db 3004 	ldr.w	r3, [fp, #4]
    7e0a:	f5b3 0f30 	cmp.w	r3, #11534336	; 0xb00000
    7e0e:	da14      	bge.n	7e3a <StepDown_SetOutputs+0x1fa>
    7e10:	f8db 3004 	ldr.w	r3, [fp, #4]
    7e14:	f5b3 6f80 	cmp.w	r3, #1024	; 0x400
    7e18:	dd0f      	ble.n	7e3a <StepDown_SetOutputs+0x1fa>
    7e1a:	f8db 3004 	ldr.w	r3, [fp, #4]
    7e1e:	f5b3 1f80 	cmp.w	r3, #1048576	; 0x100000
    7e22:	da9f      	bge.n	7d64 <StepDown_SetOutputs+0x124>
    7e24:	f8db 3004 	ldr.w	r3, [fp, #4]
    7e28:	f5a3 6380 	sub.w	r3, r3, #1024	; 0x400
    7e2c:	fb00 f003 	mul.w	r0, r0, r3
    7e30:	4b60      	ldr	r3, [pc, #384]	; (7fb4 <StepDown_SetOutputs+0x374>)
    7e32:	0a80      	lsrs	r0, r0, #10
    7e34:	fba3 3000 	umull	r3, r0, r3, r0
    7e38:	e794      	b.n	7d64 <StepDown_SetOutputs+0x124>
    7e3a:	2000      	movs	r0, #0
    7e3c:	e792      	b.n	7d64 <StepDown_SetOutputs+0x124>
    7e3e:	2201      	movs	r2, #1
    7e40:	8858      	ldrh	r0, [r3, #2]
    7e42:	805a      	strh	r2, [r3, #2]
    7e44:	2200      	movs	r2, #0
    7e46:	8898      	ldrh	r0, [r3, #4]
    7e48:	809a      	strh	r2, [r3, #4]
    7e4a:	e7a4      	b.n	7d96 <StepDown_SetOutputs+0x156>
    7e4c:	f8d7 3002 	ldr.w	r3, [r7, #2]
    7e50:	4a59      	ldr	r2, [pc, #356]	; (7fb8 <StepDown_SetOutputs+0x378>)
    7e52:	f5b3 0f00 	cmp.w	r3, #8388608	; 0x800000
    7e56:	f832 0015 	ldrh.w	r0, [r2, r5, lsl #1]
    7e5a:	f8d7 3002 	ldr.w	r3, [r7, #2]
    7e5e:	dc1b      	bgt.n	7e98 <StepDown_SetOutputs+0x258>
    7e60:	f8d7 2002 	ldr.w	r2, [r7, #2]
    7e64:	f5b2 2f80 	cmp.w	r2, #262144	; 0x40000
    7e68:	db1b      	blt.n	7ea2 <StepDown_SetOutputs+0x262>
    7e6a:	f5b3 1f80 	cmp.w	r3, #1048576	; 0x100000
    7e6e:	d203      	bcs.n	7e78 <StepDown_SetOutputs+0x238>
    7e70:	091b      	lsrs	r3, r3, #4
    7e72:	fb03 f000 	mul.w	r0, r3, r0
    7e76:	0c00      	lsrs	r0, r0, #16
    7e78:	1973      	adds	r3, r6, r5
    7e7a:	3318      	adds	r3, #24
    7e7c:	f8db 2010 	ldr.w	r2, [fp, #16]
    7e80:	eb0a 0383 	add.w	r3, sl, r3, lsl #2
    7e84:	f50b 7ef0 	add.w	lr, fp, #480	; 0x1e0
    7e88:	4410      	add	r0, r2
    7e8a:	f8de 2002 	ldr.w	r2, [lr, #2]
    7e8e:	fbb2 f2f0 	udiv	r2, r2, r0
    7e92:	f8c3 2002 	str.w	r2, [r3, #2]
    7e96:	e79b      	b.n	7dd0 <StepDown_SetOutputs+0x190>
    7e98:	4a48      	ldr	r2, [pc, #288]	; (7fbc <StepDown_SetOutputs+0x37c>)
    7e9a:	4293      	cmp	r3, r2
    7e9c:	dd04      	ble.n	7ea8 <StepDown_SetOutputs+0x268>
    7e9e:	0880      	lsrs	r0, r0, #2
    7ea0:	e7ea      	b.n	7e78 <StepDown_SetOutputs+0x238>
    7ea2:	f44f 4380 	mov.w	r3, #16384	; 0x4000
    7ea6:	e7e4      	b.n	7e72 <StepDown_SetOutputs+0x232>
    7ea8:	f8d7 3002 	ldr.w	r3, [r7, #2]
    7eac:	f5b3 0f30 	cmp.w	r3, #11534336	; 0xb00000
    7eb0:	f280 80c3 	bge.w	803a <StepDown_SetOutputs+0x3fa>
    7eb4:	f8d7 3002 	ldr.w	r3, [r7, #2]
    7eb8:	4a3d      	ldr	r2, [pc, #244]	; (7fb0 <StepDown_SetOutputs+0x370>)
    7eba:	f5c3 0330 	rsb	r3, r3, #11534336	; 0xb00000
    7ebe:	111b      	asrs	r3, r3, #4
    7ec0:	fb00 f003 	mul.w	r0, r0, r3
    7ec4:	fba2 3000 	umull	r3, r0, r2, r0
    7ec8:	0c40      	lsrs	r0, r0, #17
    7eca:	e7d5      	b.n	7e78 <StepDown_SetOutputs+0x238>
    7ecc:	eb0a 0306 	add.w	r3, sl, r6
    7ed0:	2000      	movs	r0, #0
    7ed2:	6198      	str	r0, [r3, #24]
    7ed4:	6b1b      	ldr	r3, [r3, #48]	; 0x30
    7ed6:	9903      	ldr	r1, [sp, #12]
    7ed8:	4798      	blx	r3
    7eda:	eb0a 0306 	add.w	r3, sl, r6
    7ede:	699b      	ldr	r3, [r3, #24]
    7ee0:	2b00      	cmp	r3, #0
    7ee2:	dd06      	ble.n	7ef2 <StepDown_SetOutputs+0x2b2>
    7ee4:	9a05      	ldr	r2, [sp, #20]
    7ee6:	9903      	ldr	r1, [sp, #12]
    7ee8:	4613      	mov	r3, r2
    7eea:	2a00      	cmp	r2, #0
    7eec:	bf08      	it	eq
    7eee:	460b      	moveq	r3, r1
    7ef0:	9305      	str	r3, [sp, #20]
    7ef2:	4456      	add	r6, sl
    7ef4:	69b3      	ldr	r3, [r6, #24]
    7ef6:	2b00      	cmp	r3, #0
    7ef8:	dd03      	ble.n	7f02 <StepDown_SetOutputs+0x2c2>
    7efa:	9b04      	ldr	r3, [sp, #16]
    7efc:	3301      	adds	r3, #1
    7efe:	b2db      	uxtb	r3, r3
    7f00:	9304      	str	r3, [sp, #16]
    7f02:	9b02      	ldr	r3, [sp, #8]
    7f04:	3301      	adds	r3, #1
    7f06:	2b04      	cmp	r3, #4
    7f08:	9302      	str	r3, [sp, #8]
    7f0a:	f47f aea3 	bne.w	7c54 <StepDown_SetOutputs+0x14>
    7f0e:	9b04      	ldr	r3, [sp, #16]
    7f10:	2b00      	cmp	r3, #0
    7f12:	f000 809d 	beq.w	8050 <StepDown_SetOutputs+0x410>
    7f16:	9b05      	ldr	r3, [sp, #20]
    7f18:	2500      	movs	r5, #0
    7f1a:	01de      	lsls	r6, r3, #7
    7f1c:	eb0a 2345 	add.w	r3, sl, r5, lsl #9
    7f20:	6999      	ldr	r1, [r3, #24]
    7f22:	bb39      	cbnz	r1, 7f74 <StepDown_SetOutputs+0x334>
    7f24:	f893 005e 	ldrb.w	r0, [r3, #94]	; 0x5e
    7f28:	fab0 f080 	clz	r0, r0
    7f2c:	0940      	lsrs	r0, r0, #5
    7f2e:	0100      	lsls	r0, r0, #4
    7f30:	1984      	adds	r4, r0, r6
    7f32:	eb00 10c5 	add.w	r0, r0, r5, lsl #7
    7f36:	1862      	adds	r2, r4, r1
    7f38:	3218      	adds	r2, #24
    7f3a:	eb0a 0282 	add.w	r2, sl, r2, lsl #2
    7f3e:	1843      	adds	r3, r0, r1
    7f40:	f8d2 e002 	ldr.w	lr, [r2, #2]
    7f44:	f103 0718 	add.w	r7, r3, #24
    7f48:	f103 0258 	add.w	r2, r3, #88	; 0x58
    7f4c:	3338      	adds	r3, #56	; 0x38
    7f4e:	eb0a 0787 	add.w	r7, sl, r7, lsl #2
    7f52:	eb0a 0282 	add.w	r2, sl, r2, lsl #2
    7f56:	eb0a 0383 	add.w	r3, sl, r3, lsl #2
    7f5a:	3101      	adds	r1, #1
    7f5c:	f10e 38ff 	add.w	r8, lr, #4294967295
    7f60:	f1ae 0c02 	sub.w	ip, lr, #2
    7f64:	2910      	cmp	r1, #16
    7f66:	f8c7 e002 	str.w	lr, [r7, #2]
    7f6a:	f8c2 8002 	str.w	r8, [r2, #2]
    7f6e:	f8c3 c002 	str.w	ip, [r3, #2]
    7f72:	d1e0      	bne.n	7f36 <StepDown_SetOutputs+0x2f6>
    7f74:	3501      	adds	r5, #1
    7f76:	2d04      	cmp	r5, #4
    7f78:	d1d0      	bne.n	7f1c <StepDown_SetOutputs+0x2dc>
    7f7a:	9b06      	ldr	r3, [sp, #24]
    7f7c:	2b00      	cmp	r3, #0
    7f7e:	f000 80d8 	beq.w	8132 <StepDown_SetOutputs+0x4f2>
    7f82:	9b05      	ldr	r3, [sp, #20]
    7f84:	eb0a 2343 	add.w	r3, sl, r3, lsl #9
    7f88:	f893 305f 	ldrb.w	r3, [r3, #95]	; 0x5f
    7f8c:	3302      	adds	r3, #2
    7f8e:	f003 030f 	and.w	r3, r3, #15
    7f92:	f88a 31f2 	strb.w	r3, [sl, #498]	; 0x1f2
    7f96:	f88a 33f2 	strb.w	r3, [sl, #1010]	; 0x3f2
    7f9a:	f88a 35f2 	strb.w	r3, [sl, #1522]	; 0x5f2
    7f9e:	f88a 37f2 	strb.w	r3, [sl, #2034]	; 0x7f2
    7fa2:	e08d      	b.n	80c0 <StepDown_SetOutputs+0x480>
    7fa4:	20003624 	.word	0x20003624
    7fa8:	2000f15c 	.word	0x2000f15c
    7fac:	00008c31 	.word	0x00008c31
    7fb0:	aaaaaaab 	.word	0xaaaaaaab
    7fb4:	00401005 	.word	0x00401005
    7fb8:	000119b8 	.word	0x000119b8
    7fbc:	00a3ffff 	.word	0x00a3ffff
    7fc0:	20002204 	.word	0x20002204
    7fc4:	2000ee34 	.word	0x2000ee34
    7fc8:	9a02      	ldr	r2, [sp, #8]
    7fca:	9b08      	ldr	r3, [sp, #32]
    7fcc:	9e09      	ldr	r6, [sp, #36]	; 0x24
    7fce:	eb03 03c2 	add.w	r3, r3, r2, lsl #3
    7fd2:	eb0a 1383 	add.w	r3, sl, r3, lsl #6
    7fd6:	eb0a 0206 	add.w	r2, sl, r6
    7fda:	f8d3 1062 	ldr.w	r1, [r3, #98]	; 0x62
    7fde:	6151      	str	r1, [r2, #20]
    7fe0:	f503 73b0 	add.w	r3, r3, #352	; 0x160
    7fe4:	f8d3 3002 	ldr.w	r3, [r3, #2]
    7fe8:	6193      	str	r3, [r2, #24]
    7fea:	9b07      	ldr	r3, [sp, #28]
    7fec:	b92b      	cbnz	r3, 7ffa <StepDown_SetOutputs+0x3ba>
    7fee:	4b5c      	ldr	r3, [pc, #368]	; (8160 <StepDown_SetOutputs+0x520>)
    7ff0:	f893 302e 	ldrb.w	r3, [r3, #46]	; 0x2e
    7ff4:	2b00      	cmp	r3, #0
    7ff6:	f040 8091 	bne.w	811c <StepDown_SetOutputs+0x4dc>
    7ffa:	f99a 3800 	ldrsb.w	r3, [sl, #2048]	; 0x800
    7ffe:	2b00      	cmp	r3, #0
    8000:	bfbc      	itt	lt
    8002:	f89d 3008 	ldrblt.w	r3, [sp, #8]
    8006:	f88a 3800 	strblt.w	r3, [sl, #2048]	; 0x800
    800a:	e766      	b.n	7eda <StepDown_SetOutputs+0x29a>
    800c:	2200      	movs	r2, #0
    800e:	f8b3 11ea 	ldrh.w	r1, [r3, #490]	; 0x1ea
    8012:	f8a3 21ea 	strh.w	r2, [r3, #490]	; 0x1ea
    8016:	f8b3 41ec 	ldrh.w	r4, [r3, #492]	; 0x1ec
    801a:	f8a3 21ec 	strh.w	r2, [r3, #492]	; 0x1ec
    801e:	f8b3 01e6 	ldrh.w	r0, [r3, #486]	; 0x1e6
    8022:	f89d 1008 	ldrb.w	r1, [sp, #8]
    8026:	f8a3 21e6 	strh.w	r2, [r3, #486]	; 0x1e6
    802a:	f8b3 01e8 	ldrh.w	r0, [r3, #488]	; 0x1e8
    802e:	9103      	str	r1, [sp, #12]
    8030:	f8a3 21e8 	strh.w	r2, [r3, #488]	; 0x1e8
    8034:	f8a3 2040 	strh.w	r2, [r3, #64]	; 0x40
    8038:	e619      	b.n	7c6e <StepDown_SetOutputs+0x2e>
    803a:	2000      	movs	r0, #0
    803c:	e71c      	b.n	7e78 <StepDown_SetOutputs+0x238>
    803e:	3348      	adds	r3, #72	; 0x48
    8040:	f8d3 3002 	ldr.w	r3, [r3, #2]
    8044:	2b00      	cmp	r3, #0
    8046:	d151      	bne.n	80ec <StepDown_SetOutputs+0x4ac>
    8048:	eb0a 0206 	add.w	r2, sl, r6
    804c:	6113      	str	r3, [r2, #16]
    804e:	e637      	b.n	7cc0 <StepDown_SetOutputs+0x80>
    8050:	9b06      	ldr	r3, [sp, #24]
    8052:	b94b      	cbnz	r3, 8068 <StepDown_SetOutputs+0x428>
    8054:	23ff      	movs	r3, #255	; 0xff
    8056:	f88a 31f2 	strb.w	r3, [sl, #498]	; 0x1f2
    805a:	f88a 33f2 	strb.w	r3, [sl, #1010]	; 0x3f2
    805e:	f88a 35f2 	strb.w	r3, [sl, #1522]	; 0x5f2
    8062:	f88a 37f2 	strb.w	r3, [sl, #2034]	; 0x7f2
    8066:	e02b      	b.n	80c0 <StepDown_SetOutputs+0x480>
    8068:	9b05      	ldr	r3, [sp, #20]
    806a:	4a3e      	ldr	r2, [pc, #248]	; (8164 <StepDown_SetOutputs+0x524>)
    806c:	4d3c      	ldr	r5, [pc, #240]	; (8160 <StepDown_SetOutputs+0x520>)
    806e:	eb0a 2343 	add.w	r3, sl, r3, lsl #9
    8072:	f893 305f 	ldrb.w	r3, [r3, #95]	; 0x5f
    8076:	3302      	adds	r3, #2
    8078:	f003 030f 	and.w	r3, r3, #15
    807c:	f88a 31f2 	strb.w	r3, [sl, #498]	; 0x1f2
    8080:	f88a 33f2 	strb.w	r3, [sl, #1010]	; 0x3f2
    8084:	f88a 35f2 	strb.w	r3, [sl, #1522]	; 0x5f2
    8088:	f88a 37f2 	strb.w	r3, [sl, #2034]	; 0x7f2
    808c:	4790      	blx	r2
    808e:	4836      	ldr	r0, [pc, #216]	; (8168 <StepDown_SetOutputs+0x528>)
    8090:	9f04      	ldr	r7, [sp, #16]
    8092:	6804      	ldr	r4, [r0, #0]
    8094:	4935      	ldr	r1, [pc, #212]	; (816c <StepDown_SetOutputs+0x52c>)
    8096:	4a36      	ldr	r2, [pc, #216]	; (8170 <StepDown_SetOutputs+0x530>)
    8098:	4b36      	ldr	r3, [pc, #216]	; (8174 <StepDown_SetOutputs+0x534>)
    809a:	f367 0441 	bfi	r4, r7, #1, #1
    809e:	6004      	str	r4, [r0, #0]
    80a0:	6808      	ldr	r0, [r1, #0]
    80a2:	f885 702e 	strb.w	r7, [r5, #46]	; 0x2e
    80a6:	f367 0041 	bfi	r0, r7, #1, #1
    80aa:	6008      	str	r0, [r1, #0]
    80ac:	6811      	ldr	r1, [r2, #0]
    80ae:	f367 0141 	bfi	r1, r7, #1, #1
    80b2:	6011      	str	r1, [r2, #0]
    80b4:	681a      	ldr	r2, [r3, #0]
    80b6:	f367 0241 	bfi	r2, r7, #1, #1
    80ba:	601a      	str	r2, [r3, #0]
    80bc:	4b2e      	ldr	r3, [pc, #184]	; (8178 <StepDown_SetOutputs+0x538>)
    80be:	4798      	blx	r3
    80c0:	f8ba 0040 	ldrh.w	r0, [sl, #64]	; 0x40
    80c4:	f8ad 0028 	strh.w	r0, [sp, #40]	; 0x28
    80c8:	f8ba 4240 	ldrh.w	r4, [sl, #576]	; 0x240
    80cc:	4b2b      	ldr	r3, [pc, #172]	; (817c <StepDown_SetOutputs+0x53c>)
    80ce:	f8ba 1440 	ldrh.w	r1, [sl, #1088]	; 0x440
    80d2:	f8ba 2640 	ldrh.w	r2, [sl, #1600]	; 0x640
    80d6:	f8ad 402a 	strh.w	r4, [sp, #42]	; 0x2a
    80da:	a80a      	add	r0, sp, #40	; 0x28
    80dc:	f8ad 102c 	strh.w	r1, [sp, #44]	; 0x2c
    80e0:	f8ad 202e 	strh.w	r2, [sp, #46]	; 0x2e
    80e4:	4798      	blx	r3
    80e6:	b00d      	add	sp, #52	; 0x34
    80e8:	e8bd 8ff0 	ldmia.w	sp!, {r4, r5, r6, r7, r8, r9, sl, fp, pc}
    80ec:	4a24      	ldr	r2, [pc, #144]	; (8180 <StepDown_SetOutputs+0x540>)
    80ee:	4293      	cmp	r3, r2
    80f0:	d919      	bls.n	8126 <StepDown_SetOutputs+0x4e6>
    80f2:	f5b3 0f80 	cmp.w	r3, #4194304	; 0x400000
    80f6:	d82a      	bhi.n	814e <StepDown_SetOutputs+0x50e>
    80f8:	f46f 72a9 	mvn.w	r2, #338	; 0x152
    80fc:	f5a3 33f1 	sub.w	r3, r3, #123392	; 0x1e200
    8100:	4413      	add	r3, r2
    8102:	f246 6026 	movw	r0, #26150	; 0x6626
    8106:	fba3 0100 	umull	r0, r1, r3, r0
    810a:	4f1e      	ldr	r7, [pc, #120]	; (8184 <StepDown_SetOutputs+0x544>)
    810c:	a312      	add	r3, pc, #72	; (adr r3, 8158 <StepDown_SetOutputs+0x518>)
    810e:	e9d3 2300 	ldrd	r2, r3, [r3]
    8112:	47b8      	blx	r7
    8114:	f200 733a 	addw	r3, r0, #1850	; 0x73a
    8118:	b29b      	uxth	r3, r3
    811a:	e795      	b.n	8048 <StepDown_SetOutputs+0x408>
    811c:	6b13      	ldr	r3, [r2, #48]	; 0x30
    811e:	9903      	ldr	r1, [sp, #12]
    8120:	2001      	movs	r0, #1
    8122:	4798      	blx	r3
    8124:	e769      	b.n	7ffa <StepDown_SetOutputs+0x3ba>
    8126:	eb0a 0206 	add.w	r2, sl, r6
    812a:	f240 733a 	movw	r3, #1850	; 0x73a
    812e:	6113      	str	r3, [r2, #16]
    8130:	e5c6      	b.n	7cc0 <StepDown_SetOutputs+0x80>
    8132:	23ff      	movs	r3, #255	; 0xff
    8134:	f88a 31f2 	strb.w	r3, [sl, #498]	; 0x1f2
    8138:	4a0a      	ldr	r2, [pc, #40]	; (8164 <StepDown_SetOutputs+0x524>)
    813a:	f88a 33f2 	strb.w	r3, [sl, #1010]	; 0x3f2
    813e:	f88a 35f2 	strb.w	r3, [sl, #1522]	; 0x5f2
    8142:	f88a 37f2 	strb.w	r3, [sl, #2034]	; 0x7f2
    8146:	4790      	blx	r2
    8148:	4b0f      	ldr	r3, [pc, #60]	; (8188 <StepDown_SetOutputs+0x548>)
    814a:	4798      	blx	r3
    814c:	e7b6      	b.n	80bc <StepDown_SetOutputs+0x47c>
    814e:	f646 5360 	movw	r3, #28000	; 0x6d60
    8152:	e779      	b.n	8048 <StepDown_SetOutputs+0x408>
    8154:	f3af 8000 	nop.w
    8158:	003e1cad 	.word	0x003e1cad
    815c:	00000000 	.word	0x00000000
    8160:	20003624 	.word	0x20003624
    8164:	0000ecd1 	.word	0x0000ecd1
    8168:	42001000 	.word	0x42001000
    816c:	41018000 	.word	0x41018000
    8170:	42000c00 	.word	0x42000c00
    8174:	41016000 	.word	0x41016000
    8178:	0000ee2d 	.word	0x0000ee2d
    817c:	000045bd 	.word	0x000045bd
    8180:	0001e353 	.word	0x0001e353
    8184:	00010705 	.word	0x00010705
    8188:	00007a3d 	.word	0x00007a3d

0000818c <StepDown_Task>:
    818c:	e92d 4ff0 	stmdb	sp!, {r4, r5, r6, r7, r8, r9, sl, fp, lr}
    8190:	4ba7      	ldr	r3, [pc, #668]	; (8430 <StepDown_Task+0x2a4>)
    8192:	4ea8      	ldr	r6, [pc, #672]	; (8434 <StepDown_Task+0x2a8>)
    8194:	b083      	sub	sp, #12
    8196:	4798      	blx	r3
    8198:	4ba7      	ldr	r3, [pc, #668]	; (8438 <StepDown_Task+0x2ac>)
    819a:	4aa8      	ldr	r2, [pc, #672]	; (843c <StepDown_Task+0x2b0>)
    819c:	2143      	movs	r1, #67	; 0x43
    819e:	f8c3 1090 	str.w	r1, [r3, #144]	; 0x90
    81a2:	6953      	ldr	r3, [r2, #20]
    81a4:	f443 6380 	orr.w	r3, r3, #1024	; 0x400
    81a8:	6153      	str	r3, [r2, #20]
    81aa:	7833      	ldrb	r3, [r6, #0]
    81ac:	f043 0301 	orr.w	r3, r3, #1
    81b0:	7033      	strb	r3, [r6, #0]
    81b2:	6873      	ldr	r3, [r6, #4]
    81b4:	f013 0301 	ands.w	r3, r3, #1
    81b8:	d1fb      	bne.n	81b2 <StepDown_Task+0x26>
    81ba:	6233      	str	r3, [r6, #32]
    81bc:	61f3      	str	r3, [r6, #28]
    81be:	69f2      	ldr	r2, [r6, #28]
    81c0:	4d9f      	ldr	r5, [pc, #636]	; (8440 <StepDown_Task+0x2b4>)
    81c2:	f8df b2d4 	ldr.w	fp, [pc, #724]	; 8498 <StepDown_Task+0x30c>
    81c6:	489f      	ldr	r0, [pc, #636]	; (8444 <StepDown_Task+0x2b8>)
    81c8:	f8df a2d0 	ldr.w	sl, [pc, #720]	; 849c <StepDown_Task+0x310>
    81cc:	4c9e      	ldr	r4, [pc, #632]	; (8448 <StepDown_Task+0x2bc>)
    81ce:	4f9f      	ldr	r7, [pc, #636]	; (844c <StepDown_Task+0x2c0>)
    81d0:	f8df 92cc 	ldr.w	r9, [pc, #716]	; 84a0 <StepDown_Task+0x314>
    81d4:	f8df 82cc 	ldr.w	r8, [pc, #716]	; 84a4 <StepDown_Task+0x318>
    81d8:	f042 7200 	orr.w	r2, r2, #33554432	; 0x2000000
    81dc:	61f2      	str	r2, [r6, #28]
    81de:	6a32      	ldr	r2, [r6, #32]
    81e0:	f442 5200 	orr.w	r2, r2, #8192	; 0x2000
    81e4:	6232      	str	r2, [r6, #32]
    81e6:	69f2      	ldr	r2, [r6, #28]
    81e8:	f442 3200 	orr.w	r2, r2, #131072	; 0x20000
    81ec:	61f2      	str	r2, [r6, #28]
    81ee:	69f2      	ldr	r2, [r6, #28]
    81f0:	f640 0e51 	movw	lr, #2129	; 0x851
    81f4:	f042 0202 	orr.w	r2, r2, #2
    81f8:	61f2      	str	r2, [r6, #28]
    81fa:	f8c6 e008 	str.w	lr, [r6, #8]
    81fe:	6b31      	ldr	r1, [r6, #48]	; 0x30
    8200:	2240      	movs	r2, #64	; 0x40
    8202:	ea41 010e 	orr.w	r1, r1, lr
    8206:	6331      	str	r1, [r6, #48]	; 0x30
    8208:	6373      	str	r3, [r6, #52]	; 0x34
    820a:	9300      	str	r3, [sp, #0]
    820c:	606a      	str	r2, [r5, #4]
    820e:	62a8      	str	r0, [r5, #40]	; 0x28
    8210:	f8c5 b028 	str.w	fp, [r5, #40]	; 0x28
    8214:	606a      	str	r2, [r5, #4]
    8216:	f895 1046 	ldrb.w	r1, [r5, #70]	; 0x46
    821a:	f041 0104 	orr.w	r1, r1, #4
    821e:	f885 1046 	strb.w	r1, [r5, #70]	; 0x46
    8222:	2006      	movs	r0, #6
    8224:	f44f 1118 	mov.w	r1, #2490368	; 0x260000
    8228:	61aa      	str	r2, [r5, #24]
    822a:	47d0      	blx	sl
    822c:	f44f 6200 	mov.w	r2, #2048	; 0x800
    8230:	4987      	ldr	r1, [pc, #540]	; (8450 <StepDown_Task+0x2c4>)
    8232:	606a      	str	r2, [r5, #4]
    8234:	62a9      	str	r1, [r5, #40]	; 0x28
    8236:	f8c5 b028 	str.w	fp, [r5, #40]	; 0x28
    823a:	606a      	str	r2, [r5, #4]
    823c:	f895 104b 	ldrb.w	r1, [r5, #75]	; 0x4b
    8240:	f041 0104 	orr.w	r1, r1, #4
    8244:	f885 104b 	strb.w	r1, [r5, #75]	; 0x4b
    8248:	200b      	movs	r0, #11
    824a:	f44f 112c 	mov.w	r1, #2818048	; 0x2b0000
    824e:	61aa      	str	r2, [r5, #24]
    8250:	47d0      	blx	sl
    8252:	2210      	movs	r2, #16
    8254:	497f      	ldr	r1, [pc, #508]	; (8454 <StepDown_Task+0x2c8>)
    8256:	606a      	str	r2, [r5, #4]
    8258:	62a9      	str	r1, [r5, #40]	; 0x28
    825a:	f8c5 b028 	str.w	fp, [r5, #40]	; 0x28
    825e:	606a      	str	r2, [r5, #4]
    8260:	f895 1044 	ldrb.w	r1, [r5, #68]	; 0x44
    8264:	f041 0104 	orr.w	r1, r1, #4
    8268:	f885 1044 	strb.w	r1, [r5, #68]	; 0x44
    826c:	2004      	movs	r0, #4
    826e:	f44f 1110 	mov.w	r1, #2359296	; 0x240000
    8272:	61aa      	str	r2, [r5, #24]
    8274:	47d0      	blx	sl
    8276:	2201      	movs	r2, #1
    8278:	4977      	ldr	r1, [pc, #476]	; (8458 <StepDown_Task+0x2cc>)
    827a:	606a      	str	r2, [r5, #4]
    827c:	62a9      	str	r1, [r5, #40]	; 0x28
    827e:	f8c5 b028 	str.w	fp, [r5, #40]	; 0x28
    8282:	606a      	str	r2, [r5, #4]
    8284:	f895 1040 	ldrb.w	r1, [r5, #64]	; 0x40
    8288:	f041 0104 	orr.w	r1, r1, #4
    828c:	f885 1040 	strb.w	r1, [r5, #64]	; 0x40
    8290:	61aa      	str	r2, [r5, #24]
    8292:	9b00      	ldr	r3, [sp, #0]
    8294:	4619      	mov	r1, r3
    8296:	4618      	mov	r0, r3
    8298:	47d0      	blx	sl
    829a:	7832      	ldrb	r2, [r6, #0]
    829c:	496f      	ldr	r1, [pc, #444]	; (845c <StepDown_Task+0x2d0>)
    829e:	f042 0202 	orr.w	r2, r2, #2
    82a2:	7032      	strb	r2, [r6, #0]
    82a4:	4788      	blx	r1
    82a6:	9b00      	ldr	r3, [sp, #0]
    82a8:	70a3      	strb	r3, [r4, #2]
    82aa:	461a      	mov	r2, r3
    82ac:	9301      	str	r3, [sp, #4]
    82ae:	b1aa      	cbz	r2, 82dc <StepDown_Task+0x150>
    82b0:	2002      	movs	r0, #2
    82b2:	4606      	mov	r6, r0
    82b4:	47b8      	blx	r7
    82b6:	89a3      	ldrh	r3, [r4, #12]
    82b8:	2252      	movs	r2, #82	; 0x52
    82ba:	f889 2011 	strb.w	r2, [r9, #17]
    82be:	b183      	cbz	r3, 82e2 <StepDown_Task+0x156>
    82c0:	3b01      	subs	r3, #1
    82c2:	f1c6 000a 	rsb	r0, r6, #10
    82c6:	81a3      	strh	r3, [r4, #12]
    82c8:	47b8      	blx	r7
    82ca:	4b65      	ldr	r3, [pc, #404]	; (8460 <StepDown_Task+0x2d4>)
    82cc:	4798      	blx	r3
    82ce:	8823      	ldrh	r3, [r4, #0]
    82d0:	2b18      	cmp	r3, #24
    82d2:	f200 80e9 	bhi.w	84a8 <StepDown_Task+0x31c>
    82d6:	78a2      	ldrb	r2, [r4, #2]
    82d8:	2a00      	cmp	r2, #0
    82da:	d1e9      	bne.n	82b0 <StepDown_Task+0x124>
    82dc:	2005      	movs	r0, #5
    82de:	4606      	mov	r6, r0
    82e0:	e7e8      	b.n	82b4 <StepDown_Task+0x128>
    82e2:	4b60      	ldr	r3, [pc, #384]	; (8464 <StepDown_Task+0x2d8>)
    82e4:	4798      	blx	r3
    82e6:	b940      	cbnz	r0, 82fa <StepDown_Task+0x16e>
    82e8:	4b5f      	ldr	r3, [pc, #380]	; (8468 <StepDown_Task+0x2dc>)
    82ea:	2064      	movs	r0, #100	; 0x64
    82ec:	4798      	blx	r3
    82ee:	f1c6 000a 	rsb	r0, r6, #10
    82f2:	47b8      	blx	r7
    82f4:	4b5d      	ldr	r3, [pc, #372]	; (846c <StepDown_Task+0x2e0>)
    82f6:	4798      	blx	r3
    82f8:	e7ed      	b.n	82d6 <StepDown_Task+0x14a>
    82fa:	4b5d      	ldr	r3, [pc, #372]	; (8470 <StepDown_Task+0x2e4>)
    82fc:	4798      	blx	r3
    82fe:	2800      	cmp	r0, #0
    8300:	f000 80df 	beq.w	84c2 <StepDown_Task+0x336>
    8304:	2500      	movs	r5, #0
    8306:	61a5      	str	r5, [r4, #24]
    8308:	4b5a      	ldr	r3, [pc, #360]	; (8474 <StepDown_Task+0x2e8>)
    830a:	eb03 2345 	add.w	r3, r3, r5, lsl #9
    830e:	f503 73f4 	add.w	r3, r3, #488	; 0x1e8
    8312:	3501      	adds	r5, #1
    8314:	f8d3 3002 	ldr.w	r3, [r3, #2]
    8318:	69a2      	ldr	r2, [r4, #24]
    831a:	2d04      	cmp	r5, #4
    831c:	4413      	add	r3, r2
    831e:	61a3      	str	r3, [r4, #24]
    8320:	d1f2      	bne.n	8308 <StepDown_Task+0x17c>
    8322:	8823      	ldrh	r3, [r4, #0]
    8324:	2b18      	cmp	r3, #24
    8326:	f200 80d2 	bhi.w	84ce <StepDown_Task+0x342>
    832a:	2326      	movs	r3, #38	; 0x26
    832c:	f8df a144 	ldr.w	sl, [pc, #324]	; 8474 <StepDown_Task+0x2e8>
    8330:	f889 3011 	strb.w	r3, [r9, #17]
    8334:	f04f 0b00 	mov.w	fp, #0
    8338:	f898 3003 	ldrb.w	r3, [r8, #3]
    833c:	455b      	cmp	r3, fp
    833e:	eb08 020b 	add.w	r2, r8, fp
    8342:	4651      	mov	r1, sl
    8344:	f04f 0000 	mov.w	r0, #0
    8348:	dd6e      	ble.n	8428 <StepDown_Task+0x29c>
    834a:	4b4b      	ldr	r3, [pc, #300]	; (8478 <StepDown_Task+0x2ec>)
    834c:	7e10      	ldrb	r0, [r2, #24]
    834e:	4798      	blx	r3
    8350:	4651      	mov	r1, sl
    8352:	4b4a      	ldr	r3, [pc, #296]	; (847c <StepDown_Task+0x2f0>)
    8354:	4798      	blx	r3
    8356:	f10b 0b01 	add.w	fp, fp, #1
    835a:	f1bb 0f04 	cmp.w	fp, #4
    835e:	f50a 7a00 	add.w	sl, sl, #512	; 0x200
    8362:	d1e9      	bne.n	8338 <StepDown_Task+0x1ac>
    8364:	222a      	movs	r2, #42	; 0x2a
    8366:	4b46      	ldr	r3, [pc, #280]	; (8480 <StepDown_Task+0x2f4>)
    8368:	f889 2011 	strb.w	r2, [r9, #17]
    836c:	4798      	blx	r3
    836e:	78a2      	ldrb	r2, [r4, #2]
    8370:	2a00      	cmp	r2, #0
    8372:	bf0c      	ite	eq
    8374:	200a      	moveq	r0, #10
    8376:	2005      	movne	r0, #5
    8378:	1b80      	subs	r0, r0, r6
    837a:	b280      	uxth	r0, r0
    837c:	47b8      	blx	r7
    837e:	2224      	movs	r2, #36	; 0x24
    8380:	4b40      	ldr	r3, [pc, #256]	; (8484 <StepDown_Task+0x2f8>)
    8382:	f889 2011 	strb.w	r2, [r9, #17]
    8386:	4798      	blx	r3
    8388:	2800      	cmp	r0, #0
    838a:	f000 80a3 	beq.w	84d4 <StepDown_Task+0x348>
    838e:	f894 2030 	ldrb.w	r2, [r4, #48]	; 0x30
    8392:	2a00      	cmp	r2, #0
    8394:	f000 80a5 	beq.w	84e2 <StepDown_Task+0x356>
    8398:	3a01      	subs	r2, #1
    839a:	f884 2030 	strb.w	r2, [r4, #48]	; 0x30
    839e:	78a3      	ldrb	r3, [r4, #2]
    83a0:	2b00      	cmp	r3, #0
    83a2:	f000 8084 	beq.w	84ae <StepDown_Task+0x322>
    83a6:	f894 3031 	ldrb.w	r3, [r4, #49]	; 0x31
    83aa:	2b00      	cmp	r3, #0
    83ac:	d17f      	bne.n	84ae <StepDown_Task+0x322>
    83ae:	2301      	movs	r3, #1
    83b0:	f884 3031 	strb.w	r3, [r4, #49]	; 0x31
    83b4:	4b34      	ldr	r3, [pc, #208]	; (8488 <StepDown_Task+0x2fc>)
    83b6:	4798      	blx	r3
    83b8:	9b00      	ldr	r3, [sp, #0]
    83ba:	4606      	mov	r6, r0
    83bc:	b92b      	cbnz	r3, 83ca <StepDown_Task+0x23e>
    83be:	4b33      	ldr	r3, [pc, #204]	; (848c <StepDown_Task+0x300>)
    83c0:	681b      	ldr	r3, [r3, #0]
    83c2:	075b      	lsls	r3, r3, #29
    83c4:	d423      	bmi.n	840e <StepDown_Task+0x282>
    83c6:	9600      	str	r6, [sp, #0]
    83c8:	e785      	b.n	82d6 <StepDown_Task+0x14a>
    83ca:	4b2a      	ldr	r3, [pc, #168]	; (8474 <StepDown_Task+0x2e8>)
    83cc:	8b9b      	ldrh	r3, [r3, #28]
    83ce:	b29b      	uxth	r3, r3
    83d0:	b933      	cbnz	r3, 83e0 <StepDown_Task+0x254>
    83d2:	3d01      	subs	r5, #1
    83d4:	d0f3      	beq.n	83be <StepDown_Task+0x232>
    83d6:	4b27      	ldr	r3, [pc, #156]	; (8474 <StepDown_Task+0x2e8>)
    83d8:	8b9b      	ldrh	r3, [r3, #28]
    83da:	b29b      	uxth	r3, r3
    83dc:	2b00      	cmp	r3, #0
    83de:	d0f8      	beq.n	83d2 <StepDown_Task+0x246>
    83e0:	78a3      	ldrb	r3, [r4, #2]
    83e2:	2b00      	cmp	r3, #0
    83e4:	9b00      	ldr	r3, [sp, #0]
    83e6:	eba6 0a03 	sub.w	sl, r6, r3
    83ea:	bf0c      	ite	eq
    83ec:	230a      	moveq	r3, #10
    83ee:	2305      	movne	r3, #5
    83f0:	4553      	cmp	r3, sl
    83f2:	d37a      	bcc.n	84ea <StepDown_Task+0x35e>
    83f4:	9b01      	ldr	r3, [sp, #4]
    83f6:	2b00      	cmp	r3, #0
    83f8:	d0e1      	beq.n	83be <StepDown_Task+0x232>
    83fa:	3b01      	subs	r3, #1
    83fc:	9301      	str	r3, [sp, #4]
    83fe:	d1de      	bne.n	83be <StepDown_Task+0x232>
    8400:	4b23      	ldr	r3, [pc, #140]	; (8490 <StepDown_Task+0x304>)
    8402:	2009      	movs	r0, #9
    8404:	4798      	blx	r3
    8406:	4b21      	ldr	r3, [pc, #132]	; (848c <StepDown_Task+0x300>)
    8408:	681b      	ldr	r3, [r3, #0]
    840a:	075b      	lsls	r3, r3, #29
    840c:	d5db      	bpl.n	83c6 <StepDown_Task+0x23a>
    840e:	4b21      	ldr	r3, [pc, #132]	; (8494 <StepDown_Task+0x308>)
    8410:	2102      	movs	r1, #2
    8412:	f44f 7000 	mov.w	r0, #512	; 0x200
    8416:	4798      	blx	r3
    8418:	4b1c      	ldr	r3, [pc, #112]	; (848c <StepDown_Task+0x300>)
    841a:	4a1c      	ldr	r2, [pc, #112]	; (848c <StepDown_Task+0x300>)
    841c:	681b      	ldr	r3, [r3, #0]
    841e:	9600      	str	r6, [sp, #0]
    8420:	f023 0304 	bic.w	r3, r3, #4
    8424:	6013      	str	r3, [r2, #0]
    8426:	e756      	b.n	82d6 <StepDown_Task+0x14a>
    8428:	4b14      	ldr	r3, [pc, #80]	; (847c <StepDown_Task+0x2f0>)
    842a:	4798      	blx	r3
    842c:	e793      	b.n	8356 <StepDown_Task+0x1ca>
    842e:	bf00      	nop
    8430:	0000b2cd 	.word	0x0000b2cd
    8434:	40002800 	.word	0x40002800
    8438:	40001c00 	.word	0x40001c00
    843c:	40000800 	.word	0x40000800
    8440:	41008000 	.word	0x41008000
    8444:	40020040 	.word	0x40020040
    8448:	20003624 	.word	0x20003624
    844c:	0000ef31 	.word	0x0000ef31
    8450:	40020800 	.word	0x40020800
    8454:	40020010 	.word	0x40020010
    8458:	40020001 	.word	0x40020001
    845c:	0000c875 	.word	0x0000c875
    8460:	00007919 	.word	0x00007919
    8464:	0000b911 	.word	0x0000b911
    8468:	000070a1 	.word	0x000070a1
    846c:	0000c275 	.word	0x0000c275
    8470:	000045b1 	.word	0x000045b1
    8474:	20002204 	.word	0x20002204
    8478:	0000bf49 	.word	0x0000bf49
    847c:	00006569 	.word	0x00006569
    8480:	00007c41 	.word	0x00007c41
    8484:	00005ba9 	.word	0x00005ba9
    8488:	0000ece5 	.word	0x0000ece5
    848c:	2000f9b4 	.word	0x2000f9b4
    8490:	0000d109 	.word	0x0000d109
    8494:	0000c651 	.word	0x0000c651
    8498:	c0020000 	.word	0xc0020000
    849c:	000064e9 	.word	0x000064e9
    84a0:	2001ff00 	.word	0x2001ff00
    84a4:	2000f8ac 	.word	0x2000f8ac
    84a8:	4b13      	ldr	r3, [pc, #76]	; (84f8 <StepDown_Task+0x36c>)
    84aa:	4798      	blx	r3
    84ac:	e713      	b.n	82d6 <StepDown_Task+0x14a>
    84ae:	4b13      	ldr	r3, [pc, #76]	; (84fc <StepDown_Task+0x370>)
    84b0:	4798      	blx	r3
    84b2:	4b13      	ldr	r3, [pc, #76]	; (8500 <StepDown_Task+0x374>)
    84b4:	4798      	blx	r3
    84b6:	4b13      	ldr	r3, [pc, #76]	; (8504 <StepDown_Task+0x378>)
    84b8:	4798      	blx	r3
    84ba:	2300      	movs	r3, #0
    84bc:	f884 3031 	strb.w	r3, [r4, #49]	; 0x31
    84c0:	e778      	b.n	83b4 <StepDown_Task+0x228>
    84c2:	4b11      	ldr	r3, [pc, #68]	; (8508 <StepDown_Task+0x37c>)
    84c4:	4798      	blx	r3
    84c6:	2800      	cmp	r0, #0
    84c8:	f47f af1c 	bne.w	8304 <StepDown_Task+0x178>
    84cc:	e703      	b.n	82d6 <StepDown_Task+0x14a>
    84ce:	4b0a      	ldr	r3, [pc, #40]	; (84f8 <StepDown_Task+0x36c>)
    84d0:	4798      	blx	r3
    84d2:	e72a      	b.n	832a <StepDown_Task+0x19e>
    84d4:	4b0d      	ldr	r3, [pc, #52]	; (850c <StepDown_Task+0x380>)
    84d6:	4658      	mov	r0, fp
    84d8:	4798      	blx	r3
    84da:	23c8      	movs	r3, #200	; 0xc8
    84dc:	f884 3030 	strb.w	r3, [r4, #48]	; 0x30
    84e0:	e75d      	b.n	839e <StepDown_Task+0x212>
    84e2:	4658      	mov	r0, fp
    84e4:	4b0a      	ldr	r3, [pc, #40]	; (8510 <StepDown_Task+0x384>)
    84e6:	4798      	blx	r3
    84e8:	e759      	b.n	839e <StepDown_Task+0x212>
    84ea:	4b08      	ldr	r3, [pc, #32]	; (850c <StepDown_Task+0x380>)
    84ec:	2009      	movs	r0, #9
    84ee:	4798      	blx	r3
    84f0:	f44f 73c8 	mov.w	r3, #400	; 0x190
    84f4:	9301      	str	r3, [sp, #4]
    84f6:	e762      	b.n	83be <StepDown_Task+0x232>
    84f8:	000070ed 	.word	0x000070ed
    84fc:	00007919 	.word	0x00007919
    8500:	000078ad 	.word	0x000078ad
    8504:	0000c1a1 	.word	0x0000c1a1
    8508:	000044d5 	.word	0x000044d5
    850c:	0000d0f9 	.word	0x0000d0f9
    8510:	0000d109 	.word	0x0000d109

00008514 <WD_Init>:
    8514:	b570      	push	{r4, r5, r6, lr}
    8516:	4a0b      	ldr	r2, [pc, #44]	; (8544 <WD_Init+0x30>)
    8518:	4c0b      	ldr	r4, [pc, #44]	; (8548 <WD_Init+0x34>)
    851a:	6953      	ldr	r3, [r2, #20]
    851c:	4d0b      	ldr	r5, [pc, #44]	; (854c <WD_Init+0x38>)
    851e:	490c      	ldr	r1, [pc, #48]	; (8550 <WD_Init+0x3c>)
    8520:	f443 7380 	orr.w	r3, r3, #256	; 0x100
    8524:	6153      	str	r3, [r2, #20]
    8526:	4620      	mov	r0, r4
    8528:	6025      	str	r5, [r4, #0]
    852a:	4788      	blx	r1
    852c:	4620      	mov	r0, r4
    852e:	4b09      	ldr	r3, [pc, #36]	; (8554 <WD_Init+0x40>)
    8530:	f44f 6200 	mov.w	r2, #2048	; 0x800
    8534:	f44f 717a 	mov.w	r1, #1000	; 0x3e8
    8538:	4798      	blx	r3
    853a:	4620      	mov	r0, r4
    853c:	4b06      	ldr	r3, [pc, #24]	; (8558 <WD_Init+0x44>)
    853e:	e8bd 4070 	ldmia.w	sp!, {r4, r5, r6, lr}
    8542:	4718      	bx	r3
    8544:	40000800 	.word	0x40000800
    8548:	2000f164 	.word	0x2000f164
    854c:	40002000 	.word	0x40002000
    8550:	000097cd 	.word	0x000097cd
    8554:	00009811 	.word	0x00009811
    8558:	000098d9 	.word	0x000098d9

0000855c <WD_Refresh>:
    855c:	b500      	push	{lr}
    855e:	b083      	sub	sp, #12
    8560:	4b06      	ldr	r3, [pc, #24]	; (857c <WD_Refresh+0x20>)
    8562:	a801      	add	r0, sp, #4
    8564:	4798      	blx	r3
    8566:	4b06      	ldr	r3, [pc, #24]	; (8580 <WD_Refresh+0x24>)
    8568:	689a      	ldr	r2, [r3, #8]
    856a:	b90a      	cbnz	r2, 8570 <WD_Refresh+0x14>
    856c:	22a5      	movs	r2, #165	; 0xa5
    856e:	731a      	strb	r2, [r3, #12]
    8570:	a801      	add	r0, sp, #4
    8572:	4b04      	ldr	r3, [pc, #16]	; (8584 <WD_Refresh+0x28>)
    8574:	4798      	blx	r3
    8576:	b003      	add	sp, #12
    8578:	f85d fb04 	ldr.w	pc, [sp], #4
    857c:	000089e9 	.word	0x000089e9
    8580:	40002000 	.word	0x40002000
    8584:	000089f9 	.word	0x000089f9

00008588 <RAND_0_init>:
    8588:	b570      	push	{r4, r5, r6, lr}
    858a:	4a07      	ldr	r2, [pc, #28]	; (85a8 <RAND_0_init+0x20>)
    858c:	4c07      	ldr	r4, [pc, #28]	; (85ac <RAND_0_init+0x24>)
    858e:	69d3      	ldr	r3, [r2, #28]
    8590:	4d07      	ldr	r5, [pc, #28]	; (85b0 <RAND_0_init+0x28>)
    8592:	4908      	ldr	r1, [pc, #32]	; (85b4 <RAND_0_init+0x2c>)
    8594:	f443 6380 	orr.w	r3, r3, #1024	; 0x400
    8598:	61d3      	str	r3, [r2, #28]
    859a:	4620      	mov	r0, r4
    859c:	47a8      	blx	r5
    859e:	4620      	mov	r0, r4
    85a0:	4b05      	ldr	r3, [pc, #20]	; (85b8 <RAND_0_init+0x30>)
    85a2:	e8bd 4070 	ldmia.w	sp!, {r4, r5, r6, lr}
    85a6:	4718      	bx	r3
    85a8:	40000800 	.word	0x40000800
    85ac:	2000f15c 	.word	0x2000f15c
    85b0:	00008c21 	.word	0x00008c21
    85b4:	42002800 	.word	0x42002800
    85b8:	00008c29 	.word	0x00008c29

000085bc <get_hw_id>:
    85bc:	e92d 41f0 	stmdb	sp!, {r4, r5, r6, r7, r8, lr}
    85c0:	4f2d      	ldr	r7, [pc, #180]	; (8678 <get_hw_id+0xbc>)
    85c2:	4e2e      	ldr	r6, [pc, #184]	; (867c <get_hw_id+0xc0>)
    85c4:	4d2e      	ldr	r5, [pc, #184]	; (8680 <get_hw_id+0xc4>)
    85c6:	b084      	sub	sp, #16
    85c8:	a801      	add	r0, sp, #4
    85ca:	47b0      	blx	r6
    85cc:	f8d7 2080 	ldr.w	r2, [r7, #128]	; 0x80
    85d0:	f8d7 30a0 	ldr.w	r3, [r7, #160]	; 0xa0
    85d4:	f8d7 4090 	ldr.w	r4, [r7, #144]	; 0x90
    85d8:	405c      	eors	r4, r3
    85da:	4014      	ands	r4, r2
    85dc:	a801      	add	r0, sp, #4
    85de:	405c      	eors	r4, r3
    85e0:	47a8      	blx	r5
    85e2:	4668      	mov	r0, sp
    85e4:	47b0      	blx	r6
    85e6:	f8d7 1080 	ldr.w	r1, [r7, #128]	; 0x80
    85ea:	f8d7 20a0 	ldr.w	r2, [r7, #160]	; 0xa0
    85ee:	f8d7 3090 	ldr.w	r3, [r7, #144]	; 0x90
    85f2:	ea82 0803 	eor.w	r8, r2, r3
    85f6:	ea08 0801 	and.w	r8, r8, r1
    85fa:	4668      	mov	r0, sp
    85fc:	ea88 0802 	eor.w	r8, r8, r2
    8600:	47a8      	blx	r5
    8602:	f418 0f00 	tst.w	r8, #8388608	; 0x800000
    8606:	bf0c      	ite	eq
    8608:	2300      	moveq	r3, #0
    860a:	2302      	movne	r3, #2
    860c:	a802      	add	r0, sp, #8
    860e:	f3c4 5480 	ubfx	r4, r4, #22, #1
    8612:	431c      	orrs	r4, r3
    8614:	47b0      	blx	r6
    8616:	f8d7 1080 	ldr.w	r1, [r7, #128]	; 0x80
    861a:	f8d7 20a0 	ldr.w	r2, [r7, #160]	; 0xa0
    861e:	f8d7 3090 	ldr.w	r3, [r7, #144]	; 0x90
    8622:	ea82 0803 	eor.w	r8, r2, r3
    8626:	ea08 0801 	and.w	r8, r8, r1
    862a:	a802      	add	r0, sp, #8
    862c:	ea88 0802 	eor.w	r8, r8, r2
    8630:	47a8      	blx	r5
    8632:	f018 4f80 	tst.w	r8, #1073741824	; 0x40000000
    8636:	bf0c      	ite	eq
    8638:	2300      	moveq	r3, #0
    863a:	2304      	movne	r3, #4
    863c:	a803      	add	r0, sp, #12
    863e:	431c      	orrs	r4, r3
    8640:	47b0      	blx	r6
    8642:	f8d7 2080 	ldr.w	r2, [r7, #128]	; 0x80
    8646:	f8d7 30a0 	ldr.w	r3, [r7, #160]	; 0xa0
    864a:	f8d7 6090 	ldr.w	r6, [r7, #144]	; 0x90
    864e:	405e      	eors	r6, r3
    8650:	4016      	ands	r6, r2
    8652:	405e      	eors	r6, r3
    8654:	a803      	add	r0, sp, #12
    8656:	47a8      	blx	r5
    8658:	2e00      	cmp	r6, #0
    865a:	db04      	blt.n	8666 <get_hw_id+0xaa>
    865c:	b2e0      	uxtb	r0, r4
    865e:	3001      	adds	r0, #1
    8660:	b004      	add	sp, #16
    8662:	e8bd 81f0 	ldmia.w	sp!, {r4, r5, r6, r7, r8, pc}
    8666:	f044 0408 	orr.w	r4, r4, #8
    866a:	2c0f      	cmp	r4, #15
    866c:	d1f6      	bne.n	865c <get_hw_id+0xa0>
    866e:	2001      	movs	r0, #1
    8670:	b004      	add	sp, #16
    8672:	e8bd 81f0 	ldmia.w	sp!, {r4, r5, r6, r7, r8, pc}
    8676:	bf00      	nop
    8678:	41008000 	.word	0x41008000
    867c:	000089e9 	.word	0x000089e9
    8680:	000089f9 	.word	0x000089f9

00008684 <get_device_id>:
    8684:	e92d 41f0 	stmdb	sp!, {r4, r5, r6, r7, r8, lr}
    8688:	4d1e      	ldr	r5, [pc, #120]	; (8704 <get_device_id+0x80>)
    868a:	f8df 8080 	ldr.w	r8, [pc, #128]	; 870c <get_device_id+0x88>
    868e:	4e1e      	ldr	r6, [pc, #120]	; (8708 <get_device_id+0x84>)
    8690:	b084      	sub	sp, #16
    8692:	a802      	add	r0, sp, #8
    8694:	47c0      	blx	r8
    8696:	f8d5 2080 	ldr.w	r2, [r5, #128]	; 0x80
    869a:	f8d5 30a0 	ldr.w	r3, [r5, #160]	; 0xa0
    869e:	f8d5 4090 	ldr.w	r4, [r5, #144]	; 0x90
    86a2:	405c      	eors	r4, r3
    86a4:	4014      	ands	r4, r2
    86a6:	a802      	add	r0, sp, #8
    86a8:	405c      	eors	r4, r3
    86aa:	47b0      	blx	r6
    86ac:	a801      	add	r0, sp, #4
    86ae:	47c0      	blx	r8
    86b0:	f8d5 2080 	ldr.w	r2, [r5, #128]	; 0x80
    86b4:	f8d5 30a0 	ldr.w	r3, [r5, #160]	; 0xa0
    86b8:	f8d5 7090 	ldr.w	r7, [r5, #144]	; 0x90
    86bc:	405f      	eors	r7, r3
    86be:	4017      	ands	r7, r2
    86c0:	a801      	add	r0, sp, #4
    86c2:	405f      	eors	r7, r3
    86c4:	47b0      	blx	r6
    86c6:	f417 4f80 	tst.w	r7, #16384	; 0x4000
    86ca:	bf0c      	ite	eq
    86cc:	2300      	moveq	r3, #0
    86ce:	2302      	movne	r3, #2
    86d0:	a803      	add	r0, sp, #12
    86d2:	f3c4 3400 	ubfx	r4, r4, #12, #1
    86d6:	431c      	orrs	r4, r3
    86d8:	47c0      	blx	r8
    86da:	f8d5 2080 	ldr.w	r2, [r5, #128]	; 0x80
    86de:	f8d5 30a0 	ldr.w	r3, [r5, #160]	; 0xa0
    86e2:	f8d5 5090 	ldr.w	r5, [r5, #144]	; 0x90
    86e6:	405d      	eors	r5, r3
    86e8:	a803      	add	r0, sp, #12
    86ea:	4015      	ands	r5, r2
    86ec:	405d      	eors	r5, r3
    86ee:	47b0      	blx	r6
    86f0:	f415 4f00 	tst.w	r5, #32768	; 0x8000
    86f4:	bf0c      	ite	eq
    86f6:	2000      	moveq	r0, #0
    86f8:	2004      	movne	r0, #4
    86fa:	4320      	orrs	r0, r4
    86fc:	b004      	add	sp, #16
    86fe:	e8bd 81f0 	ldmia.w	sp!, {r4, r5, r6, r7, r8, pc}
    8702:	bf00      	nop
    8704:	41008000 	.word	0x41008000
    8708:	000089f9 	.word	0x000089f9
    870c:	000089e9 	.word	0x000089e9

00008710 <system_init>:
    8710:	e92d 41f0 	stmdb	sp!, {r4, r5, r6, r7, r8, lr}
    8714:	4b9f      	ldr	r3, [pc, #636]	; (8994 <system_init+0x284>)
    8716:	4da0      	ldr	r5, [pc, #640]	; (8998 <system_init+0x288>)
    8718:	4ea0      	ldr	r6, [pc, #640]	; (899c <system_init+0x28c>)
    871a:	4fa1      	ldr	r7, [pc, #644]	; (89a0 <system_init+0x290>)
    871c:	4ca1      	ldr	r4, [pc, #644]	; (89a4 <system_init+0x294>)
    871e:	4798      	blx	r3
    8720:	4ba1      	ldr	r3, [pc, #644]	; (89a8 <system_init+0x298>)
    8722:	49a2      	ldr	r1, [pc, #648]	; (89ac <system_init+0x29c>)
    8724:	48a2      	ldr	r0, [pc, #648]	; (89b0 <system_init+0x2a0>)
    8726:	f8df e2b4 	ldr.w	lr, [pc, #692]	; 89dc <system_init+0x2cc>
    872a:	f44f 0280 	mov.w	r2, #4194304	; 0x400000
    872e:	f8c3 2084 	str.w	r2, [r3, #132]	; 0x84
    8732:	f8c3 10a8 	str.w	r1, [r3, #168]	; 0xa8
    8736:	f8c3 00a8 	str.w	r0, [r3, #168]	; 0xa8
    873a:	f8c3 2084 	str.w	r2, [r3, #132]	; 0x84
    873e:	f893 00d6 	ldrb.w	r0, [r3, #214]	; 0xd6
    8742:	f040 0004 	orr.w	r0, r0, #4
    8746:	f883 00d6 	strb.w	r0, [r3, #214]	; 0xd6
    874a:	f8c3 2098 	str.w	r2, [r3, #152]	; 0x98
    874e:	f893 20d6 	ldrb.w	r2, [r3, #214]	; 0xd6
    8752:	f002 02fe 	and.w	r2, r2, #254	; 0xfe
    8756:	f883 20d6 	strb.w	r2, [r3, #214]	; 0xd6
    875a:	f44f 0200 	mov.w	r2, #8388608	; 0x800000
    875e:	f8c3 2084 	str.w	r2, [r3, #132]	; 0x84
    8762:	f8c3 10a8 	str.w	r1, [r3, #168]	; 0xa8
    8766:	f8c3 e0a8 	str.w	lr, [r3, #168]	; 0xa8
    876a:	f8c3 2084 	str.w	r2, [r3, #132]	; 0x84
    876e:	f893 00d7 	ldrb.w	r0, [r3, #215]	; 0xd7
    8772:	f8df e26c 	ldr.w	lr, [pc, #620]	; 89e0 <system_init+0x2d0>
    8776:	f040 0004 	orr.w	r0, r0, #4
    877a:	f883 00d7 	strb.w	r0, [r3, #215]	; 0xd7
    877e:	f8c3 2098 	str.w	r2, [r3, #152]	; 0x98
    8782:	f893 20d7 	ldrb.w	r2, [r3, #215]	; 0xd7
    8786:	488b      	ldr	r0, [pc, #556]	; (89b4 <system_init+0x2a4>)
    8788:	f002 02fe 	and.w	r2, r2, #254	; 0xfe
    878c:	f883 20d7 	strb.w	r2, [r3, #215]	; 0xd7
    8790:	f04f 4280 	mov.w	r2, #1073741824	; 0x40000000
    8794:	f8c3 2084 	str.w	r2, [r3, #132]	; 0x84
    8798:	f8c3 10a8 	str.w	r1, [r3, #168]	; 0xa8
    879c:	f8c3 50a8 	str.w	r5, [r3, #168]	; 0xa8
    87a0:	f8c3 2084 	str.w	r2, [r3, #132]	; 0x84
    87a4:	f893 50de 	ldrb.w	r5, [r3, #222]	; 0xde
    87a8:	f045 0504 	orr.w	r5, r5, #4
    87ac:	f883 50de 	strb.w	r5, [r3, #222]	; 0xde
    87b0:	f8c3 2098 	str.w	r2, [r3, #152]	; 0x98
    87b4:	f893 50de 	ldrb.w	r5, [r3, #222]	; 0xde
    87b8:	f005 05fe 	and.w	r5, r5, #254	; 0xfe
    87bc:	f883 50de 	strb.w	r5, [r3, #222]	; 0xde
    87c0:	f04f 4500 	mov.w	r5, #2147483648	; 0x80000000
    87c4:	f8c3 5084 	str.w	r5, [r3, #132]	; 0x84
    87c8:	f8c3 10a8 	str.w	r1, [r3, #168]	; 0xa8
    87cc:	f8c3 60a8 	str.w	r6, [r3, #168]	; 0xa8
    87d0:	f8c3 5084 	str.w	r5, [r3, #132]	; 0x84
    87d4:	f893 60df 	ldrb.w	r6, [r3, #223]	; 0xdf
    87d8:	f046 0604 	orr.w	r6, r6, #4
    87dc:	f883 60df 	strb.w	r6, [r3, #223]	; 0xdf
    87e0:	f8c3 5098 	str.w	r5, [r3, #152]	; 0x98
    87e4:	f893 50df 	ldrb.w	r5, [r3, #223]	; 0xdf
    87e8:	f005 05fe 	and.w	r5, r5, #254	; 0xfe
    87ec:	f883 50df 	strb.w	r5, [r3, #223]	; 0xdf
    87f0:	f44f 5580 	mov.w	r5, #4096	; 0x1000
    87f4:	f8c3 5084 	str.w	r5, [r3, #132]	; 0x84
    87f8:	f8c3 70a8 	str.w	r7, [r3, #168]	; 0xa8
    87fc:	f8c3 00a8 	str.w	r0, [r3, #168]	; 0xa8
    8800:	f8c3 5084 	str.w	r5, [r3, #132]	; 0x84
    8804:	f893 60cc 	ldrb.w	r6, [r3, #204]	; 0xcc
    8808:	f046 0604 	orr.w	r6, r6, #4
    880c:	f883 60cc 	strb.w	r6, [r3, #204]	; 0xcc
    8810:	f8c3 5098 	str.w	r5, [r3, #152]	; 0x98
    8814:	f893 50cc 	ldrb.w	r5, [r3, #204]	; 0xcc
    8818:	f005 05fe 	and.w	r5, r5, #254	; 0xfe
    881c:	f883 50cc 	strb.w	r5, [r3, #204]	; 0xcc
    8820:	f44f 4580 	mov.w	r5, #16384	; 0x4000
    8824:	f8c3 5084 	str.w	r5, [r3, #132]	; 0x84
    8828:	f8c3 e0a8 	str.w	lr, [r3, #168]	; 0xa8
    882c:	f8c3 00a8 	str.w	r0, [r3, #168]	; 0xa8
    8830:	f8c3 5084 	str.w	r5, [r3, #132]	; 0x84
    8834:	f893 60ce 	ldrb.w	r6, [r3, #206]	; 0xce
    8838:	f8df e1a8 	ldr.w	lr, [pc, #424]	; 89e4 <system_init+0x2d4>
    883c:	f046 0604 	orr.w	r6, r6, #4
    8840:	f883 60ce 	strb.w	r6, [r3, #206]	; 0xce
    8844:	f8c3 5098 	str.w	r5, [r3, #152]	; 0x98
    8848:	f893 50ce 	ldrb.w	r5, [r3, #206]	; 0xce
    884c:	f005 05fe 	and.w	r5, r5, #254	; 0xfe
    8850:	f883 50ce 	strb.w	r5, [r3, #206]	; 0xce
    8854:	f507 47e0 	add.w	r7, r7, #28672	; 0x7000
    8858:	f44f 4500 	mov.w	r5, #32768	; 0x8000
    885c:	f8c3 5084 	str.w	r5, [r3, #132]	; 0x84
    8860:	f8c3 70a8 	str.w	r7, [r3, #168]	; 0xa8
    8864:	f8c3 00a8 	str.w	r0, [r3, #168]	; 0xa8
    8868:	f8c3 5084 	str.w	r5, [r3, #132]	; 0x84
    886c:	f893 60cf 	ldrb.w	r6, [r3, #207]	; 0xcf
    8870:	4f51      	ldr	r7, [pc, #324]	; (89b8 <system_init+0x2a8>)
    8872:	f046 0604 	orr.w	r6, r6, #4
    8876:	f883 60cf 	strb.w	r6, [r3, #207]	; 0xcf
    887a:	f8c3 5098 	str.w	r5, [r3, #152]	; 0x98
    887e:	f893 50cf 	ldrb.w	r5, [r3, #207]	; 0xcf
    8882:	4e4e      	ldr	r6, [pc, #312]	; (89bc <system_init+0x2ac>)
    8884:	f005 05fe 	and.w	r5, r5, #254	; 0xfe
    8888:	f883 50cf 	strb.w	r5, [r3, #207]	; 0xcf
    888c:	f04f 6500 	mov.w	r5, #134217728	; 0x8000000
    8890:	615d      	str	r5, [r3, #20]
    8892:	609d      	str	r5, [r3, #8]
    8894:	629a      	str	r2, [r3, #40]	; 0x28
    8896:	f8c3 e028 	str.w	lr, [r3, #40]	; 0x28
    889a:	f893 505b 	ldrb.w	r5, [r3, #91]	; 0x5b
    889e:	f005 05fe 	and.w	r5, r5, #254	; 0xfe
    88a2:	f883 505b 	strb.w	r5, [r3, #91]	; 0x5b
    88a6:	f44f 3500 	mov.w	r5, #131072	; 0x20000
    88aa:	f8c3 5094 	str.w	r5, [r3, #148]	; 0x94
    88ae:	f8c3 5088 	str.w	r5, [r3, #136]	; 0x88
    88b2:	f8c3 20a8 	str.w	r2, [r3, #168]	; 0xa8
    88b6:	f8c3 60a8 	str.w	r6, [r3, #168]	; 0xa8
    88ba:	f893 50d1 	ldrb.w	r5, [r3, #209]	; 0xd1
    88be:	f005 05fe 	and.w	r5, r5, #254	; 0xfe
    88c2:	f883 50d1 	strb.w	r5, [r3, #209]	; 0xd1
    88c6:	f44f 1580 	mov.w	r5, #1048576	; 0x100000
    88ca:	615d      	str	r5, [r3, #20]
    88cc:	609d      	str	r5, [r3, #8]
    88ce:	629a      	str	r2, [r3, #40]	; 0x28
    88d0:	629f      	str	r7, [r3, #40]	; 0x28
    88d2:	f893 5054 	ldrb.w	r5, [r3, #84]	; 0x54
    88d6:	4f3a      	ldr	r7, [pc, #232]	; (89c0 <system_init+0x2b0>)
    88d8:	f005 05fe 	and.w	r5, r5, #254	; 0xfe
    88dc:	f883 5054 	strb.w	r5, [r3, #84]	; 0x54
    88e0:	f106 1602 	add.w	r6, r6, #131074	; 0x20002
    88e4:	f44f 2580 	mov.w	r5, #262144	; 0x40000
    88e8:	605d      	str	r5, [r3, #4]
    88ea:	6299      	str	r1, [r3, #40]	; 0x28
    88ec:	629e      	str	r6, [r3, #40]	; 0x28
    88ee:	f893 1052 	ldrb.w	r1, [r3, #82]	; 0x52
    88f2:	4e34      	ldr	r6, [pc, #208]	; (89c4 <system_init+0x2b4>)
    88f4:	4d34      	ldr	r5, [pc, #208]	; (89c8 <system_init+0x2b8>)
    88f6:	f001 01fb 	and.w	r1, r1, #251	; 0xfb
    88fa:	f883 1052 	strb.w	r1, [r3, #82]	; 0x52
    88fe:	f893 1052 	ldrb.w	r1, [r3, #82]	; 0x52
    8902:	f001 01fe 	and.w	r1, r1, #254	; 0xfe
    8906:	f883 1052 	strb.w	r1, [r3, #82]	; 0x52
    890a:	f44f 6180 	mov.w	r1, #1024	; 0x400
    890e:	f8c3 1084 	str.w	r1, [r3, #132]	; 0x84
    8912:	f8c3 70a8 	str.w	r7, [r3, #168]	; 0xa8
    8916:	f8c3 00a8 	str.w	r0, [r3, #168]	; 0xa8
    891a:	f8c3 1084 	str.w	r1, [r3, #132]	; 0x84
    891e:	f893 00ca 	ldrb.w	r0, [r3, #202]	; 0xca
    8922:	f040 0004 	orr.w	r0, r0, #4
    8926:	f883 00ca 	strb.w	r0, [r3, #202]	; 0xca
    892a:	f8c3 1098 	str.w	r1, [r3, #152]	; 0x98
    892e:	f893 10ca 	ldrb.w	r1, [r3, #202]	; 0xca
    8932:	f44f 3080 	mov.w	r0, #65536	; 0x10000
    8936:	f001 01fe 	and.w	r1, r1, #254	; 0xfe
    893a:	f883 10ca 	strb.w	r1, [r3, #202]	; 0xca
    893e:	f8c3 0094 	str.w	r0, [r3, #148]	; 0x94
    8942:	f8c3 0088 	str.w	r0, [r3, #136]	; 0x88
    8946:	f8c3 20a8 	str.w	r2, [r3, #168]	; 0xa8
    894a:	f8c3 60a8 	str.w	r6, [r3, #168]	; 0xa8
    894e:	f893 20d0 	ldrb.w	r2, [r3, #208]	; 0xd0
    8952:	f44f 6000 	mov.w	r0, #2048	; 0x800
    8956:	f04f 4140 	mov.w	r1, #3221225472	; 0xc0000000
    895a:	f002 02fe 	and.w	r2, r2, #254	; 0xfe
    895e:	f883 20d0 	strb.w	r2, [r3, #208]	; 0xd0
    8962:	f8c3 0088 	str.w	r0, [r3, #136]	; 0x88
    8966:	f8c3 40a8 	str.w	r4, [r3, #168]	; 0xa8
    896a:	f8c3 10a8 	str.w	r1, [r3, #168]	; 0xa8
    896e:	f893 20cb 	ldrb.w	r2, [r3, #203]	; 0xcb
    8972:	f002 02fe 	and.w	r2, r2, #254	; 0xfe
    8976:	f883 20cb 	strb.w	r2, [r3, #203]	; 0xcb
    897a:	47a8      	blx	r5
    897c:	6923      	ldr	r3, [r4, #16]
    897e:	4913      	ldr	r1, [pc, #76]	; (89cc <system_init+0x2bc>)
    8980:	4813      	ldr	r0, [pc, #76]	; (89d0 <system_init+0x2c0>)
    8982:	4a14      	ldr	r2, [pc, #80]	; (89d4 <system_init+0x2c4>)
    8984:	f043 0340 	orr.w	r3, r3, #64	; 0x40
    8988:	6123      	str	r3, [r4, #16]
    898a:	4790      	blx	r2
    898c:	4b12      	ldr	r3, [pc, #72]	; (89d8 <system_init+0x2c8>)
    898e:	e8bd 41f0 	ldmia.w	sp!, {r4, r5, r6, r7, r8, lr}
    8992:	4718      	bx	r3
    8994:	00008cc5 	.word	0x00008cc5
    8998:	c0024000 	.word	0xc0024000
    899c:	c0028000 	.word	0xc0028000
    89a0:	40021000 	.word	0x40021000
    89a4:	40000800 	.word	0x40000800
    89a8:	41008000 	.word	0x41008000
    89ac:	40020000 	.word	0x40020000
    89b0:	c0020040 	.word	0xc0020040
    89b4:	c0020000 	.word	0xc0020000
    89b8:	c0000010 	.word	0xc0000010
    89bc:	c0000002 	.word	0xc0000002
    89c0:	40020400 	.word	0x40020400
    89c4:	c0000001 	.word	0xc0000001
    89c8:	00008515 	.word	0x00008515
    89cc:	41004000 	.word	0x41004000
    89d0:	2000f140 	.word	0x2000f140
    89d4:	00008a15 	.word	0x00008a15
    89d8:	00008589 	.word	0x00008589
    89dc:	c0020080 	.word	0xc0020080
    89e0:	40024000 	.word	0x40024000
    89e4:	c0000800 	.word	0xc0000800

000089e8 <atomic_enter_critical>:
    89e8:	f3ef 8310 	mrs	r3, PRIMASK
    89ec:	6003      	str	r3, [r0, #0]
    89ee:	b672      	cpsid	i
    89f0:	f3bf 8f5f 	dmb	sy
    89f4:	4770      	bx	lr
    89f6:	bf00      	nop

000089f8 <atomic_leave_critical>:
    89f8:	f3bf 8f5f 	dmb	sy
    89fc:	6803      	ldr	r3, [r0, #0]
    89fe:	f383 8810 	msr	PRIMASK, r3
    8a02:	4770      	bx	lr

00008a04 <flash_ready>:
    8a04:	6943      	ldr	r3, [r0, #20]
    8a06:	b103      	cbz	r3, 8a0a <flash_ready+0x6>
    8a08:	4718      	bx	r3
    8a0a:	4770      	bx	lr

00008a0c <flash_error>:
    8a0c:	6983      	ldr	r3, [r0, #24]
    8a0e:	b103      	cbz	r3, 8a12 <flash_error+0x6>
    8a10:	4718      	bx	r3
    8a12:	4770      	bx	lr

00008a14 <flash_init>:
    8a14:	b510      	push	{r4, lr}
    8a16:	4b04      	ldr	r3, [pc, #16]	; (8a28 <flash_init+0x14>)
    8a18:	4604      	mov	r4, r0
    8a1a:	4798      	blx	r3
    8a1c:	b918      	cbnz	r0, 8a26 <flash_init+0x12>
    8a1e:	4a03      	ldr	r2, [pc, #12]	; (8a2c <flash_init+0x18>)
    8a20:	4b03      	ldr	r3, [pc, #12]	; (8a30 <flash_init+0x1c>)
    8a22:	e884 000c 	stmia.w	r4, {r2, r3}
    8a26:	bd10      	pop	{r4, pc}
    8a28:	00008e2d 	.word	0x00008e2d
    8a2c:	00008a05 	.word	0x00008a05
    8a30:	00008a0d 	.word	0x00008a0d

00008a34 <flash_write_page_erase>:
    8a34:	e92d 4ff8 	stmdb	sp!, {r3, r4, r5, r6, r7, r8, r9, sl, fp, lr}
    8a38:	4f24      	ldr	r7, [pc, #144]	; (8acc <flash_write_page_erase+0x98>)
    8a3a:	461e      	mov	r6, r3
    8a3c:	4605      	mov	r5, r0
    8a3e:	460c      	mov	r4, r1
    8a40:	4691      	mov	r9, r2
    8a42:	47b8      	blx	r7
    8a44:	4b22      	ldr	r3, [pc, #136]	; (8ad0 <flash_write_page_erase+0x9c>)
    8a46:	4607      	mov	r7, r0
    8a48:	4628      	mov	r0, r5
    8a4a:	4798      	blx	r3
    8a4c:	f5b6 7f00 	cmp.w	r6, #512	; 0x200
    8a50:	d837      	bhi.n	8ac2 <flash_write_page_erase+0x8e>
    8a52:	fb00 f007 	mul.w	r0, r0, r7
    8a56:	42a0      	cmp	r0, r4
    8a58:	d32f      	bcc.n	8aba <flash_write_page_erase+0x86>
    8a5a:	1933      	adds	r3, r6, r4
    8a5c:	4298      	cmp	r0, r3
    8a5e:	d32c      	bcc.n	8aba <flash_write_page_erase+0x86>
    8a60:	f8df 8078 	ldr.w	r8, [pc, #120]	; 8adc <flash_write_page_erase+0xa8>
    8a64:	f8d8 3000 	ldr.w	r3, [r8]
    8a68:	ea4f 3a54 	mov.w	sl, r4, lsr #13
    8a6c:	459a      	cmp	sl, r3
    8a6e:	d01c      	beq.n	8aaa <flash_write_page_erase+0x76>
    8a70:	4621      	mov	r1, r4
    8a72:	4628      	mov	r0, r5
    8a74:	f8df b068 	ldr.w	fp, [pc, #104]	; 8ae0 <flash_write_page_erase+0xac>
    8a78:	47d8      	blx	fp
    8a7a:	b9d0      	cbnz	r0, 8ab2 <flash_write_page_erase+0x7e>
    8a7c:	f424 51ff 	bic.w	r1, r4, #8160	; 0x1fe0
    8a80:	f021 011f 	bic.w	r1, r1, #31
    8a84:	4628      	mov	r0, r5
    8a86:	4b13      	ldr	r3, [pc, #76]	; (8ad4 <flash_write_page_erase+0xa0>)
    8a88:	4798      	blx	r3
    8a8a:	2701      	movs	r7, #1
    8a8c:	f8c8 a000 	str.w	sl, [r8]
    8a90:	4621      	mov	r1, r4
    8a92:	4628      	mov	r0, r5
    8a94:	47d8      	blx	fp
    8a96:	b960      	cbnz	r0, 8ab2 <flash_write_page_erase+0x7e>
    8a98:	4621      	mov	r1, r4
    8a9a:	4628      	mov	r0, r5
    8a9c:	4633      	mov	r3, r6
    8a9e:	464a      	mov	r2, r9
    8aa0:	4c0d      	ldr	r4, [pc, #52]	; (8ad8 <flash_write_page_erase+0xa4>)
    8aa2:	47a0      	blx	r4
    8aa4:	4638      	mov	r0, r7
    8aa6:	e8bd 8ff8 	ldmia.w	sp!, {r3, r4, r5, r6, r7, r8, r9, sl, fp, pc}
    8aaa:	f8df b034 	ldr.w	fp, [pc, #52]	; 8ae0 <flash_write_page_erase+0xac>
    8aae:	2700      	movs	r7, #0
    8ab0:	e7ee      	b.n	8a90 <flash_write_page_erase+0x5c>
    8ab2:	f06f 0010 	mvn.w	r0, #16
    8ab6:	e8bd 8ff8 	ldmia.w	sp!, {r3, r4, r5, r6, r7, r8, r9, sl, fp, pc}
    8aba:	f06f 000d 	mvn.w	r0, #13
    8abe:	e8bd 8ff8 	ldmia.w	sp!, {r3, r4, r5, r6, r7, r8, r9, sl, fp, pc}
    8ac2:	f06f 001e 	mvn.w	r0, #30
    8ac6:	e8bd 8ff8 	ldmia.w	sp!, {r3, r4, r5, r6, r7, r8, r9, sl, fp, pc}
    8aca:	bf00      	nop
    8acc:	00008e81 	.word	0x00008e81
    8ad0:	00008e89 	.word	0x00008e89
    8ad4:	00008e91 	.word	0x00008e91
    8ad8:	00008ead 	.word	0x00008ead
    8adc:	20003660 	.word	0x20003660
    8ae0:	00008ec1 	.word	0x00008ec1

00008ae4 <flash_check_erase>:
    8ae4:	4b03      	ldr	r3, [pc, #12]	; (8af4 <flash_check_erase+0x10>)
    8ae6:	681b      	ldr	r3, [r3, #0]
    8ae8:	ebb3 3f50 	cmp.w	r3, r0, lsr #13
    8aec:	bf14      	ite	ne
    8aee:	2001      	movne	r0, #1
    8af0:	2000      	moveq	r0, #0
    8af2:	4770      	bx	lr
    8af4:	20003660 	.word	0x20003660

00008af8 <i2c_m_sync_write>:
    8af8:	b530      	push	{r4, r5, lr}
    8afa:	b085      	sub	sp, #20
    8afc:	8905      	ldrh	r5, [r0, #8]
    8afe:	9103      	str	r1, [sp, #12]
    8b00:	4614      	mov	r4, r2
    8b02:	9202      	str	r2, [sp, #8]
    8b04:	4b07      	ldr	r3, [pc, #28]	; (8b24 <i2c_m_sync_write+0x2c>)
    8b06:	f8ad 5004 	strh.w	r5, [sp, #4]
    8b0a:	f44f 4200 	mov.w	r2, #32768	; 0x8000
    8b0e:	a901      	add	r1, sp, #4
    8b10:	3814      	subs	r0, #20
    8b12:	f8ad 2006 	strh.w	r2, [sp, #6]
    8b16:	4798      	blx	r3
    8b18:	2800      	cmp	r0, #0
    8b1a:	bf08      	it	eq
    8b1c:	4620      	moveq	r0, r4
    8b1e:	b005      	add	sp, #20
    8b20:	bd30      	pop	{r4, r5, pc}
    8b22:	bf00      	nop
    8b24:	000092b1 	.word	0x000092b1

00008b28 <i2c_m_sync_read>:
    8b28:	b530      	push	{r4, r5, lr}
    8b2a:	b085      	sub	sp, #20
    8b2c:	8905      	ldrh	r5, [r0, #8]
    8b2e:	9103      	str	r1, [sp, #12]
    8b30:	4614      	mov	r4, r2
    8b32:	9202      	str	r2, [sp, #8]
    8b34:	4b07      	ldr	r3, [pc, #28]	; (8b54 <i2c_m_sync_read+0x2c>)
    8b36:	f8ad 5004 	strh.w	r5, [sp, #4]
    8b3a:	f248 0201 	movw	r2, #32769	; 0x8001
    8b3e:	a901      	add	r1, sp, #4
    8b40:	3814      	subs	r0, #20
    8b42:	f8ad 2006 	strh.w	r2, [sp, #6]
    8b46:	4798      	blx	r3
    8b48:	2800      	cmp	r0, #0
    8b4a:	bf08      	it	eq
    8b4c:	4620      	moveq	r0, r4
    8b4e:	b005      	add	sp, #20
    8b50:	bd30      	pop	{r4, r5, pc}
    8b52:	bf00      	nop
    8b54:	000092b1 	.word	0x000092b1

00008b58 <i2c_m_sync_init>:
    8b58:	b510      	push	{r4, lr}
    8b5a:	4b04      	ldr	r3, [pc, #16]	; (8b6c <i2c_m_sync_init+0x14>)
    8b5c:	4604      	mov	r4, r0
    8b5e:	4798      	blx	r3
    8b60:	b918      	cbnz	r0, 8b6a <i2c_m_sync_init+0x12>
    8b62:	4a03      	ldr	r2, [pc, #12]	; (8b70 <i2c_m_sync_init+0x18>)
    8b64:	4b03      	ldr	r3, [pc, #12]	; (8b74 <i2c_m_sync_init+0x1c>)
    8b66:	61a2      	str	r2, [r4, #24]
    8b68:	6163      	str	r3, [r4, #20]
    8b6a:	bd10      	pop	{r4, pc}
    8b6c:	00009225 	.word	0x00009225
    8b70:	00008b29 	.word	0x00008b29
    8b74:	00008af9 	.word	0x00008af9

00008b78 <i2c_m_sync_deinit>:
    8b78:	b510      	push	{r4, lr}
    8b7a:	4b03      	ldr	r3, [pc, #12]	; (8b88 <i2c_m_sync_deinit+0x10>)
    8b7c:	4604      	mov	r4, r0
    8b7e:	4798      	blx	r3
    8b80:	b908      	cbnz	r0, 8b86 <i2c_m_sync_deinit+0xe>
    8b82:	61a0      	str	r0, [r4, #24]
    8b84:	6160      	str	r0, [r4, #20]
    8b86:	bd10      	pop	{r4, pc}
    8b88:	00009231 	.word	0x00009231

00008b8c <i2c_m_sync_enable>:
    8b8c:	4b00      	ldr	r3, [pc, #0]	; (8b90 <i2c_m_sync_enable+0x4>)
    8b8e:	4718      	bx	r3
    8b90:	00009255 	.word	0x00009255

00008b94 <i2c_m_sync_disable>:
    8b94:	4b00      	ldr	r3, [pc, #0]	; (8b98 <i2c_m_sync_disable+0x4>)
    8b96:	4718      	bx	r3
    8b98:	0000929d 	.word	0x0000929d

00008b9c <i2c_m_sync_set_slaveaddr>:
    8b9c:	f3c1 0109 	ubfx	r1, r1, #0, #10
    8ba0:	f402 6280 	and.w	r2, r2, #1024	; 0x400
    8ba4:	430a      	orrs	r2, r1
    8ba6:	8382      	strh	r2, [r0, #28]
    8ba8:	4610      	mov	r0, r2
    8baa:	4770      	bx	lr

00008bac <i2c_m_sync_cmd_writeseq>:
    8bac:	b510      	push	{r4, lr}
    8bae:	b084      	sub	sp, #16
    8bb0:	8b84      	ldrh	r4, [r0, #28]
    8bb2:	9103      	str	r1, [sp, #12]
    8bb4:	9202      	str	r2, [sp, #8]
    8bb6:	4b05      	ldr	r3, [pc, #20]	; (8bcc <i2c_m_sync_cmd_writeseq+0x20>)
    8bb8:	f8ad 4004 	strh.w	r4, [sp, #4]
    8bbc:	f44f 4200 	mov.w	r2, #32768	; 0x8000
    8bc0:	a901      	add	r1, sp, #4
    8bc2:	f8ad 2006 	strh.w	r2, [sp, #6]
    8bc6:	4798      	blx	r3
    8bc8:	b004      	add	sp, #16
    8bca:	bd10      	pop	{r4, pc}
    8bcc:	000092b1 	.word	0x000092b1

00008bd0 <i2c_m_sync_get_io_descriptor>:
    8bd0:	3014      	adds	r0, #20
    8bd2:	6008      	str	r0, [r1, #0]
    8bd4:	2000      	movs	r0, #0
    8bd6:	4770      	bx	lr

00008bd8 <_rand_sync_read_data>:
    8bd8:	e92d 47f0 	stmdb	sp!, {r4, r5, r6, r7, r8, r9, sl, lr}
    8bdc:	7906      	ldrb	r6, [r0, #4]
    8bde:	2e00      	cmp	r6, #0
    8be0:	bf08      	it	eq
    8be2:	2620      	moveq	r6, #32
    8be4:	428e      	cmp	r6, r1
    8be6:	d212      	bcs.n	8c0e <_rand_sync_read_data+0x36>
    8be8:	b1a9      	cbz	r1, 8c16 <_rand_sync_read_data+0x3e>
    8bea:	2500      	movs	r5, #0
    8bec:	f8df 902c 	ldr.w	r9, [pc, #44]	; 8c1c <_rand_sync_read_data+0x44>
    8bf0:	4680      	mov	r8, r0
    8bf2:	460f      	mov	r7, r1
    8bf4:	462c      	mov	r4, r5
    8bf6:	4640      	mov	r0, r8
    8bf8:	47c8      	blx	r9
    8bfa:	1933      	adds	r3, r6, r4
    8bfc:	40a0      	lsls	r0, r4
    8bfe:	b2dc      	uxtb	r4, r3
    8c00:	42a7      	cmp	r7, r4
    8c02:	ea45 0500 	orr.w	r5, r5, r0
    8c06:	d8f6      	bhi.n	8bf6 <_rand_sync_read_data+0x1e>
    8c08:	4628      	mov	r0, r5
    8c0a:	e8bd 87f0 	ldmia.w	sp!, {r4, r5, r6, r7, r8, r9, sl, pc}
    8c0e:	4b03      	ldr	r3, [pc, #12]	; (8c1c <_rand_sync_read_data+0x44>)
    8c10:	e8bd 47f0 	ldmia.w	sp!, {r4, r5, r6, r7, r8, r9, sl, lr}
    8c14:	4718      	bx	r3
    8c16:	460d      	mov	r5, r1
    8c18:	e7f6      	b.n	8c08 <_rand_sync_read_data+0x30>
    8c1a:	bf00      	nop
    8c1c:	000097c1 	.word	0x000097c1

00008c20 <rand_sync_init>:
    8c20:	4b00      	ldr	r3, [pc, #0]	; (8c24 <rand_sync_init+0x4>)
    8c22:	4718      	bx	r3
    8c24:	00009781 	.word	0x00009781

00008c28 <rand_sync_enable>:
    8c28:	4b00      	ldr	r3, [pc, #0]	; (8c2c <rand_sync_enable+0x4>)
    8c2a:	4718      	bx	r3
    8c2c:	000097b1 	.word	0x000097b1

00008c30 <rand_sync_read32>:
    8c30:	2120      	movs	r1, #32
    8c32:	4b01      	ldr	r3, [pc, #4]	; (8c38 <rand_sync_read32+0x8>)
    8c34:	4718      	bx	r3
    8c36:	bf00      	nop
    8c38:	00008bd9 	.word	0x00008bd9

00008c3c <_sbrk>:
    8c3c:	4a04      	ldr	r2, [pc, #16]	; (8c50 <_sbrk+0x14>)
    8c3e:	4905      	ldr	r1, [pc, #20]	; (8c54 <_sbrk+0x18>)
    8c40:	6813      	ldr	r3, [r2, #0]
    8c42:	2b00      	cmp	r3, #0
    8c44:	bf08      	it	eq
    8c46:	460b      	moveq	r3, r1
    8c48:	4418      	add	r0, r3
    8c4a:	6010      	str	r0, [r2, #0]
    8c4c:	4618      	mov	r0, r3
    8c4e:	4770      	bx	lr
    8c50:	20003664 	.word	0x20003664
    8c54:	20010a10 	.word	0x20010a10

00008c58 <CAN0_Handler>:
    8c58:	b538      	push	{r3, r4, r5, lr}
    8c5a:	4b19      	ldr	r3, [pc, #100]	; (8cc0 <CAN0_Handler+0x68>)
    8c5c:	681d      	ldr	r5, [r3, #0]
    8c5e:	682b      	ldr	r3, [r5, #0]
    8c60:	6d1c      	ldr	r4, [r3, #80]	; 0x50
    8c62:	07e0      	lsls	r0, r4, #31
    8c64:	d428      	bmi.n	8cb8 <CAN0_Handler+0x60>
    8c66:	05a2      	lsls	r2, r4, #22
    8c68:	d422      	bmi.n	8cb0 <CAN0_Handler+0x58>
    8c6a:	01a3      	lsls	r3, r4, #6
    8c6c:	d41b      	bmi.n	8ca6 <CAN0_Handler+0x4e>
    8c6e:	01e0      	lsls	r0, r4, #7
    8c70:	d414      	bmi.n	8c9c <CAN0_Handler+0x44>
    8c72:	0222      	lsls	r2, r4, #8
    8c74:	d509      	bpl.n	8c8a <CAN0_Handler+0x32>
    8c76:	682a      	ldr	r2, [r5, #0]
    8c78:	68eb      	ldr	r3, [r5, #12]
    8c7a:	6c52      	ldr	r2, [r2, #68]	; 0x44
    8c7c:	f012 0f20 	tst.w	r2, #32
    8c80:	bf14      	ite	ne
    8c82:	2102      	movne	r1, #2
    8c84:	2101      	moveq	r1, #1
    8c86:	4628      	mov	r0, r5
    8c88:	4798      	blx	r3
    8c8a:	0723      	lsls	r3, r4, #28
    8c8c:	d503      	bpl.n	8c96 <CAN0_Handler+0x3e>
    8c8e:	68eb      	ldr	r3, [r5, #12]
    8c90:	2104      	movs	r1, #4
    8c92:	4628      	mov	r0, r5
    8c94:	4798      	blx	r3
    8c96:	682b      	ldr	r3, [r5, #0]
    8c98:	651c      	str	r4, [r3, #80]	; 0x50
    8c9a:	bd38      	pop	{r3, r4, r5, pc}
    8c9c:	68eb      	ldr	r3, [r5, #12]
    8c9e:	2100      	movs	r1, #0
    8ca0:	4628      	mov	r0, r5
    8ca2:	4798      	blx	r3
    8ca4:	e7e5      	b.n	8c72 <CAN0_Handler+0x1a>
    8ca6:	68eb      	ldr	r3, [r5, #12]
    8ca8:	2103      	movs	r1, #3
    8caa:	4628      	mov	r0, r5
    8cac:	4798      	blx	r3
    8cae:	e7de      	b.n	8c6e <CAN0_Handler+0x16>
    8cb0:	686b      	ldr	r3, [r5, #4]
    8cb2:	4628      	mov	r0, r5
    8cb4:	4798      	blx	r3
    8cb6:	e7d8      	b.n	8c6a <CAN0_Handler+0x12>
    8cb8:	68ab      	ldr	r3, [r5, #8]
    8cba:	4628      	mov	r0, r5
    8cbc:	4798      	blx	r3
    8cbe:	e7d2      	b.n	8c66 <CAN0_Handler+0xe>
    8cc0:	20003668 	.word	0x20003668

00008cc4 <_init_chip>:
    8cc4:	b510      	push	{r4, lr}
    8cc6:	4a0a      	ldr	r2, [pc, #40]	; (8cf0 <_init_chip+0x2c>)
    8cc8:	490a      	ldr	r1, [pc, #40]	; (8cf4 <_init_chip+0x30>)
    8cca:	8813      	ldrh	r3, [r2, #0]
    8ccc:	b29b      	uxth	r3, r3
    8cce:	f443 7340 	orr.w	r3, r3, #768	; 0x300
    8cd2:	8013      	strh	r3, [r2, #0]
    8cd4:	4788      	blx	r1
    8cd6:	4b08      	ldr	r3, [pc, #32]	; (8cf8 <_init_chip+0x34>)
    8cd8:	4798      	blx	r3
    8cda:	4b08      	ldr	r3, [pc, #32]	; (8cfc <_init_chip+0x38>)
    8cdc:	4798      	blx	r3
    8cde:	4b08      	ldr	r3, [pc, #32]	; (8d00 <_init_chip+0x3c>)
    8ce0:	4798      	blx	r3
    8ce2:	f640 70ff 	movw	r0, #4095	; 0xfff
    8ce6:	4b07      	ldr	r3, [pc, #28]	; (8d04 <_init_chip+0x40>)
    8ce8:	e8bd 4010 	ldmia.w	sp!, {r4, lr}
    8cec:	4718      	bx	r3
    8cee:	bf00      	nop
    8cf0:	41004000 	.word	0x41004000
    8cf4:	00008ff5 	.word	0x00008ff5
    8cf8:	00009009 	.word	0x00009009
    8cfc:	00008d59 	.word	0x00008d59
    8d00:	00009021 	.word	0x00009021
    8d04:	00008d09 	.word	0x00008d09

00008d08 <_gclk_init_generators_by_fref>:
    8d08:	07c1      	lsls	r1, r0, #31
    8d0a:	d507      	bpl.n	8d1c <_gclk_init_generators_by_fref+0x14>
    8d0c:	4a0e      	ldr	r2, [pc, #56]	; (8d48 <_gclk_init_generators_by_fref+0x40>)
    8d0e:	4b0f      	ldr	r3, [pc, #60]	; (8d4c <_gclk_init_generators_by_fref+0x44>)
    8d10:	6213      	str	r3, [r2, #32]
    8d12:	f643 71fd 	movw	r1, #16381	; 0x3ffd
    8d16:	6853      	ldr	r3, [r2, #4]
    8d18:	420b      	tst	r3, r1
    8d1a:	d1fc      	bne.n	8d16 <_gclk_init_generators_by_fref+0xe>
    8d1c:	0782      	lsls	r2, r0, #30
    8d1e:	d507      	bpl.n	8d30 <_gclk_init_generators_by_fref+0x28>
    8d20:	4a09      	ldr	r2, [pc, #36]	; (8d48 <_gclk_init_generators_by_fref+0x40>)
    8d22:	4b0b      	ldr	r3, [pc, #44]	; (8d50 <_gclk_init_generators_by_fref+0x48>)
    8d24:	6253      	str	r3, [r2, #36]	; 0x24
    8d26:	f643 71fd 	movw	r1, #16381	; 0x3ffd
    8d2a:	6853      	ldr	r3, [r2, #4]
    8d2c:	420b      	tst	r3, r1
    8d2e:	d1fc      	bne.n	8d2a <_gclk_init_generators_by_fref+0x22>
    8d30:	0703      	lsls	r3, r0, #28
    8d32:	d508      	bpl.n	8d46 <_gclk_init_generators_by_fref+0x3e>
    8d34:	4a04      	ldr	r2, [pc, #16]	; (8d48 <_gclk_init_generators_by_fref+0x40>)
    8d36:	4b07      	ldr	r3, [pc, #28]	; (8d54 <_gclk_init_generators_by_fref+0x4c>)
    8d38:	62d3      	str	r3, [r2, #44]	; 0x2c
    8d3a:	f643 71fd 	movw	r1, #16381	; 0x3ffd
    8d3e:	6853      	ldr	r3, [r2, #4]
    8d40:	420b      	tst	r3, r1
    8d42:	d1fc      	bne.n	8d3e <_gclk_init_generators_by_fref+0x36>
    8d44:	4770      	bx	lr
    8d46:	4770      	bx	lr
    8d48:	40001c00 	.word	0x40001c00
    8d4c:	00010107 	.word	0x00010107
    8d50:	00080107 	.word	0x00080107
    8d54:	00010108 	.word	0x00010108

00008d58 <_mclk_init>:
    8d58:	4b01      	ldr	r3, [pc, #4]	; (8d60 <_mclk_init+0x8>)
    8d5a:	2201      	movs	r2, #1
    8d5c:	715a      	strb	r2, [r3, #5]
    8d5e:	4770      	bx	lr
    8d60:	40000800 	.word	0x40000800

00008d64 <_flash_program>:
    8d64:	b470      	push	{r4, r5, r6}
    8d66:	088e      	lsrs	r6, r1, #2
    8d68:	8a44      	ldrh	r4, [r0, #18]
    8d6a:	07e5      	lsls	r5, r4, #31
    8d6c:	d5fc      	bpl.n	8d68 <_flash_program+0x4>
    8d6e:	f24a 5415 	movw	r4, #42261	; 0xa515
    8d72:	8084      	strh	r4, [r0, #4]
    8d74:	8a44      	ldrh	r4, [r0, #18]
    8d76:	07e4      	lsls	r4, r4, #31
    8d78:	d5fc      	bpl.n	8d74 <_flash_program+0x10>
    8d7a:	b14b      	cbz	r3, 8d90 <_flash_program+0x2c>
    8d7c:	ebc2 0686 	rsb	r6, r2, r6, lsl #2
    8d80:	4614      	mov	r4, r2
    8d82:	6825      	ldr	r5, [r4, #0]
    8d84:	51a5      	str	r5, [r4, r6]
    8d86:	3404      	adds	r4, #4
    8d88:	1aa5      	subs	r5, r4, r2
    8d8a:	b2ad      	uxth	r5, r5
    8d8c:	42ab      	cmp	r3, r5
    8d8e:	d8f8      	bhi.n	8d82 <_flash_program+0x1e>
    8d90:	8a43      	ldrh	r3, [r0, #18]
    8d92:	07db      	lsls	r3, r3, #31
    8d94:	d5fc      	bpl.n	8d90 <_flash_program+0x2c>
    8d96:	f24a 5303 	movw	r3, #42243	; 0xa503
    8d9a:	6141      	str	r1, [r0, #20]
    8d9c:	bc70      	pop	{r4, r5, r6}
    8d9e:	8083      	strh	r3, [r0, #4]
    8da0:	4770      	bx	lr
    8da2:	bf00      	nop

00008da4 <_user_row_write_exec>:
    8da4:	b4f0      	push	{r4, r5, r6, r7}
    8da6:	4a1d      	ldr	r2, [pc, #116]	; (8e1c <_user_row_write_exec+0x78>)
    8da8:	4b1d      	ldr	r3, [pc, #116]	; (8e20 <_user_row_write_exec+0x7c>)
    8daa:	8817      	ldrh	r7, [r2, #0]
    8dac:	789b      	ldrb	r3, [r3, #2]
    8dae:	07de      	lsls	r6, r3, #31
    8db0:	d430      	bmi.n	8e14 <_user_row_write_exec+0x70>
    8db2:	b2bf      	uxth	r7, r7
    8db4:	8a53      	ldrh	r3, [r2, #18]
    8db6:	07dd      	lsls	r5, r3, #31
    8db8:	d5fc      	bpl.n	8db4 <_user_row_write_exec+0x10>
    8dba:	8813      	ldrh	r3, [r2, #0]
    8dbc:	4d19      	ldr	r5, [pc, #100]	; (8e24 <_user_row_write_exec+0x80>)
    8dbe:	4917      	ldr	r1, [pc, #92]	; (8e1c <_user_row_write_exec+0x78>)
    8dc0:	b29b      	uxth	r3, r3
    8dc2:	f44f 4425 	mov.w	r4, #42240	; 0xa500
    8dc6:	8013      	strh	r3, [r2, #0]
    8dc8:	6155      	str	r5, [r2, #20]
    8dca:	8094      	strh	r4, [r2, #4]
    8dcc:	8a4b      	ldrh	r3, [r1, #18]
    8dce:	07dc      	lsls	r4, r3, #31
    8dd0:	d5fc      	bpl.n	8dcc <_user_row_write_exec+0x28>
    8dd2:	4914      	ldr	r1, [pc, #80]	; (8e24 <_user_row_write_exec+0x80>)
    8dd4:	4b11      	ldr	r3, [pc, #68]	; (8e1c <_user_row_write_exec+0x78>)
    8dd6:	4e14      	ldr	r6, [pc, #80]	; (8e28 <_user_row_write_exec+0x84>)
    8dd8:	f24a 5515 	movw	r5, #42261	; 0xa515
    8ddc:	f24a 5404 	movw	r4, #42244	; 0xa504
    8de0:	809d      	strh	r5, [r3, #4]
    8de2:	8a5a      	ldrh	r2, [r3, #18]
    8de4:	07d2      	lsls	r2, r2, #31
    8de6:	d5fc      	bpl.n	8de2 <_user_row_write_exec+0x3e>
    8de8:	6802      	ldr	r2, [r0, #0]
    8dea:	600a      	str	r2, [r1, #0]
    8dec:	6842      	ldr	r2, [r0, #4]
    8dee:	604a      	str	r2, [r1, #4]
    8df0:	6882      	ldr	r2, [r0, #8]
    8df2:	608a      	str	r2, [r1, #8]
    8df4:	68c2      	ldr	r2, [r0, #12]
    8df6:	60ca      	str	r2, [r1, #12]
    8df8:	6159      	str	r1, [r3, #20]
    8dfa:	809c      	strh	r4, [r3, #4]
    8dfc:	8a5a      	ldrh	r2, [r3, #18]
    8dfe:	07d2      	lsls	r2, r2, #31
    8e00:	d5fc      	bpl.n	8dfc <_user_row_write_exec+0x58>
    8e02:	3110      	adds	r1, #16
    8e04:	42b1      	cmp	r1, r6
    8e06:	f100 0010 	add.w	r0, r0, #16
    8e0a:	d1e9      	bne.n	8de0 <_user_row_write_exec+0x3c>
    8e0c:	801f      	strh	r7, [r3, #0]
    8e0e:	2000      	movs	r0, #0
    8e10:	bcf0      	pop	{r4, r5, r6, r7}
    8e12:	4770      	bx	lr
    8e14:	f06f 0010 	mvn.w	r0, #16
    8e18:	e7fa      	b.n	8e10 <_user_row_write_exec+0x6c>
    8e1a:	bf00      	nop
    8e1c:	41004000 	.word	0x41004000
    8e20:	41002000 	.word	0x41002000
    8e24:	00804000 	.word	0x00804000
    8e28:	00804200 	.word	0x00804200

00008e2c <_flash_init>:
    8e2c:	b410      	push	{r4}
    8e2e:	6101      	str	r1, [r0, #16]
    8e30:	880b      	ldrh	r3, [r1, #0]
    8e32:	4c11      	ldr	r4, [pc, #68]	; (8e78 <_flash_init+0x4c>)
    8e34:	4a11      	ldr	r2, [pc, #68]	; (8e7c <_flash_init+0x50>)
    8e36:	6020      	str	r0, [r4, #0]
    8e38:	f023 03c0 	bic.w	r3, r3, #192	; 0xc0
    8e3c:	049b      	lsls	r3, r3, #18
    8e3e:	0c9b      	lsrs	r3, r3, #18
    8e40:	f04f 5400 	mov.w	r4, #536870912	; 0x20000000
    8e44:	800b      	strh	r3, [r1, #0]
    8e46:	f8c2 4080 	str.w	r4, [r2, #128]	; 0x80
    8e4a:	f3bf 8f4f 	dsb	sy
    8e4e:	f3bf 8f6f 	isb	sy
    8e52:	f04f 4380 	mov.w	r3, #1073741824	; 0x40000000
    8e56:	f8c2 3080 	str.w	r3, [r2, #128]	; 0x80
    8e5a:	f3bf 8f4f 	dsb	sy
    8e5e:	f3bf 8f6f 	isb	sy
    8e62:	2000      	movs	r0, #0
    8e64:	f8c2 4180 	str.w	r4, [r2, #384]	; 0x180
    8e68:	f8c2 3180 	str.w	r3, [r2, #384]	; 0x180
    8e6c:	6014      	str	r4, [r2, #0]
    8e6e:	6013      	str	r3, [r2, #0]
    8e70:	f85d 4b04 	ldr.w	r4, [sp], #4
    8e74:	4770      	bx	lr
    8e76:	bf00      	nop
    8e78:	2000366c 	.word	0x2000366c
    8e7c:	e000e100 	.word	0xe000e100

00008e80 <_flash_get_page_size>:
    8e80:	f44f 7000 	mov.w	r0, #512	; 0x200
    8e84:	4770      	bx	lr
    8e86:	bf00      	nop

00008e88 <_flash_get_total_pages>:
    8e88:	6903      	ldr	r3, [r0, #16]
    8e8a:	6898      	ldr	r0, [r3, #8]
    8e8c:	b280      	uxth	r0, r0
    8e8e:	4770      	bx	lr

00008e90 <_flash_erase_block_addr>:
    8e90:	f421 51ff 	bic.w	r1, r1, #8160	; 0x1fe0
    8e94:	6902      	ldr	r2, [r0, #16]
    8e96:	f021 011f 	bic.w	r1, r1, #31
    8e9a:	8a53      	ldrh	r3, [r2, #18]
    8e9c:	07db      	lsls	r3, r3, #31
    8e9e:	d5fc      	bpl.n	8e9a <_flash_erase_block_addr+0xa>
    8ea0:	f24a 5301 	movw	r3, #42241	; 0xa501
    8ea4:	6151      	str	r1, [r2, #20]
    8ea6:	8093      	strh	r3, [r2, #4]
    8ea8:	4770      	bx	lr
    8eaa:	bf00      	nop

00008eac <_flash_write_page_addr>:
    8eac:	b410      	push	{r4}
    8eae:	4c03      	ldr	r4, [pc, #12]	; (8ebc <_flash_write_page_addr+0x10>)
    8eb0:	6900      	ldr	r0, [r0, #16]
    8eb2:	46a4      	mov	ip, r4
    8eb4:	f85d 4b04 	ldr.w	r4, [sp], #4
    8eb8:	4760      	bx	ip
    8eba:	bf00      	nop
    8ebc:	00008d65 	.word	0x00008d65

00008ec0 <_flash_is_locked>:
    8ec0:	6903      	ldr	r3, [r0, #16]
    8ec2:	f3c1 314f 	ubfx	r1, r1, #13, #16
    8ec6:	699a      	ldr	r2, [r3, #24]
    8ec8:	2301      	movs	r3, #1
    8eca:	fa03 f101 	lsl.w	r1, r3, r1
    8ece:	4211      	tst	r1, r2
    8ed0:	bf0c      	ite	eq
    8ed2:	4618      	moveq	r0, r3
    8ed4:	2000      	movne	r0, #0
    8ed6:	4770      	bx	lr

00008ed8 <NVMCTRL_1_Handler>:
    8ed8:	4b0a      	ldr	r3, [pc, #40]	; (8f04 <NVMCTRL_1_Handler+0x2c>)
    8eda:	6818      	ldr	r0, [r3, #0]
    8edc:	6903      	ldr	r3, [r0, #16]
    8ede:	8a1a      	ldrh	r2, [r3, #16]
    8ee0:	07d2      	lsls	r2, r2, #31
    8ee2:	d504      	bpl.n	8eee <NVMCTRL_1_Handler+0x16>
    8ee4:	2201      	movs	r2, #1
    8ee6:	821a      	strh	r2, [r3, #16]
    8ee8:	6803      	ldr	r3, [r0, #0]
    8eea:	b14b      	cbz	r3, 8f00 <NVMCTRL_1_Handler+0x28>
    8eec:	4718      	bx	r3
    8eee:	8a1a      	ldrh	r2, [r3, #16]
    8ef0:	b292      	uxth	r2, r2
    8ef2:	b12a      	cbz	r2, 8f00 <NVMCTRL_1_Handler+0x28>
    8ef4:	f240 225e 	movw	r2, #606	; 0x25e
    8ef8:	821a      	strh	r2, [r3, #16]
    8efa:	6843      	ldr	r3, [r0, #4]
    8efc:	2b00      	cmp	r3, #0
    8efe:	d1f5      	bne.n	8eec <NVMCTRL_1_Handler+0x14>
    8f00:	4770      	bx	lr
    8f02:	bf00      	nop
    8f04:	2000366c 	.word	0x2000366c

00008f08 <NVMCTRL_0_Handler>:
    8f08:	4b00      	ldr	r3, [pc, #0]	; (8f0c <NVMCTRL_0_Handler+0x4>)
    8f0a:	4718      	bx	r3
    8f0c:	00008ed9 	.word	0x00008ed9

00008f10 <_user_area_read>:
    8f10:	b570      	push	{r4, r5, r6, lr}
    8f12:	f5a0 0500 	sub.w	r5, r0, #8388608	; 0x800000
    8f16:	f5a5 4580 	sub.w	r5, r5, #16384	; 0x4000
    8f1a:	f5b5 7f00 	cmp.w	r5, #512	; 0x200
    8f1e:	d20b      	bcs.n	8f38 <_user_area_read+0x28>
    8f20:	4e12      	ldr	r6, [pc, #72]	; (8f6c <_user_area_read+0x5c>)
    8f22:	1845      	adds	r5, r0, r1
    8f24:	42b5      	cmp	r5, r6
    8f26:	d81b      	bhi.n	8f60 <_user_area_read+0x50>
    8f28:	1e5c      	subs	r4, r3, #1
    8f2a:	4421      	add	r1, r4
    8f2c:	4408      	add	r0, r1
    8f2e:	42b0      	cmp	r0, r6
    8f30:	d90f      	bls.n	8f52 <_user_area_read+0x42>
    8f32:	f06f 000c 	mvn.w	r0, #12
    8f36:	bd70      	pop	{r4, r5, r6, pc}
    8f38:	f1a0 1480 	sub.w	r4, r0, #8388736	; 0x800080
    8f3c:	2c04      	cmp	r4, #4
    8f3e:	d812      	bhi.n	8f66 <_user_area_read+0x56>
    8f40:	4e0b      	ldr	r6, [pc, #44]	; (8f70 <_user_area_read+0x60>)
    8f42:	1845      	adds	r5, r0, r1
    8f44:	42b5      	cmp	r5, r6
    8f46:	d80b      	bhi.n	8f60 <_user_area_read+0x50>
    8f48:	1e5c      	subs	r4, r3, #1
    8f4a:	4421      	add	r1, r4
    8f4c:	1844      	adds	r4, r0, r1
    8f4e:	42b4      	cmp	r4, r6
    8f50:	d8ef      	bhi.n	8f32 <_user_area_read+0x22>
    8f52:	4629      	mov	r1, r5
    8f54:	4610      	mov	r0, r2
    8f56:	461a      	mov	r2, r3
    8f58:	4b06      	ldr	r3, [pc, #24]	; (8f74 <_user_area_read+0x64>)
    8f5a:	4798      	blx	r3
    8f5c:	2000      	movs	r0, #0
    8f5e:	bd70      	pop	{r4, r5, r6, pc}
    8f60:	f06f 000d 	mvn.w	r0, #13
    8f64:	bd70      	pop	{r4, r5, r6, pc}
    8f66:	f06f 001a 	mvn.w	r0, #26
    8f6a:	bd70      	pop	{r4, r5, r6, pc}
    8f6c:	008041ff 	.word	0x008041ff
    8f70:	00800084 	.word	0x00800084
    8f74:	00010a69 	.word	0x00010a69

00008f78 <_user_area_write>:
    8f78:	b5f0      	push	{r4, r5, r6, r7, lr}
    8f7a:	f5a0 0400 	sub.w	r4, r0, #8388608	; 0x800000
    8f7e:	f5a4 4480 	sub.w	r4, r4, #16384	; 0x4000
    8f82:	f5b4 7f00 	cmp.w	r4, #512	; 0x200
    8f86:	f5ad 7d01 	sub.w	sp, sp, #516	; 0x204
    8f8a:	d21c      	bcs.n	8fc6 <_user_area_write+0x4e>
    8f8c:	4d16      	ldr	r5, [pc, #88]	; (8fe8 <_user_area_write+0x70>)
    8f8e:	1844      	adds	r4, r0, r1
    8f90:	42ac      	cmp	r4, r5
    8f92:	d823      	bhi.n	8fdc <_user_area_write+0x64>
    8f94:	1e5c      	subs	r4, r3, #1
    8f96:	440c      	add	r4, r1
    8f98:	4404      	add	r4, r0
    8f9a:	42ac      	cmp	r4, r5
    8f9c:	d821      	bhi.n	8fe2 <_user_area_write+0x6a>
    8f9e:	461d      	mov	r5, r3
    8fa0:	4616      	mov	r6, r2
    8fa2:	460c      	mov	r4, r1
    8fa4:	4f11      	ldr	r7, [pc, #68]	; (8fec <_user_area_write+0x74>)
    8fa6:	4601      	mov	r1, r0
    8fa8:	f44f 7200 	mov.w	r2, #512	; 0x200
    8fac:	4668      	mov	r0, sp
    8fae:	47b8      	blx	r7
    8fb0:	462a      	mov	r2, r5
    8fb2:	4631      	mov	r1, r6
    8fb4:	eb0d 0004 	add.w	r0, sp, r4
    8fb8:	47b8      	blx	r7
    8fba:	4668      	mov	r0, sp
    8fbc:	4b0c      	ldr	r3, [pc, #48]	; (8ff0 <_user_area_write+0x78>)
    8fbe:	4798      	blx	r3
    8fc0:	f50d 7d01 	add.w	sp, sp, #516	; 0x204
    8fc4:	bdf0      	pop	{r4, r5, r6, r7, pc}
    8fc6:	f1a0 1080 	sub.w	r0, r0, #8388736	; 0x800080
    8fca:	2805      	cmp	r0, #5
    8fcc:	bf34      	ite	cc
    8fce:	f06f 0010 	mvncc.w	r0, #16
    8fd2:	f06f 001a 	mvncs.w	r0, #26
    8fd6:	f50d 7d01 	add.w	sp, sp, #516	; 0x204
    8fda:	bdf0      	pop	{r4, r5, r6, r7, pc}
    8fdc:	f06f 000d 	mvn.w	r0, #13
    8fe0:	e7f9      	b.n	8fd6 <_user_area_write+0x5e>
    8fe2:	f06f 000c 	mvn.w	r0, #12
    8fe6:	e7f6      	b.n	8fd6 <_user_area_write+0x5e>
    8fe8:	008041ff 	.word	0x008041ff
    8fec:	00010a69 	.word	0x00010a69
    8ff0:	00008da5 	.word	0x00008da5

00008ff4 <_osc32kctrl_init_sources>:
    8ff4:	4b03      	ldr	r3, [pc, #12]	; (9004 <_osc32kctrl_init_sources+0x10>)
    8ff6:	69da      	ldr	r2, [r3, #28]
    8ff8:	2101      	movs	r1, #1
    8ffa:	f402 527c 	and.w	r2, r2, #16128	; 0x3f00
    8ffe:	61da      	str	r2, [r3, #28]
    9000:	7419      	strb	r1, [r3, #16]
    9002:	4770      	bx	lr
    9004:	40001400 	.word	0x40001400

00009008 <_oscctrl_init_sources>:
    9008:	4a03      	ldr	r2, [pc, #12]	; (9018 <_oscctrl_init_sources+0x10>)
    900a:	4b04      	ldr	r3, [pc, #16]	; (901c <_oscctrl_init_sources+0x14>)
    900c:	6153      	str	r3, [r2, #20]
    900e:	6913      	ldr	r3, [r2, #16]
    9010:	07db      	lsls	r3, r3, #31
    9012:	d5fc      	bpl.n	900e <_oscctrl_init_sources+0x6>
    9014:	4770      	bx	lr
    9016:	bf00      	nop
    9018:	40001000 	.word	0x40001000
    901c:	02102e02 	.word	0x02102e02

00009020 <_oscctrl_init_referenced_generators>:
    9020:	4a18      	ldr	r2, [pc, #96]	; (9084 <_oscctrl_init_referenced_generators+0x64>)
    9022:	2323      	movs	r3, #35	; 0x23
    9024:	6353      	str	r3, [r2, #52]	; 0x34
    9026:	6bd3      	ldr	r3, [r2, #60]	; 0x3c
    9028:	f013 0f06 	tst.w	r3, #6
    902c:	d1fb      	bne.n	9026 <_oscctrl_init_referenced_generators+0x6>
    902e:	4b16      	ldr	r3, [pc, #88]	; (9088 <_oscctrl_init_referenced_generators+0x68>)
    9030:	6393      	str	r3, [r2, #56]	; 0x38
    9032:	4914      	ldr	r1, [pc, #80]	; (9084 <_oscctrl_init_referenced_generators+0x64>)
    9034:	2302      	movs	r3, #2
    9036:	f882 3030 	strb.w	r3, [r2, #48]	; 0x30
    903a:	6bcb      	ldr	r3, [r1, #60]	; 0x3c
    903c:	079b      	lsls	r3, r3, #30
    903e:	d4fc      	bmi.n	903a <_oscctrl_init_referenced_generators+0x1a>
    9040:	232c      	movs	r3, #44	; 0x2c
    9042:	4a10      	ldr	r2, [pc, #64]	; (9084 <_oscctrl_init_referenced_generators+0x64>)
    9044:	648b      	str	r3, [r1, #72]	; 0x48
    9046:	6d13      	ldr	r3, [r2, #80]	; 0x50
    9048:	f013 0f06 	tst.w	r3, #6
    904c:	d1fb      	bne.n	9046 <_oscctrl_init_referenced_generators+0x26>
    904e:	4b0e      	ldr	r3, [pc, #56]	; (9088 <_oscctrl_init_referenced_generators+0x68>)
    9050:	64d3      	str	r3, [r2, #76]	; 0x4c
    9052:	490c      	ldr	r1, [pc, #48]	; (9084 <_oscctrl_init_referenced_generators+0x64>)
    9054:	2302      	movs	r3, #2
    9056:	f882 3044 	strb.w	r3, [r2, #68]	; 0x44
    905a:	6d0b      	ldr	r3, [r1, #80]	; 0x50
    905c:	0798      	lsls	r0, r3, #30
    905e:	d4fc      	bmi.n	905a <_oscctrl_init_referenced_generators+0x3a>
    9060:	4b08      	ldr	r3, [pc, #32]	; (9084 <_oscctrl_init_referenced_generators+0x64>)
    9062:	e002      	b.n	906a <_oscctrl_init_referenced_generators+0x4a>
    9064:	6c1a      	ldr	r2, [r3, #64]	; 0x40
    9066:	0790      	lsls	r0, r2, #30
    9068:	d402      	bmi.n	9070 <_oscctrl_init_referenced_generators+0x50>
    906a:	6c1a      	ldr	r2, [r3, #64]	; 0x40
    906c:	07d2      	lsls	r2, r2, #31
    906e:	d5f9      	bpl.n	9064 <_oscctrl_init_referenced_generators+0x44>
    9070:	4b04      	ldr	r3, [pc, #16]	; (9084 <_oscctrl_init_referenced_generators+0x64>)
    9072:	e002      	b.n	907a <_oscctrl_init_referenced_generators+0x5a>
    9074:	6d5a      	ldr	r2, [r3, #84]	; 0x54
    9076:	0792      	lsls	r2, r2, #30
    9078:	d402      	bmi.n	9080 <_oscctrl_init_referenced_generators+0x60>
    907a:	6d5a      	ldr	r2, [r3, #84]	; 0x54
    907c:	07d1      	lsls	r1, r2, #31
    907e:	d5f9      	bpl.n	9074 <_oscctrl_init_referenced_generators+0x54>
    9080:	4770      	bx	lr
    9082:	bf00      	nop
    9084:	40001000 	.word	0x40001000
    9088:	00020040 	.word	0x00020040

0000908c <RAMECC_Handler>:
    908c:	b500      	push	{lr}
    908e:	4a0c      	ldr	r2, [pc, #48]	; (90c0 <RAMECC_Handler+0x34>)
    9090:	7893      	ldrb	r3, [r2, #2]
    9092:	b083      	sub	sp, #12
    9094:	b2db      	uxtb	r3, r3
    9096:	9301      	str	r3, [sp, #4]
    9098:	9b01      	ldr	r3, [sp, #4]
    909a:	0799      	lsls	r1, r3, #30
    909c:	d507      	bpl.n	90ae <RAMECC_Handler+0x22>
    909e:	4b09      	ldr	r3, [pc, #36]	; (90c4 <RAMECC_Handler+0x38>)
    90a0:	681b      	ldr	r3, [r3, #0]
    90a2:	b123      	cbz	r3, 90ae <RAMECC_Handler+0x22>
    90a4:	6850      	ldr	r0, [r2, #4]
    90a6:	4798      	blx	r3
    90a8:	b003      	add	sp, #12
    90aa:	f85d fb04 	ldr.w	pc, [sp], #4
    90ae:	9b01      	ldr	r3, [sp, #4]
    90b0:	07db      	lsls	r3, r3, #31
    90b2:	d5f9      	bpl.n	90a8 <RAMECC_Handler+0x1c>
    90b4:	4b03      	ldr	r3, [pc, #12]	; (90c4 <RAMECC_Handler+0x38>)
    90b6:	685b      	ldr	r3, [r3, #4]
    90b8:	2b00      	cmp	r3, #0
    90ba:	d0f5      	beq.n	90a8 <RAMECC_Handler+0x1c>
    90bc:	4a00      	ldr	r2, [pc, #0]	; (90c0 <RAMECC_Handler+0x34>)
    90be:	e7f1      	b.n	90a4 <RAMECC_Handler+0x18>
    90c0:	41020000 	.word	0x41020000
    90c4:	2000f168 	.word	0x2000f168

000090c8 <_get_i2cm_index>:
    90c8:	b470      	push	{r4, r5, r6}
    90ca:	4d10      	ldr	r5, [pc, #64]	; (910c <_get_i2cm_index+0x44>)
    90cc:	4606      	mov	r6, r0
    90ce:	cd0f      	ldmia	r5!, {r0, r1, r2, r3}
    90d0:	b087      	sub	sp, #28
    90d2:	466c      	mov	r4, sp
    90d4:	c40f      	stmia	r4!, {r0, r1, r2, r3}
    90d6:	e895 0003 	ldmia.w	r5, {r0, r1}
    90da:	e884 0003 	stmia.w	r4, {r0, r1}
    90de:	466a      	mov	r2, sp
    90e0:	2300      	movs	r3, #0
    90e2:	f852 1b04 	ldr.w	r1, [r2], #4
    90e6:	42b1      	cmp	r1, r6
    90e8:	d007      	beq.n	90fa <_get_i2cm_index+0x32>
    90ea:	3301      	adds	r3, #1
    90ec:	2b06      	cmp	r3, #6
    90ee:	d1f8      	bne.n	90e2 <_get_i2cm_index+0x1a>
    90f0:	f04f 30ff 	mov.w	r0, #4294967295
    90f4:	b007      	add	sp, #28
    90f6:	bc70      	pop	{r4, r5, r6}
    90f8:	4770      	bx	lr
    90fa:	b2db      	uxtb	r3, r3
    90fc:	1ed8      	subs	r0, r3, #3
    90fe:	bf18      	it	ne
    9100:	f04f 30ff 	movne.w	r0, #4294967295
    9104:	b007      	add	sp, #28
    9106:	bc70      	pop	{r4, r5, r6}
    9108:	4770      	bx	lr
    910a:	bf00      	nop
    910c:	00011a04 	.word	0x00011a04

00009110 <_sercom_i2c_sync_wait_bus>:
    9110:	b5f0      	push	{r4, r5, r6, r7, lr}
    9112:	6905      	ldr	r5, [r0, #16]
    9114:	4e15      	ldr	r6, [pc, #84]	; (916c <_sercom_i2c_sync_wait_bus+0x5c>)
    9116:	f44f 3480 	mov.w	r4, #65536	; 0x10000
    911a:	273c      	movs	r7, #60	; 0x3c
    911c:	e003      	b.n	9126 <_sercom_i2c_sync_wait_bus+0x16>
    911e:	3c01      	subs	r4, #1
    9120:	d01b      	beq.n	915a <_sercom_i2c_sync_wait_bus+0x4a>
    9122:	079b      	lsls	r3, r3, #30
    9124:	d113      	bne.n	914e <_sercom_i2c_sync_wait_bus+0x3e>
    9126:	7e2b      	ldrb	r3, [r5, #24]
    9128:	600b      	str	r3, [r1, #0]
    912a:	7477      	strb	r7, [r6, #17]
    912c:	680b      	ldr	r3, [r1, #0]
    912e:	7daa      	ldrb	r2, [r5, #22]
    9130:	f013 0080 	ands.w	r0, r3, #128	; 0x80
    9134:	fa1f fe83 	uxth.w	lr, r3
    9138:	d0f1      	beq.n	911e <_sercom_i2c_sync_wait_bus+0xe>
    913a:	212e      	movs	r1, #46	; 0x2e
    913c:	2380      	movs	r3, #128	; 0x80
    913e:	f8a6 e02c 	strh.w	lr, [r6, #44]	; 0x2c
    9142:	8632      	strh	r2, [r6, #48]	; 0x30
    9144:	7471      	strb	r1, [r6, #17]
    9146:	762b      	strb	r3, [r5, #24]
    9148:	f06f 0004 	mvn.w	r0, #4
    914c:	bdf0      	pop	{r4, r5, r6, r7, pc}
    914e:	233e      	movs	r3, #62	; 0x3e
    9150:	7473      	strb	r3, [r6, #17]
    9152:	f8a6 e02c 	strh.w	lr, [r6, #44]	; 0x2c
    9156:	8632      	strh	r2, [r6, #48]	; 0x30
    9158:	bdf0      	pop	{r4, r5, r6, r7, pc}
    915a:	2321      	movs	r3, #33	; 0x21
    915c:	7473      	strb	r3, [r6, #17]
    915e:	f8a6 e02c 	strh.w	lr, [r6, #44]	; 0x2c
    9162:	8632      	strh	r2, [r6, #48]	; 0x30
    9164:	f06f 0004 	mvn.w	r0, #4
    9168:	bdf0      	pop	{r4, r5, r6, r7, pc}
    916a:	bf00      	nop
    916c:	2001ff00 	.word	0x2001ff00

00009170 <_i2c_m_sync_init_impl>:
    9170:	b5f8      	push	{r3, r4, r5, r6, r7, lr}
    9172:	4b2a      	ldr	r3, [pc, #168]	; (921c <_i2c_m_sync_init_impl+0xac>)
    9174:	4605      	mov	r5, r0
    9176:	4608      	mov	r0, r1
    9178:	460c      	mov	r4, r1
    917a:	4798      	blx	r3
    917c:	69e3      	ldr	r3, [r4, #28]
    917e:	4928      	ldr	r1, [pc, #160]	; (9220 <_i2c_m_sync_init_impl+0xb0>)
    9180:	b2c7      	uxtb	r7, r0
    9182:	007e      	lsls	r6, r7, #1
    9184:	f013 0f01 	tst.w	r3, #1
    9188:	eb06 0307 	add.w	r3, r6, r7
    918c:	eb01 03c3 	add.w	r3, r1, r3, lsl #3
    9190:	69da      	ldr	r2, [r3, #28]
    9192:	d117      	bne.n	91c4 <_i2c_m_sync_init_impl+0x54>
    9194:	f002 001c 	and.w	r0, r2, #28
    9198:	69e3      	ldr	r3, [r4, #28]
    919a:	079b      	lsls	r3, r3, #30
    919c:	d1fc      	bne.n	9198 <_i2c_m_sync_init_impl+0x28>
    919e:	6823      	ldr	r3, [r4, #0]
    91a0:	079b      	lsls	r3, r3, #30
    91a2:	d509      	bpl.n	91b8 <_i2c_m_sync_init_impl+0x48>
    91a4:	6823      	ldr	r3, [r4, #0]
    91a6:	f023 0302 	bic.w	r3, r3, #2
    91aa:	6023      	str	r3, [r4, #0]
    91ac:	69e3      	ldr	r3, [r4, #28]
    91ae:	079b      	lsls	r3, r3, #30
    91b0:	d1fc      	bne.n	91ac <_i2c_m_sync_init_impl+0x3c>
    91b2:	69e3      	ldr	r3, [r4, #28]
    91b4:	079b      	lsls	r3, r3, #30
    91b6:	d4fc      	bmi.n	91b2 <_i2c_m_sync_init_impl+0x42>
    91b8:	f040 0001 	orr.w	r0, r0, #1
    91bc:	6020      	str	r0, [r4, #0]
    91be:	69e3      	ldr	r3, [r4, #28]
    91c0:	0798      	lsls	r0, r3, #30
    91c2:	d1fc      	bne.n	91be <_i2c_m_sync_init_impl+0x4e>
    91c4:	69e3      	ldr	r3, [r4, #28]
    91c6:	07db      	lsls	r3, r3, #31
    91c8:	d4fc      	bmi.n	91c4 <_i2c_m_sync_init_impl+0x54>
    91ca:	6022      	str	r2, [r4, #0]
    91cc:	69e3      	ldr	r3, [r4, #28]
    91ce:	0798      	lsls	r0, r3, #30
    91d0:	d1fc      	bne.n	91cc <_i2c_m_sync_init_impl+0x5c>
    91d2:	19f3      	adds	r3, r6, r7
    91d4:	eb01 03c3 	add.w	r3, r1, r3, lsl #3
    91d8:	6a1b      	ldr	r3, [r3, #32]
    91da:	6063      	str	r3, [r4, #4]
    91dc:	69e3      	ldr	r3, [r4, #28]
    91de:	075b      	lsls	r3, r3, #29
    91e0:	d4fc      	bmi.n	91dc <_i2c_m_sync_init_impl+0x6c>
    91e2:	19f3      	adds	r3, r6, r7
    91e4:	eb01 03c3 	add.w	r3, r1, r3, lsl #3
    91e8:	f3c2 6201 	ubfx	r2, r2, #24, #2
    91ec:	6a5b      	ldr	r3, [r3, #36]	; 0x24
    91ee:	60e3      	str	r3, [r4, #12]
    91f0:	81aa      	strh	r2, [r5, #12]
    91f2:	6a63      	ldr	r3, [r4, #36]	; 0x24
    91f4:	2a01      	cmp	r2, #1
    91f6:	bf94      	ite	ls
    91f8:	2200      	movls	r2, #0
    91fa:	2201      	movhi	r2, #1
    91fc:	f423 4380 	bic.w	r3, r3, #16384	; 0x4000
    9200:	ea43 3282 	orr.w	r2, r3, r2, lsl #14
    9204:	6262      	str	r2, [r4, #36]	; 0x24
    9206:	69e0      	ldr	r0, [r4, #28]
    9208:	f010 0004 	ands.w	r0, r0, #4
    920c:	d1fb      	bne.n	9206 <_i2c_m_sync_init_impl+0x96>
    920e:	443e      	add	r6, r7
    9210:	eb01 01c6 	add.w	r1, r1, r6, lsl #3
    9214:	8d4b      	ldrh	r3, [r1, #42]	; 0x2a
    9216:	81eb      	strh	r3, [r5, #14]
    9218:	bdf8      	pop	{r3, r4, r5, r6, r7, pc}
    921a:	bf00      	nop
    921c:	000090c9 	.word	0x000090c9
    9220:	00011a04 	.word	0x00011a04

00009224 <_i2c_m_sync_init>:
    9224:	6101      	str	r1, [r0, #16]
    9226:	4b01      	ldr	r3, [pc, #4]	; (922c <_i2c_m_sync_init+0x8>)
    9228:	4718      	bx	r3
    922a:	bf00      	nop
    922c:	00009171 	.word	0x00009171

00009230 <_i2c_m_sync_deinit>:
    9230:	6903      	ldr	r3, [r0, #16]
    9232:	681a      	ldr	r2, [r3, #0]
    9234:	f022 0202 	bic.w	r2, r2, #2
    9238:	601a      	str	r2, [r3, #0]
    923a:	69da      	ldr	r2, [r3, #28]
    923c:	0792      	lsls	r2, r2, #30
    923e:	d1fc      	bne.n	923a <_i2c_m_sync_deinit+0xa>
    9240:	681a      	ldr	r2, [r3, #0]
    9242:	f042 0201 	orr.w	r2, r2, #1
    9246:	601a      	str	r2, [r3, #0]
    9248:	69d8      	ldr	r0, [r3, #28]
    924a:	f010 0001 	ands.w	r0, r0, #1
    924e:	d1fb      	bne.n	9248 <_i2c_m_sync_deinit+0x18>
    9250:	4770      	bx	lr
    9252:	bf00      	nop

00009254 <_i2c_m_sync_enable>:
    9254:	b430      	push	{r4, r5}
    9256:	6903      	ldr	r3, [r0, #16]
    9258:	681a      	ldr	r2, [r3, #0]
    925a:	f042 0202 	orr.w	r2, r2, #2
    925e:	601a      	str	r2, [r3, #0]
    9260:	69da      	ldr	r2, [r3, #28]
    9262:	0791      	lsls	r1, r2, #30
    9264:	d1fc      	bne.n	9260 <_i2c_m_sync_enable+0xc>
    9266:	2404      	movs	r4, #4
    9268:	2510      	movs	r5, #16
    926a:	f64f 71ff 	movw	r1, #65535	; 0xffff
    926e:	69d8      	ldr	r0, [r3, #28]
    9270:	f010 0004 	ands.w	r0, r0, #4
    9274:	d1fb      	bne.n	926e <_i2c_m_sync_enable+0x1a>
    9276:	8b5a      	ldrh	r2, [r3, #26]
    9278:	f3c2 1201 	ubfx	r2, r2, #4, #2
    927c:	2a01      	cmp	r2, #1
    927e:	d00a      	beq.n	9296 <_i2c_m_sync_enable+0x42>
    9280:	3901      	subs	r1, #1
    9282:	d1f4      	bne.n	926e <_i2c_m_sync_enable+0x1a>
    9284:	3c01      	subs	r4, #1
    9286:	d004      	beq.n	9292 <_i2c_m_sync_enable+0x3e>
    9288:	835d      	strh	r5, [r3, #26]
    928a:	69da      	ldr	r2, [r3, #28]
    928c:	0752      	lsls	r2, r2, #29
    928e:	d4fc      	bmi.n	928a <_i2c_m_sync_enable+0x36>
    9290:	e7eb      	b.n	926a <_i2c_m_sync_enable+0x16>
    9292:	f06f 0005 	mvn.w	r0, #5
    9296:	bc30      	pop	{r4, r5}
    9298:	4770      	bx	lr
    929a:	bf00      	nop

0000929c <_i2c_m_sync_disable>:
    929c:	6903      	ldr	r3, [r0, #16]
    929e:	681a      	ldr	r2, [r3, #0]
    92a0:	f022 0202 	bic.w	r2, r2, #2
    92a4:	601a      	str	r2, [r3, #0]
    92a6:	69d8      	ldr	r0, [r3, #28]
    92a8:	f010 0003 	ands.w	r0, r0, #3
    92ac:	d1fb      	bne.n	92a6 <_i2c_m_sync_disable+0xa>
    92ae:	4770      	bx	lr

000092b0 <_i2c_m_sync_transfer>:
    92b0:	e92d 47f0 	stmdb	sp!, {r4, r5, r6, r7, r8, r9, sl, lr}
    92b4:	8843      	ldrh	r3, [r0, #2]
    92b6:	6904      	ldr	r4, [r0, #16]
    92b8:	05de      	lsls	r6, r3, #23
    92ba:	b082      	sub	sp, #8
    92bc:	f100 8227 	bmi.w	970e <_i2c_m_sync_transfer+0x45e>
    92c0:	884b      	ldrh	r3, [r1, #2]
    92c2:	b29b      	uxth	r3, r3
    92c4:	f443 7380 	orr.w	r3, r3, #256	; 0x100
    92c8:	804b      	strh	r3, [r1, #2]
    92ca:	4682      	mov	sl, r0
    92cc:	460f      	mov	r7, r1
    92ce:	c907      	ldmia	r1, {r0, r1, r2}
    92d0:	e88a 0007 	stmia.w	sl, {r0, r1, r2}
    92d4:	6863      	ldr	r3, [r4, #4]
    92d6:	f443 7380 	orr.w	r3, r3, #256	; 0x100
    92da:	6063      	str	r3, [r4, #4]
    92dc:	69e3      	ldr	r3, [r4, #28]
    92de:	075d      	lsls	r5, r3, #29
    92e0:	d4fc      	bmi.n	92dc <_i2c_m_sync_transfer+0x2c>
    92e2:	f8da 3004 	ldr.w	r3, [sl, #4]
    92e6:	6822      	ldr	r2, [r4, #0]
    92e8:	2b01      	cmp	r3, #1
    92ea:	6863      	ldr	r3, [r4, #4]
    92ec:	f000 817a 	beq.w	95e4 <_i2c_m_sync_transfer+0x334>
    92f0:	f423 2380 	bic.w	r3, r3, #262144	; 0x40000
    92f4:	6063      	str	r3, [r4, #4]
    92f6:	69e3      	ldr	r3, [r4, #28]
    92f8:	075b      	lsls	r3, r3, #29
    92fa:	d4fc      	bmi.n	92f6 <_i2c_m_sync_transfer+0x46>
    92fc:	f8ba 3000 	ldrh.w	r3, [sl]
    9300:	055a      	lsls	r2, r3, #21
    9302:	d552      	bpl.n	93aa <_i2c_m_sync_transfer+0xfa>
    9304:	f8ba 2002 	ldrh.w	r2, [sl, #2]
    9308:	07d6      	lsls	r6, r2, #31
    930a:	d506      	bpl.n	931a <_i2c_m_sync_transfer+0x6a>
    930c:	f8ba 2002 	ldrh.w	r2, [sl, #2]
    9310:	b292      	uxth	r2, r2
    9312:	f442 6280 	orr.w	r2, r2, #1024	; 0x400
    9316:	f8aa 2002 	strh.w	r2, [sl, #2]
    931a:	f240 72fe 	movw	r2, #2046	; 0x7fe
    931e:	ea02 0243 	and.w	r2, r2, r3, lsl #1
    9322:	69e3      	ldr	r3, [r4, #28]
    9324:	075d      	lsls	r5, r3, #29
    9326:	d4fc      	bmi.n	9322 <_i2c_m_sync_transfer+0x72>
    9328:	6a63      	ldr	r3, [r4, #36]	; 0x24
    932a:	f403 4380 	and.w	r3, r3, #16384	; 0x4000
    932e:	f443 4300 	orr.w	r3, r3, #32768	; 0x8000
    9332:	4313      	orrs	r3, r2
    9334:	6263      	str	r3, [r4, #36]	; 0x24
    9336:	69e3      	ldr	r3, [r4, #28]
    9338:	0758      	lsls	r0, r3, #29
    933a:	d4fc      	bmi.n	9336 <_i2c_m_sync_transfer+0x86>
    933c:	a901      	add	r1, sp, #4
    933e:	4650      	mov	r0, sl
    9340:	4eb0      	ldr	r6, [pc, #704]	; (9604 <_i2c_m_sync_transfer+0x354>)
    9342:	4db1      	ldr	r5, [pc, #708]	; (9608 <_i2c_m_sync_transfer+0x358>)
    9344:	47b0      	blx	r6
    9346:	233b      	movs	r3, #59	; 0x3b
    9348:	746b      	strb	r3, [r5, #17]
    934a:	6821      	ldr	r1, [r4, #0]
    934c:	9a01      	ldr	r2, [sp, #4]
    934e:	69e3      	ldr	r3, [r4, #28]
    9350:	075b      	lsls	r3, r3, #29
    9352:	d4fc      	bmi.n	934e <_i2c_m_sync_transfer+0x9e>
    9354:	8b63      	ldrh	r3, [r4, #26]
    9356:	f012 0f01 	tst.w	r2, #1
    935a:	b29b      	uxth	r3, r3
    935c:	d038      	beq.n	93d0 <_i2c_m_sync_transfer+0x120>
    935e:	079a      	lsls	r2, r3, #30
    9360:	d561      	bpl.n	9426 <_i2c_m_sync_transfer+0x176>
    9362:	2201      	movs	r2, #1
    9364:	7622      	strb	r2, [r4, #24]
    9366:	f8ba 2002 	ldrh.w	r2, [sl, #2]
    936a:	b292      	uxth	r2, r2
    936c:	f442 5280 	orr.w	r2, r2, #4096	; 0x1000
    9370:	f8aa 2002 	strh.w	r2, [sl, #2]
    9374:	f8ba 2002 	ldrh.w	r2, [sl, #2]
    9378:	f422 7280 	bic.w	r2, r2, #256	; 0x100
    937c:	0412      	lsls	r2, r2, #16
    937e:	f013 0f01 	tst.w	r3, #1
    9382:	ea4f 4212 	mov.w	r2, r2, lsr #16
    9386:	f8aa 2002 	strh.w	r2, [sl, #2]
    938a:	bf14      	ite	ne
    938c:	f06f 0004 	mvnne.w	r0, #4
    9390:	f06f 0003 	mvneq.w	r0, #3
    9394:	f8ba 3002 	ldrh.w	r3, [sl, #2]
    9398:	f423 7380 	bic.w	r3, r3, #256	; 0x100
    939c:	041b      	lsls	r3, r3, #16
    939e:	0c1b      	lsrs	r3, r3, #16
    93a0:	f8aa 3002 	strh.w	r3, [sl, #2]
    93a4:	b002      	add	sp, #8
    93a6:	e8bd 87f0 	ldmia.w	sp!, {r4, r5, r6, r7, r8, r9, sl, pc}
    93aa:	f8ba 1002 	ldrh.w	r1, [sl, #2]
    93ae:	005a      	lsls	r2, r3, #1
    93b0:	b2d2      	uxtb	r2, r2
    93b2:	f001 0301 	and.w	r3, r1, #1
    93b6:	431a      	orrs	r2, r3
    93b8:	69e3      	ldr	r3, [r4, #28]
    93ba:	0759      	lsls	r1, r3, #29
    93bc:	d4fc      	bmi.n	93b8 <_i2c_m_sync_transfer+0x108>
    93be:	6a63      	ldr	r3, [r4, #36]	; 0x24
    93c0:	f403 4380 	and.w	r3, r3, #16384	; 0x4000
    93c4:	431a      	orrs	r2, r3
    93c6:	6262      	str	r2, [r4, #36]	; 0x24
    93c8:	69e3      	ldr	r3, [r4, #28]
    93ca:	075a      	lsls	r2, r3, #29
    93cc:	d4fc      	bmi.n	93c8 <_i2c_m_sync_transfer+0x118>
    93ce:	e7b5      	b.n	933c <_i2c_m_sync_transfer+0x8c>
    93d0:	0792      	lsls	r2, r2, #30
    93d2:	d542      	bpl.n	945a <_i2c_m_sync_transfer+0x1aa>
    93d4:	f8da 2004 	ldr.w	r2, [sl, #4]
    93d8:	2a00      	cmp	r2, #0
    93da:	f000 81aa 	beq.w	9732 <_i2c_m_sync_transfer+0x482>
    93de:	0758      	lsls	r0, r3, #29
    93e0:	f100 81a7 	bmi.w	9732 <_i2c_m_sync_transfer+0x482>
    93e4:	3a01      	subs	r2, #1
    93e6:	f8ca 2004 	str.w	r2, [sl, #4]
    93ea:	f3c1 61c0 	ubfx	r1, r1, #27, #1
    93ee:	2a00      	cmp	r2, #0
    93f0:	f040 811b 	bne.w	962a <_i2c_m_sync_transfer+0x37a>
    93f4:	b949      	cbnz	r1, 940a <_i2c_m_sync_transfer+0x15a>
    93f6:	6863      	ldr	r3, [r4, #4]
    93f8:	f443 2380 	orr.w	r3, r3, #262144	; 0x40000
    93fc:	6063      	str	r3, [r4, #4]
    93fe:	69e3      	ldr	r3, [r4, #28]
    9400:	0758      	lsls	r0, r3, #29
    9402:	d4fc      	bmi.n	93fe <_i2c_m_sync_transfer+0x14e>
    9404:	2a00      	cmp	r2, #0
    9406:	f040 8112 	bne.w	962e <_i2c_m_sync_transfer+0x37e>
    940a:	f8ba 3002 	ldrh.w	r3, [sl, #2]
    940e:	041b      	lsls	r3, r3, #16
    9410:	f100 8180 	bmi.w	9714 <_i2c_m_sync_transfer+0x464>
    9414:	f8ba 3002 	ldrh.w	r3, [sl, #2]
    9418:	f423 7380 	bic.w	r3, r3, #256	; 0x100
    941c:	041b      	lsls	r3, r3, #16
    941e:	0c1b      	lsrs	r3, r3, #16
    9420:	f8aa 3002 	strh.w	r3, [sl, #2]
    9424:	e103      	b.n	962e <_i2c_m_sync_transfer+0x37e>
    9426:	0758      	lsls	r0, r3, #29
    9428:	f100 8188 	bmi.w	973c <_i2c_m_sync_transfer+0x48c>
    942c:	f8ba 3002 	ldrh.w	r3, [sl, #2]
    9430:	055b      	lsls	r3, r3, #21
    9432:	f100 8109 	bmi.w	9648 <_i2c_m_sync_transfer+0x398>
    9436:	f8da 2004 	ldr.w	r2, [sl, #4]
    943a:	2a00      	cmp	r2, #0
    943c:	f040 812c 	bne.w	9698 <_i2c_m_sync_transfer+0x3e8>
    9440:	f8ba 3002 	ldrh.w	r3, [sl, #2]
    9444:	041a      	lsls	r2, r3, #16
    9446:	f100 815a 	bmi.w	96fe <_i2c_m_sync_transfer+0x44e>
    944a:	f8ba 3002 	ldrh.w	r3, [sl, #2]
    944e:	f423 7380 	bic.w	r3, r3, #256	; 0x100
    9452:	041b      	lsls	r3, r3, #16
    9454:	0c1b      	lsrs	r3, r3, #16
    9456:	f8aa 3002 	strh.w	r3, [sl, #2]
    945a:	2300      	movs	r3, #0
    945c:	f04f 083a 	mov.w	r8, #58	; 0x3a
    9460:	f04f 0902 	mov.w	r9, #2
    9464:	f8ba 2002 	ldrh.w	r2, [sl, #2]
    9468:	05d2      	lsls	r2, r2, #23
    946a:	d52e      	bpl.n	94ca <_i2c_m_sync_transfer+0x21a>
    946c:	a901      	add	r1, sp, #4
    946e:	4650      	mov	r0, sl
    9470:	47b0      	blx	r6
    9472:	f885 8011 	strb.w	r8, [r5, #17]
    9476:	2800      	cmp	r0, #0
    9478:	f040 80a8 	bne.w	95cc <_i2c_m_sync_transfer+0x31c>
    947c:	9b01      	ldr	r3, [sp, #4]
    947e:	6821      	ldr	r1, [r4, #0]
    9480:	69e2      	ldr	r2, [r4, #28]
    9482:	0752      	lsls	r2, r2, #29
    9484:	d4fc      	bmi.n	9480 <_i2c_m_sync_transfer+0x1d0>
    9486:	8b62      	ldrh	r2, [r4, #26]
    9488:	07d8      	lsls	r0, r3, #31
    948a:	b292      	uxth	r2, r2
    948c:	d521      	bpl.n	94d2 <_i2c_m_sync_transfer+0x222>
    948e:	0790      	lsls	r0, r2, #30
    9490:	d554      	bpl.n	953c <_i2c_m_sync_transfer+0x28c>
    9492:	2301      	movs	r3, #1
    9494:	7623      	strb	r3, [r4, #24]
    9496:	f8ba 3002 	ldrh.w	r3, [sl, #2]
    949a:	b29b      	uxth	r3, r3
    949c:	f443 5380 	orr.w	r3, r3, #4096	; 0x1000
    94a0:	f8aa 3002 	strh.w	r3, [sl, #2]
    94a4:	f8ba 3002 	ldrh.w	r3, [sl, #2]
    94a8:	f423 7380 	bic.w	r3, r3, #256	; 0x100
    94ac:	041b      	lsls	r3, r3, #16
    94ae:	0c1b      	lsrs	r3, r3, #16
    94b0:	f8aa 3002 	strh.w	r3, [sl, #2]
    94b4:	f012 0f01 	tst.w	r2, #1
    94b8:	f8ba 2002 	ldrh.w	r2, [sl, #2]
    94bc:	bf14      	ite	ne
    94be:	f06f 0304 	mvnne.w	r3, #4
    94c2:	f06f 0303 	mvneq.w	r3, #3
    94c6:	05d2      	lsls	r2, r2, #23
    94c8:	d4d0      	bmi.n	946c <_i2c_m_sync_transfer+0x1bc>
    94ca:	4618      	mov	r0, r3
    94cc:	b002      	add	sp, #8
    94ce:	e8bd 87f0 	ldmia.w	sp!, {r4, r5, r6, r7, r8, r9, sl, pc}
    94d2:	f013 0302 	ands.w	r3, r3, #2
    94d6:	d0c5      	beq.n	9464 <_i2c_m_sync_transfer+0x1b4>
    94d8:	f8da 3004 	ldr.w	r3, [sl, #4]
    94dc:	2b00      	cmp	r3, #0
    94de:	f000 80ce 	beq.w	967e <_i2c_m_sync_transfer+0x3ce>
    94e2:	0750      	lsls	r0, r2, #29
    94e4:	f100 80cb 	bmi.w	967e <_i2c_m_sync_transfer+0x3ce>
    94e8:	1e5a      	subs	r2, r3, #1
    94ea:	f8ca 2004 	str.w	r2, [sl, #4]
    94ee:	f3c1 61c0 	ubfx	r1, r1, #27, #1
    94f2:	2a00      	cmp	r2, #0
    94f4:	d145      	bne.n	9582 <_i2c_m_sync_transfer+0x2d2>
    94f6:	b939      	cbnz	r1, 9508 <_i2c_m_sync_transfer+0x258>
    94f8:	6863      	ldr	r3, [r4, #4]
    94fa:	f443 2380 	orr.w	r3, r3, #262144	; 0x40000
    94fe:	6063      	str	r3, [r4, #4]
    9500:	69e3      	ldr	r3, [r4, #28]
    9502:	075b      	lsls	r3, r3, #29
    9504:	d4fc      	bmi.n	9500 <_i2c_m_sync_transfer+0x250>
    9506:	b95a      	cbnz	r2, 9520 <_i2c_m_sync_transfer+0x270>
    9508:	f8ba 3002 	ldrh.w	r3, [sl, #2]
    950c:	041a      	lsls	r2, r3, #16
    950e:	d47d      	bmi.n	960c <_i2c_m_sync_transfer+0x35c>
    9510:	f8ba 3002 	ldrh.w	r3, [sl, #2]
    9514:	f423 7380 	bic.w	r3, r3, #256	; 0x100
    9518:	041b      	lsls	r3, r3, #16
    951a:	0c1b      	lsrs	r3, r3, #16
    951c:	f8aa 3002 	strh.w	r3, [sl, #2]
    9520:	f8da 2008 	ldr.w	r2, [sl, #8]
    9524:	1c53      	adds	r3, r2, #1
    9526:	f8ca 3008 	str.w	r3, [sl, #8]
    952a:	69e3      	ldr	r3, [r4, #28]
    952c:	f013 0304 	ands.w	r3, r3, #4
    9530:	d1fb      	bne.n	952a <_i2c_m_sync_transfer+0x27a>
    9532:	6aa1      	ldr	r1, [r4, #40]	; 0x28
    9534:	7011      	strb	r1, [r2, #0]
    9536:	f884 9018 	strb.w	r9, [r4, #24]
    953a:	e793      	b.n	9464 <_i2c_m_sync_transfer+0x1b4>
    953c:	0751      	lsls	r1, r2, #29
    953e:	f100 80b9 	bmi.w	96b4 <_i2c_m_sync_transfer+0x404>
    9542:	f8ba 3002 	ldrh.w	r3, [sl, #2]
    9546:	0558      	lsls	r0, r3, #21
    9548:	d520      	bpl.n	958c <_i2c_m_sync_transfer+0x2dc>
    954a:	f8ba 3000 	ldrh.w	r3, [sl]
    954e:	09db      	lsrs	r3, r3, #7
    9550:	f003 0206 	and.w	r2, r3, #6
    9554:	69e3      	ldr	r3, [r4, #28]
    9556:	0759      	lsls	r1, r3, #29
    9558:	d4fc      	bmi.n	9554 <_i2c_m_sync_transfer+0x2a4>
    955a:	6a63      	ldr	r3, [r4, #36]	; 0x24
    955c:	f403 4380 	and.w	r3, r3, #16384	; 0x4000
    9560:	f043 03f1 	orr.w	r3, r3, #241	; 0xf1
    9564:	4313      	orrs	r3, r2
    9566:	6263      	str	r3, [r4, #36]	; 0x24
    9568:	69e3      	ldr	r3, [r4, #28]
    956a:	f013 0304 	ands.w	r3, r3, #4
    956e:	d1fb      	bne.n	9568 <_i2c_m_sync_transfer+0x2b8>
    9570:	f8ba 2002 	ldrh.w	r2, [sl, #2]
    9574:	f422 6280 	bic.w	r2, r2, #1024	; 0x400
    9578:	0412      	lsls	r2, r2, #16
    957a:	0c12      	lsrs	r2, r2, #16
    957c:	f8aa 2002 	strh.w	r2, [sl, #2]
    9580:	e770      	b.n	9464 <_i2c_m_sync_transfer+0x1b4>
    9582:	2a01      	cmp	r2, #1
    9584:	d1cc      	bne.n	9520 <_i2c_m_sync_transfer+0x270>
    9586:	2900      	cmp	r1, #0
    9588:	d0ca      	beq.n	9520 <_i2c_m_sync_transfer+0x270>
    958a:	e7b5      	b.n	94f8 <_i2c_m_sync_transfer+0x248>
    958c:	f8da 2004 	ldr.w	r2, [sl, #4]
    9590:	b96a      	cbnz	r2, 95ae <_i2c_m_sync_transfer+0x2fe>
    9592:	f8ba 3002 	ldrh.w	r3, [sl, #2]
    9596:	041a      	lsls	r2, r3, #16
    9598:	d476      	bmi.n	9688 <_i2c_m_sync_transfer+0x3d8>
    959a:	f8ba 3002 	ldrh.w	r3, [sl, #2]
    959e:	f423 7380 	bic.w	r3, r3, #256	; 0x100
    95a2:	041b      	lsls	r3, r3, #16
    95a4:	0c1b      	lsrs	r3, r3, #16
    95a6:	f8aa 3002 	strh.w	r3, [sl, #2]
    95aa:	2300      	movs	r3, #0
    95ac:	e75a      	b.n	9464 <_i2c_m_sync_transfer+0x1b4>
    95ae:	f8da 1008 	ldr.w	r1, [sl, #8]
    95b2:	780b      	ldrb	r3, [r1, #0]
    95b4:	62a3      	str	r3, [r4, #40]	; 0x28
    95b6:	69e3      	ldr	r3, [r4, #28]
    95b8:	f013 0304 	ands.w	r3, r3, #4
    95bc:	d1fb      	bne.n	95b6 <_i2c_m_sync_transfer+0x306>
    95be:	3101      	adds	r1, #1
    95c0:	3a01      	subs	r2, #1
    95c2:	f8ca 1008 	str.w	r1, [sl, #8]
    95c6:	f8ca 2004 	str.w	r2, [sl, #4]
    95ca:	e74b      	b.n	9464 <_i2c_m_sync_transfer+0x1b4>
    95cc:	887b      	ldrh	r3, [r7, #2]
    95ce:	041d      	lsls	r5, r3, #16
    95d0:	f57f aee0 	bpl.w	9394 <_i2c_m_sync_transfer+0xe4>
    95d4:	6863      	ldr	r3, [r4, #4]
    95d6:	f443 3340 	orr.w	r3, r3, #196608	; 0x30000
    95da:	6063      	str	r3, [r4, #4]
    95dc:	69e3      	ldr	r3, [r4, #28]
    95de:	0759      	lsls	r1, r3, #29
    95e0:	d4fc      	bmi.n	95dc <_i2c_m_sync_transfer+0x32c>
    95e2:	e6d7      	b.n	9394 <_i2c_m_sync_transfer+0xe4>
    95e4:	0110      	lsls	r0, r2, #4
    95e6:	f57f ae83 	bpl.w	92f0 <_i2c_m_sync_transfer+0x40>
    95ea:	f443 2380 	orr.w	r3, r3, #262144	; 0x40000
    95ee:	6063      	str	r3, [r4, #4]
    95f0:	69e3      	ldr	r3, [r4, #28]
    95f2:	0759      	lsls	r1, r3, #29
    95f4:	d4fc      	bmi.n	95f0 <_i2c_m_sync_transfer+0x340>
    95f6:	f8ba 3000 	ldrh.w	r3, [sl]
    95fa:	055a      	lsls	r2, r3, #21
    95fc:	f53f ae82 	bmi.w	9304 <_i2c_m_sync_transfer+0x54>
    9600:	e6d3      	b.n	93aa <_i2c_m_sync_transfer+0xfa>
    9602:	bf00      	nop
    9604:	00009111 	.word	0x00009111
    9608:	2001ff00 	.word	0x2001ff00
    960c:	6863      	ldr	r3, [r4, #4]
    960e:	f423 7380 	bic.w	r3, r3, #256	; 0x100
    9612:	6063      	str	r3, [r4, #4]
    9614:	69e3      	ldr	r3, [r4, #28]
    9616:	0758      	lsls	r0, r3, #29
    9618:	d4fc      	bmi.n	9614 <_i2c_m_sync_transfer+0x364>
    961a:	6863      	ldr	r3, [r4, #4]
    961c:	f443 3340 	orr.w	r3, r3, #196608	; 0x30000
    9620:	6063      	str	r3, [r4, #4]
    9622:	69e3      	ldr	r3, [r4, #28]
    9624:	0759      	lsls	r1, r3, #29
    9626:	d4fc      	bmi.n	9622 <_i2c_m_sync_transfer+0x372>
    9628:	e772      	b.n	9510 <_i2c_m_sync_transfer+0x260>
    962a:	2a01      	cmp	r2, #1
    962c:	d05c      	beq.n	96e8 <_i2c_m_sync_transfer+0x438>
    962e:	f8da 2008 	ldr.w	r2, [sl, #8]
    9632:	1c53      	adds	r3, r2, #1
    9634:	f8ca 3008 	str.w	r3, [sl, #8]
    9638:	69e3      	ldr	r3, [r4, #28]
    963a:	075b      	lsls	r3, r3, #29
    963c:	d4fc      	bmi.n	9638 <_i2c_m_sync_transfer+0x388>
    963e:	6aa3      	ldr	r3, [r4, #40]	; 0x28
    9640:	7013      	strb	r3, [r2, #0]
    9642:	2302      	movs	r3, #2
    9644:	7623      	strb	r3, [r4, #24]
    9646:	e708      	b.n	945a <_i2c_m_sync_transfer+0x1aa>
    9648:	f8ba 3000 	ldrh.w	r3, [sl]
    964c:	09db      	lsrs	r3, r3, #7
    964e:	f003 0206 	and.w	r2, r3, #6
    9652:	69e3      	ldr	r3, [r4, #28]
    9654:	0758      	lsls	r0, r3, #29
    9656:	d4fc      	bmi.n	9652 <_i2c_m_sync_transfer+0x3a2>
    9658:	6a63      	ldr	r3, [r4, #36]	; 0x24
    965a:	f403 4380 	and.w	r3, r3, #16384	; 0x4000
    965e:	f043 03f1 	orr.w	r3, r3, #241	; 0xf1
    9662:	4313      	orrs	r3, r2
    9664:	6263      	str	r3, [r4, #36]	; 0x24
    9666:	69e3      	ldr	r3, [r4, #28]
    9668:	0759      	lsls	r1, r3, #29
    966a:	d4fc      	bmi.n	9666 <_i2c_m_sync_transfer+0x3b6>
    966c:	f8ba 3002 	ldrh.w	r3, [sl, #2]
    9670:	f423 6380 	bic.w	r3, r3, #1024	; 0x400
    9674:	041b      	lsls	r3, r3, #16
    9676:	0c1b      	lsrs	r3, r3, #16
    9678:	f8aa 3002 	strh.w	r3, [sl, #2]
    967c:	e6ed      	b.n	945a <_i2c_m_sync_transfer+0x1aa>
    967e:	f884 9018 	strb.w	r9, [r4, #24]
    9682:	f06f 0301 	mvn.w	r3, #1
    9686:	e6ed      	b.n	9464 <_i2c_m_sync_transfer+0x1b4>
    9688:	6863      	ldr	r3, [r4, #4]
    968a:	f443 3340 	orr.w	r3, r3, #196608	; 0x30000
    968e:	6063      	str	r3, [r4, #4]
    9690:	69e3      	ldr	r3, [r4, #28]
    9692:	075b      	lsls	r3, r3, #29
    9694:	d4fc      	bmi.n	9690 <_i2c_m_sync_transfer+0x3e0>
    9696:	e780      	b.n	959a <_i2c_m_sync_transfer+0x2ea>
    9698:	f8da 1008 	ldr.w	r1, [sl, #8]
    969c:	780b      	ldrb	r3, [r1, #0]
    969e:	62a3      	str	r3, [r4, #40]	; 0x28
    96a0:	69e3      	ldr	r3, [r4, #28]
    96a2:	0758      	lsls	r0, r3, #29
    96a4:	d4fc      	bmi.n	96a0 <_i2c_m_sync_transfer+0x3f0>
    96a6:	3101      	adds	r1, #1
    96a8:	3a01      	subs	r2, #1
    96aa:	f8ca 1008 	str.w	r1, [sl, #8]
    96ae:	f8ca 2004 	str.w	r2, [sl, #4]
    96b2:	e6d2      	b.n	945a <_i2c_m_sync_transfer+0x1aa>
    96b4:	f8da 3004 	ldr.w	r3, [sl, #4]
    96b8:	2b00      	cmp	r3, #0
    96ba:	dd06      	ble.n	96ca <_i2c_m_sync_transfer+0x41a>
    96bc:	f8ba 3002 	ldrh.w	r3, [sl, #2]
    96c0:	b29b      	uxth	r3, r3
    96c2:	f443 5380 	orr.w	r3, r3, #4096	; 0x1000
    96c6:	f8aa 3002 	strh.w	r3, [sl, #2]
    96ca:	f8ba 3002 	ldrh.w	r3, [sl, #2]
    96ce:	041a      	lsls	r2, r3, #16
    96d0:	d40d      	bmi.n	96ee <_i2c_m_sync_transfer+0x43e>
    96d2:	f8ba 3002 	ldrh.w	r3, [sl, #2]
    96d6:	f423 7380 	bic.w	r3, r3, #256	; 0x100
    96da:	041b      	lsls	r3, r3, #16
    96dc:	0c1b      	lsrs	r3, r3, #16
    96de:	f8aa 3002 	strh.w	r3, [sl, #2]
    96e2:	f06f 0301 	mvn.w	r3, #1
    96e6:	e6bd      	b.n	9464 <_i2c_m_sync_transfer+0x1b4>
    96e8:	2900      	cmp	r1, #0
    96ea:	d0a0      	beq.n	962e <_i2c_m_sync_transfer+0x37e>
    96ec:	e683      	b.n	93f6 <_i2c_m_sync_transfer+0x146>
    96ee:	6863      	ldr	r3, [r4, #4]
    96f0:	f443 3340 	orr.w	r3, r3, #196608	; 0x30000
    96f4:	6063      	str	r3, [r4, #4]
    96f6:	69e3      	ldr	r3, [r4, #28]
    96f8:	075b      	lsls	r3, r3, #29
    96fa:	d4fc      	bmi.n	96f6 <_i2c_m_sync_transfer+0x446>
    96fc:	e7e9      	b.n	96d2 <_i2c_m_sync_transfer+0x422>
    96fe:	6863      	ldr	r3, [r4, #4]
    9700:	f443 3340 	orr.w	r3, r3, #196608	; 0x30000
    9704:	6063      	str	r3, [r4, #4]
    9706:	69e3      	ldr	r3, [r4, #28]
    9708:	075b      	lsls	r3, r3, #29
    970a:	d4fc      	bmi.n	9706 <_i2c_m_sync_transfer+0x456>
    970c:	e69d      	b.n	944a <_i2c_m_sync_transfer+0x19a>
    970e:	f06f 0005 	mvn.w	r0, #5
    9712:	e647      	b.n	93a4 <_i2c_m_sync_transfer+0xf4>
    9714:	6863      	ldr	r3, [r4, #4]
    9716:	f423 7380 	bic.w	r3, r3, #256	; 0x100
    971a:	6063      	str	r3, [r4, #4]
    971c:	69e3      	ldr	r3, [r4, #28]
    971e:	0759      	lsls	r1, r3, #29
    9720:	d4fc      	bmi.n	971c <_i2c_m_sync_transfer+0x46c>
    9722:	6863      	ldr	r3, [r4, #4]
    9724:	f443 3340 	orr.w	r3, r3, #196608	; 0x30000
    9728:	6063      	str	r3, [r4, #4]
    972a:	69e3      	ldr	r3, [r4, #28]
    972c:	075a      	lsls	r2, r3, #29
    972e:	d4fc      	bmi.n	972a <_i2c_m_sync_transfer+0x47a>
    9730:	e670      	b.n	9414 <_i2c_m_sync_transfer+0x164>
    9732:	2302      	movs	r3, #2
    9734:	7623      	strb	r3, [r4, #24]
    9736:	f06f 0001 	mvn.w	r0, #1
    973a:	e62b      	b.n	9394 <_i2c_m_sync_transfer+0xe4>
    973c:	f8da 3004 	ldr.w	r3, [sl, #4]
    9740:	2b00      	cmp	r3, #0
    9742:	dd06      	ble.n	9752 <_i2c_m_sync_transfer+0x4a2>
    9744:	f8ba 3002 	ldrh.w	r3, [sl, #2]
    9748:	b29b      	uxth	r3, r3
    974a:	f443 5380 	orr.w	r3, r3, #4096	; 0x1000
    974e:	f8aa 3002 	strh.w	r3, [sl, #2]
    9752:	f8ba 3002 	ldrh.w	r3, [sl, #2]
    9756:	0419      	lsls	r1, r3, #16
    9758:	d40a      	bmi.n	9770 <_i2c_m_sync_transfer+0x4c0>
    975a:	f8ba 3002 	ldrh.w	r3, [sl, #2]
    975e:	f423 7380 	bic.w	r3, r3, #256	; 0x100
    9762:	041b      	lsls	r3, r3, #16
    9764:	0c1b      	lsrs	r3, r3, #16
    9766:	f8aa 3002 	strh.w	r3, [sl, #2]
    976a:	f06f 0001 	mvn.w	r0, #1
    976e:	e611      	b.n	9394 <_i2c_m_sync_transfer+0xe4>
    9770:	6863      	ldr	r3, [r4, #4]
    9772:	f443 3340 	orr.w	r3, r3, #196608	; 0x30000
    9776:	6063      	str	r3, [r4, #4]
    9778:	69e3      	ldr	r3, [r4, #28]
    977a:	075a      	lsls	r2, r3, #29
    977c:	d4fc      	bmi.n	9778 <_i2c_m_sync_transfer+0x4c8>
    977e:	e7ec      	b.n	975a <_i2c_m_sync_transfer+0x4aa>

00009780 <_rand_sync_init>:
    9780:	780b      	ldrb	r3, [r1, #0]
    9782:	f013 0302 	ands.w	r3, r3, #2
    9786:	d10f      	bne.n	97a8 <_rand_sync_init+0x28>
    9788:	780a      	ldrb	r2, [r1, #0]
    978a:	f002 02bf 	and.w	r2, r2, #191	; 0xbf
    978e:	700a      	strb	r2, [r1, #0]
    9790:	790a      	ldrb	r2, [r1, #4]
    9792:	b410      	push	{r4}
    9794:	f002 02fe 	and.w	r2, r2, #254	; 0xfe
    9798:	2420      	movs	r4, #32
    979a:	710a      	strb	r2, [r1, #4]
    979c:	7104      	strb	r4, [r0, #4]
    979e:	6001      	str	r1, [r0, #0]
    97a0:	f85d 4b04 	ldr.w	r4, [sp], #4
    97a4:	4618      	mov	r0, r3
    97a6:	4770      	bx	lr
    97a8:	f06f 0310 	mvn.w	r3, #16
    97ac:	4618      	mov	r0, r3
    97ae:	4770      	bx	lr

000097b0 <_rand_sync_enable>:
    97b0:	6802      	ldr	r2, [r0, #0]
    97b2:	7813      	ldrb	r3, [r2, #0]
    97b4:	f043 0302 	orr.w	r3, r3, #2
    97b8:	7013      	strb	r3, [r2, #0]
    97ba:	2000      	movs	r0, #0
    97bc:	4770      	bx	lr
    97be:	bf00      	nop

000097c0 <_rand_sync_read_one>:
    97c0:	6802      	ldr	r2, [r0, #0]
    97c2:	7a93      	ldrb	r3, [r2, #10]
    97c4:	07db      	lsls	r3, r3, #31
    97c6:	d5fc      	bpl.n	97c2 <_rand_sync_read_one+0x2>
    97c8:	6a10      	ldr	r0, [r2, #32]
    97ca:	4770      	bx	lr

000097cc <_wdt_init>:
    97cc:	6803      	ldr	r3, [r0, #0]
    97ce:	689a      	ldr	r2, [r3, #8]
    97d0:	f012 0f0e 	tst.w	r2, #14
    97d4:	d1fb      	bne.n	97ce <_wdt_init+0x2>
    97d6:	781a      	ldrb	r2, [r3, #0]
    97d8:	09d2      	lsrs	r2, r2, #7
    97da:	d115      	bne.n	9808 <_wdt_init+0x3c>
    97dc:	689a      	ldr	r2, [r3, #8]
    97de:	f012 0f0e 	tst.w	r2, #14
    97e2:	d1fb      	bne.n	97dc <_wdt_init+0x10>
    97e4:	781a      	ldrb	r2, [r3, #0]
    97e6:	0792      	lsls	r2, r2, #30
    97e8:	d40e      	bmi.n	9808 <_wdt_init+0x3c>
    97ea:	781a      	ldrb	r2, [r3, #0]
    97ec:	f002 02fb 	and.w	r2, r2, #251	; 0xfb
    97f0:	701a      	strb	r2, [r3, #0]
    97f2:	6898      	ldr	r0, [r3, #8]
    97f4:	f010 000e 	ands.w	r0, r0, #14
    97f8:	d1fb      	bne.n	97f2 <_wdt_init+0x26>
    97fa:	785a      	ldrb	r2, [r3, #1]
    97fc:	f002 02f0 	and.w	r2, r2, #240	; 0xf0
    9800:	f042 0207 	orr.w	r2, r2, #7
    9804:	705a      	strb	r2, [r3, #1]
    9806:	4770      	bx	lr
    9808:	f06f 0010 	mvn.w	r0, #16
    980c:	4770      	bx	lr
    980e:	bf00      	nop

00009810 <_wdt_set_timeout_period>:
    9810:	6803      	ldr	r3, [r0, #0]
    9812:	6898      	ldr	r0, [r3, #8]
    9814:	f010 0f0e 	tst.w	r0, #14
    9818:	d1fb      	bne.n	9812 <_wdt_set_timeout_period+0x2>
    981a:	7818      	ldrb	r0, [r3, #0]
    981c:	09c0      	lsrs	r0, r0, #7
    981e:	d14c      	bne.n	98ba <_wdt_set_timeout_period+0xaa>
    9820:	6898      	ldr	r0, [r3, #8]
    9822:	f010 0f0e 	tst.w	r0, #14
    9826:	d1fb      	bne.n	9820 <_wdt_set_timeout_period+0x10>
    9828:	7818      	ldrb	r0, [r3, #0]
    982a:	f3c0 0040 	ubfx	r0, r0, #1, #1
    982e:	2800      	cmp	r0, #0
    9830:	d143      	bne.n	98ba <_wdt_set_timeout_period+0xaa>
    9832:	b4f0      	push	{r4, r5, r6, r7}
    9834:	fba2 4501 	umull	r4, r5, r2, r1
    9838:	462e      	mov	r6, r5
    983a:	4607      	mov	r7, r0
    983c:	ea56 0207 	orrs.w	r2, r6, r7
    9840:	d110      	bne.n	9864 <_wdt_set_timeout_period+0x54>
    9842:	f5b4 3f7a 	cmp.w	r4, #256000	; 0x3e800
    9846:	d041      	beq.n	98cc <_wdt_set_timeout_period+0xbc>
    9848:	d910      	bls.n	986c <_wdt_set_timeout_period+0x5c>
    984a:	f5b4 1ffa 	cmp.w	r4, #2048000	; 0x1f4000
    984e:	d03b      	beq.n	98c8 <_wdt_set_timeout_period+0xb8>
    9850:	d92b      	bls.n	98aa <_wdt_set_timeout_period+0x9a>
    9852:	f5b4 0ffa 	cmp.w	r4, #8192000	; 0x7d0000
    9856:	d024      	beq.n	98a2 <_wdt_set_timeout_period+0x92>
    9858:	f5b4 0f7a 	cmp.w	r4, #16384000	; 0xfa0000
    985c:	d038      	beq.n	98d0 <_wdt_set_timeout_period+0xc0>
    985e:	f5b4 1f7a 	cmp.w	r4, #4096000	; 0x3e8000
    9862:	d020      	beq.n	98a6 <_wdt_set_timeout_period+0x96>
    9864:	f06f 000c 	mvn.w	r0, #12
    9868:	bcf0      	pop	{r4, r5, r6, r7}
    986a:	4770      	bx	lr
    986c:	f5b4 4ffa 	cmp.w	r4, #32000	; 0x7d00
    9870:	d026      	beq.n	98c0 <_wdt_set_timeout_period+0xb0>
    9872:	d80e      	bhi.n	9892 <_wdt_set_timeout_period+0x82>
    9874:	f5b4 5ffa 	cmp.w	r4, #8000	; 0x1f40
    9878:	d003      	beq.n	9882 <_wdt_set_timeout_period+0x72>
    987a:	f5b4 5f7a 	cmp.w	r4, #16000	; 0x3e80
    987e:	d1f1      	bne.n	9864 <_wdt_set_timeout_period+0x54>
    9880:	2001      	movs	r0, #1
    9882:	785a      	ldrb	r2, [r3, #1]
    9884:	f002 02f0 	and.w	r2, r2, #240	; 0xf0
    9888:	4310      	orrs	r0, r2
    988a:	7058      	strb	r0, [r3, #1]
    988c:	bcf0      	pop	{r4, r5, r6, r7}
    988e:	2000      	movs	r0, #0
    9890:	4770      	bx	lr
    9892:	f5b4 4f7a 	cmp.w	r4, #64000	; 0xfa00
    9896:	d015      	beq.n	98c4 <_wdt_set_timeout_period+0xb4>
    9898:	f5b4 3ffa 	cmp.w	r4, #128000	; 0x1f400
    989c:	d1e2      	bne.n	9864 <_wdt_set_timeout_period+0x54>
    989e:	2004      	movs	r0, #4
    98a0:	e7ef      	b.n	9882 <_wdt_set_timeout_period+0x72>
    98a2:	200a      	movs	r0, #10
    98a4:	e7ed      	b.n	9882 <_wdt_set_timeout_period+0x72>
    98a6:	2009      	movs	r0, #9
    98a8:	e7eb      	b.n	9882 <_wdt_set_timeout_period+0x72>
    98aa:	f5b4 2ffa 	cmp.w	r4, #512000	; 0x7d000
    98ae:	d011      	beq.n	98d4 <_wdt_set_timeout_period+0xc4>
    98b0:	f5b4 2f7a 	cmp.w	r4, #1024000	; 0xfa000
    98b4:	d1d6      	bne.n	9864 <_wdt_set_timeout_period+0x54>
    98b6:	2007      	movs	r0, #7
    98b8:	e7e3      	b.n	9882 <_wdt_set_timeout_period+0x72>
    98ba:	f06f 0010 	mvn.w	r0, #16
    98be:	4770      	bx	lr
    98c0:	2002      	movs	r0, #2
    98c2:	e7de      	b.n	9882 <_wdt_set_timeout_period+0x72>
    98c4:	2003      	movs	r0, #3
    98c6:	e7dc      	b.n	9882 <_wdt_set_timeout_period+0x72>
    98c8:	2008      	movs	r0, #8
    98ca:	e7da      	b.n	9882 <_wdt_set_timeout_period+0x72>
    98cc:	2005      	movs	r0, #5
    98ce:	e7d8      	b.n	9882 <_wdt_set_timeout_period+0x72>
    98d0:	200b      	movs	r0, #11
    98d2:	e7d6      	b.n	9882 <_wdt_set_timeout_period+0x72>
    98d4:	2006      	movs	r0, #6
    98d6:	e7d4      	b.n	9882 <_wdt_set_timeout_period+0x72>

000098d8 <_wdt_enable>:
    98d8:	6803      	ldr	r3, [r0, #0]
    98da:	781a      	ldrb	r2, [r3, #0]
    98dc:	f042 0202 	orr.w	r2, r2, #2
    98e0:	701a      	strb	r2, [r3, #0]
    98e2:	6898      	ldr	r0, [r3, #8]
    98e4:	f010 000e 	ands.w	r0, r0, #14
    98e8:	d1fb      	bne.n	98e2 <_wdt_enable+0xa>
    98ea:	4770      	bx	lr

000098ec <IziPlus_HandleRxIdle>:
    98ec:	4770      	bx	lr
    98ee:	bf00      	nop

000098f0 <IziPlus_Timer100ms>:
    98f0:	b510      	push	{r4, lr}
    98f2:	4c15      	ldr	r4, [pc, #84]	; (9948 <IziPlus_Timer100ms+0x58>)
    98f4:	7823      	ldrb	r3, [r4, #0]
    98f6:	3301      	adds	r3, #1
    98f8:	b2db      	uxtb	r3, r3
    98fa:	2b09      	cmp	r3, #9
    98fc:	7023      	strb	r3, [r4, #0]
    98fe:	d81e      	bhi.n	993e <IziPlus_Timer100ms+0x4e>
    9900:	7863      	ldrb	r3, [r4, #1]
    9902:	b10b      	cbz	r3, 9908 <IziPlus_Timer100ms+0x18>
    9904:	3b01      	subs	r3, #1
    9906:	7063      	strb	r3, [r4, #1]
    9908:	4b10      	ldr	r3, [pc, #64]	; (994c <IziPlus_Timer100ms+0x5c>)
    990a:	881a      	ldrh	r2, [r3, #0]
    990c:	b10a      	cbz	r2, 9912 <IziPlus_Timer100ms+0x22>
    990e:	3a01      	subs	r2, #1
    9910:	801a      	strh	r2, [r3, #0]
    9912:	885a      	ldrh	r2, [r3, #2]
    9914:	b10a      	cbz	r2, 991a <IziPlus_Timer100ms+0x2a>
    9916:	3a01      	subs	r2, #1
    9918:	805a      	strh	r2, [r3, #2]
    991a:	8863      	ldrh	r3, [r4, #2]
    991c:	b10b      	cbz	r3, 9922 <IziPlus_Timer100ms+0x32>
    991e:	3b01      	subs	r3, #1
    9920:	8063      	strh	r3, [r4, #2]
    9922:	88a3      	ldrh	r3, [r4, #4]
    9924:	b10b      	cbz	r3, 992a <IziPlus_Timer100ms+0x3a>
    9926:	3b01      	subs	r3, #1
    9928:	80a3      	strh	r3, [r4, #4]
    992a:	4b09      	ldr	r3, [pc, #36]	; (9950 <IziPlus_Timer100ms+0x60>)
    992c:	4798      	blx	r3
    992e:	4b09      	ldr	r3, [pc, #36]	; (9954 <IziPlus_Timer100ms+0x64>)
    9930:	4798      	blx	r3
    9932:	4b09      	ldr	r3, [pc, #36]	; (9958 <IziPlus_Timer100ms+0x68>)
    9934:	4798      	blx	r3
    9936:	68a3      	ldr	r3, [r4, #8]
    9938:	3301      	adds	r3, #1
    993a:	60a3      	str	r3, [r4, #8]
    993c:	bd10      	pop	{r4, pc}
    993e:	4b07      	ldr	r3, [pc, #28]	; (995c <IziPlus_Timer100ms+0x6c>)
    9940:	4798      	blx	r3
    9942:	2300      	movs	r3, #0
    9944:	7023      	strb	r3, [r4, #0]
    9946:	e7db      	b.n	9900 <IziPlus_Timer100ms+0x10>
    9948:	20005670 	.word	0x20005670
    994c:	20002a06 	.word	0x20002a06
    9950:	0000b509 	.word	0x0000b509
    9954:	00004cc1 	.word	0x00004cc1
    9958:	000057ed 	.word	0x000057ed
    995c:	000052b5 	.word	0x000052b5

00009960 <IziPlus_HandleRx>:
    9960:	e92d 4ff0 	stmdb	sp!, {r4, r5, r6, r7, r8, r9, sl, fp, lr}
    9964:	4ea4      	ldr	r6, [pc, #656]	; (9bf8 <IziPlus_HandleRx+0x298>)
    9966:	2344      	movs	r3, #68	; 0x44
    9968:	b099      	sub	sp, #100	; 0x64
    996a:	4604      	mov	r4, r0
    996c:	7473      	strb	r3, [r6, #17]
    996e:	bb59      	cbnz	r1, 99c8 <IziPlus_HandleRx+0x68>
    9970:	4fa2      	ldr	r7, [pc, #648]	; (9bfc <IziPlus_HandleRx+0x29c>)
    9972:	7b65      	ldrb	r5, [r4, #13]
    9974:	062a      	lsls	r2, r5, #24
    9976:	f100 8138 	bmi.w	9bea <IziPlus_HandleRx+0x28a>
    997a:	2345      	movs	r3, #69	; 0x45
    997c:	7473      	strb	r3, [r6, #17]
    997e:	7ba3      	ldrb	r3, [r4, #14]
    9980:	2b00      	cmp	r3, #0
    9982:	d14b      	bne.n	9a1c <IziPlus_HandleRx+0xbc>
    9984:	072b      	lsls	r3, r5, #28
    9986:	d104      	bne.n	9992 <IziPlus_HandleRx+0x32>
    9988:	f005 0570 	and.w	r5, r5, #112	; 0x70
    998c:	2d20      	cmp	r5, #32
    998e:	f000 80a0 	beq.w	9ad2 <IziPlus_HandleRx+0x172>
    9992:	7c7d      	ldrb	r5, [r7, #17]
    9994:	2346      	movs	r3, #70	; 0x46
    9996:	7473      	strb	r3, [r6, #17]
    9998:	2d02      	cmp	r5, #2
    999a:	f000 80d2 	beq.w	9b42 <IziPlus_HandleRx+0x1e2>
    999e:	7b63      	ldrb	r3, [r4, #13]
    99a0:	f003 030f 	and.w	r3, r3, #15
    99a4:	2b02      	cmp	r3, #2
    99a6:	f000 80e0 	beq.w	9b6a <IziPlus_HandleRx+0x20a>
    99aa:	7be3      	ldrb	r3, [r4, #15]
    99ac:	2b00      	cmp	r3, #0
    99ae:	f000 8103 	beq.w	9bb8 <IziPlus_HandleRx+0x258>
    99b2:	7b3b      	ldrb	r3, [r7, #12]
    99b4:	2b01      	cmp	r3, #1
    99b6:	d05b      	beq.n	9a70 <IziPlus_HandleRx+0x110>
    99b8:	4b91      	ldr	r3, [pc, #580]	; (9c00 <IziPlus_HandleRx+0x2a0>)
    99ba:	2214      	movs	r2, #20
    99bc:	801a      	strh	r2, [r3, #0]
    99be:	235a      	movs	r3, #90	; 0x5a
    99c0:	7473      	strb	r3, [r6, #17]
    99c2:	b019      	add	sp, #100	; 0x64
    99c4:	e8bd 8ff0 	ldmia.w	sp!, {r4, r5, r6, r7, r8, r9, sl, fp, pc}
    99c8:	4a8e      	ldr	r2, [pc, #568]	; (9c04 <IziPlus_HandleRx+0x2a4>)
    99ca:	6803      	ldr	r3, [r0, #0]
    99cc:	6812      	ldr	r2, [r2, #0]
    99ce:	6b12      	ldr	r2, [r2, #48]	; 0x30
    99d0:	4053      	eors	r3, r2
    99d2:	f033 437f 	bics.w	r3, r3, #4278190080	; 0xff000000
    99d6:	d1f4      	bne.n	99c2 <IziPlus_HandleRx+0x62>
    99d8:	6843      	ldr	r3, [r0, #4]
    99da:	2b00      	cmp	r3, #0
    99dc:	d14b      	bne.n	9a76 <IziPlus_HandleRx+0x116>
    99de:	4b8a      	ldr	r3, [pc, #552]	; (9c08 <IziPlus_HandleRx+0x2a8>)
    99e0:	7b01      	ldrb	r1, [r0, #12]
    99e2:	681b      	ldr	r3, [r3, #0]
    99e4:	b2d8      	uxtb	r0, r3
    99e6:	4281      	cmp	r1, r0
    99e8:	d003      	beq.n	99f2 <IziPlus_HandleRx+0x92>
    99ea:	3379      	adds	r3, #121	; 0x79
    99ec:	b2db      	uxtb	r3, r3
    99ee:	4299      	cmp	r1, r3
    99f0:	d1e7      	bne.n	99c2 <IziPlus_HandleRx+0x62>
    99f2:	7b63      	ldrb	r3, [r4, #13]
    99f4:	f003 030f 	and.w	r3, r3, #15
    99f8:	2b02      	cmp	r3, #2
    99fa:	d1e2      	bne.n	99c2 <IziPlus_HandleRx+0x62>
    99fc:	7be3      	ldrb	r3, [r4, #15]
    99fe:	2bff      	cmp	r3, #255	; 0xff
    9a00:	d1df      	bne.n	99c2 <IziPlus_HandleRx+0x62>
    9a02:	f240 1301 	movw	r3, #257	; 0x101
    9a06:	4d81      	ldr	r5, [pc, #516]	; (9c0c <IziPlus_HandleRx+0x2ac>)
    9a08:	4881      	ldr	r0, [pc, #516]	; (9c10 <IziPlus_HandleRx+0x2b0>)
    9a0a:	47a8      	blx	r5
    9a0c:	4b81      	ldr	r3, [pc, #516]	; (9c14 <IziPlus_HandleRx+0x2b4>)
    9a0e:	4a80      	ldr	r2, [pc, #512]	; (9c10 <IziPlus_HandleRx+0x2b0>)
    9a10:	8819      	ldrh	r1, [r3, #0]
    9a12:	4d81      	ldr	r5, [pc, #516]	; (9c18 <IziPlus_HandleRx+0x2b8>)
    9a14:	4603      	mov	r3, r0
    9a16:	6820      	ldr	r0, [r4, #0]
    9a18:	47a8      	blx	r5
    9a1a:	e7d2      	b.n	99c2 <IziPlus_HandleRx+0x62>
    9a1c:	2b01      	cmp	r3, #1
    9a1e:	d07f      	beq.n	9b20 <IziPlus_HandleRx+0x1c0>
    9a20:	2b20      	cmp	r3, #32
    9a22:	d033      	beq.n	9a8c <IziPlus_HandleRx+0x12c>
    9a24:	2b22      	cmp	r3, #34	; 0x22
    9a26:	f040 8111 	bne.w	9c4c <IziPlus_HandleRx+0x2ec>
    9a2a:	f015 020f 	ands.w	r2, r5, #15
    9a2e:	d1b0      	bne.n	9992 <IziPlus_HandleRx+0x32>
    9a30:	f005 0570 	and.w	r5, r5, #112	; 0x70
    9a34:	2d10      	cmp	r5, #16
    9a36:	f000 814e 	beq.w	9cd6 <IziPlus_HandleRx+0x376>
    9a3a:	2d00      	cmp	r5, #0
    9a3c:	d132      	bne.n	9aa4 <IziPlus_HandleRx+0x144>
    9a3e:	8962      	ldrh	r2, [r4, #10]
    9a40:	f3c2 020b 	ubfx	r2, r2, #0, #12
    9a44:	2a03      	cmp	r2, #3
    9a46:	d92d      	bls.n	9aa4 <IziPlus_HandleRx+0x144>
    9a48:	4b74      	ldr	r3, [pc, #464]	; (9c1c <IziPlus_HandleRx+0x2bc>)
    9a4a:	f894 800c 	ldrb.w	r8, [r4, #12]
    9a4e:	4d74      	ldr	r5, [pc, #464]	; (9c20 <IziPlus_HandleRx+0x2c0>)
    9a50:	4798      	blx	r3
    9a52:	4b74      	ldr	r3, [pc, #464]	; (9c24 <IziPlus_HandleRx+0x2c4>)
    9a54:	4602      	mov	r2, r0
    9a56:	781b      	ldrb	r3, [r3, #0]
    9a58:	486d      	ldr	r0, [pc, #436]	; (9c10 <IziPlus_HandleRx+0x2b0>)
    9a5a:	4641      	mov	r1, r8
    9a5c:	47a8      	blx	r5
    9a5e:	4b6d      	ldr	r3, [pc, #436]	; (9c14 <IziPlus_HandleRx+0x2b4>)
    9a60:	4d6d      	ldr	r5, [pc, #436]	; (9c18 <IziPlus_HandleRx+0x2b8>)
    9a62:	8819      	ldrh	r1, [r3, #0]
    9a64:	4a6a      	ldr	r2, [pc, #424]	; (9c10 <IziPlus_HandleRx+0x2b0>)
    9a66:	4603      	mov	r3, r0
    9a68:	6820      	ldr	r0, [r4, #0]
    9a6a:	47a8      	blx	r5
    9a6c:	7c7d      	ldrb	r5, [r7, #17]
    9a6e:	e791      	b.n	9994 <IziPlus_HandleRx+0x34>
    9a70:	2364      	movs	r3, #100	; 0x64
    9a72:	707b      	strb	r3, [r7, #1]
    9a74:	e7a3      	b.n	99be <IziPlus_HandleRx+0x5e>
    9a76:	4a64      	ldr	r2, [pc, #400]	; (9c08 <IziPlus_HandleRx+0x2a8>)
    9a78:	6812      	ldr	r2, [r2, #0]
    9a7a:	4293      	cmp	r3, r2
    9a7c:	d1a1      	bne.n	99c2 <IziPlus_HandleRx+0x62>
    9a7e:	7b83      	ldrb	r3, [r0, #14]
    9a80:	2b01      	cmp	r3, #1
    9a82:	d19e      	bne.n	99c2 <IziPlus_HandleRx+0x62>
    9a84:	4f5d      	ldr	r7, [pc, #372]	; (9bfc <IziPlus_HandleRx+0x29c>)
    9a86:	2305      	movs	r3, #5
    9a88:	807b      	strh	r3, [r7, #2]
    9a8a:	e772      	b.n	9972 <IziPlus_HandleRx+0x12>
    9a8c:	f015 080f 	ands.w	r8, r5, #15
    9a90:	f47f af7f 	bne.w	9992 <IziPlus_HandleRx+0x32>
    9a94:	f005 0570 	and.w	r5, r5, #112	; 0x70
    9a98:	2d10      	cmp	r5, #16
    9a9a:	f000 81c6 	beq.w	9e2a <IziPlus_HandleRx+0x4ca>
    9a9e:	2d00      	cmp	r5, #0
    9aa0:	f000 80fc 	beq.w	9c9c <IziPlus_HandleRx+0x33c>
    9aa4:	f8df 816c 	ldr.w	r8, [pc, #364]	; 9c14 <IziPlus_HandleRx+0x2b4>
    9aa8:	f06f 0504 	mvn.w	r5, #4
    9aac:	2246      	movs	r2, #70	; 0x46
    9aae:	7472      	strb	r2, [r6, #17]
    9ab0:	7b60      	ldrb	r0, [r4, #13]
    9ab2:	7b21      	ldrb	r1, [r4, #12]
    9ab4:	9500      	str	r5, [sp, #0]
    9ab6:	461a      	mov	r2, r3
    9ab8:	4d5b      	ldr	r5, [pc, #364]	; (9c28 <IziPlus_HandleRx+0x2c8>)
    9aba:	f3c0 1302 	ubfx	r3, r0, #4, #3
    9abe:	4854      	ldr	r0, [pc, #336]	; (9c10 <IziPlus_HandleRx+0x2b0>)
    9ac0:	47a8      	blx	r5
    9ac2:	f8b8 1000 	ldrh.w	r1, [r8]
    9ac6:	4a52      	ldr	r2, [pc, #328]	; (9c10 <IziPlus_HandleRx+0x2b0>)
    9ac8:	4603      	mov	r3, r0
    9aca:	6820      	ldr	r0, [r4, #0]
    9acc:	4c52      	ldr	r4, [pc, #328]	; (9c18 <IziPlus_HandleRx+0x2b8>)
    9ace:	47a0      	blx	r4
    9ad0:	e76f      	b.n	99b2 <IziPlus_HandleRx+0x52>
    9ad2:	8963      	ldrh	r3, [r4, #10]
    9ad4:	f3c3 030b 	ubfx	r3, r3, #0, #12
    9ad8:	2b04      	cmp	r3, #4
    9ada:	f67f af5a 	bls.w	9992 <IziPlus_HandleRx+0x32>
    9ade:	7b3d      	ldrb	r5, [r7, #12]
    9ae0:	2d01      	cmp	r5, #1
    9ae2:	f47f af56 	bne.w	9992 <IziPlus_HandleRx+0x32>
    9ae6:	4b46      	ldr	r3, [pc, #280]	; (9c00 <IziPlus_HandleRx+0x2a0>)
    9ae8:	7c22      	ldrb	r2, [r4, #16]
    9aea:	791b      	ldrb	r3, [r3, #4]
    9aec:	429a      	cmp	r2, r3
    9aee:	f43f af50 	beq.w	9992 <IziPlus_HandleRx+0x32>
    9af2:	4b4e      	ldr	r3, [pc, #312]	; (9c2c <IziPlus_HandleRx+0x2cc>)
    9af4:	484e      	ldr	r0, [pc, #312]	; (9c30 <IziPlus_HandleRx+0x2d0>)
    9af6:	4798      	blx	r3
    9af8:	4b4e      	ldr	r3, [pc, #312]	; (9c34 <IziPlus_HandleRx+0x2d4>)
    9afa:	4680      	mov	r8, r0
    9afc:	4798      	blx	r3
    9afe:	f000 007f 	and.w	r0, r0, #127	; 0x7f
    9b02:	fa50 f088 	uxtab	r0, r0, r8
    9b06:	4b4c      	ldr	r3, [pc, #304]	; (9c38 <IziPlus_HandleRx+0x2d8>)
    9b08:	4798      	blx	r3
    9b0a:	f04f 0200 	mov.w	r2, #0
    9b0e:	f365 0207 	bfi	r2, r5, #0, #8
    9b12:	f365 220f 	bfi	r2, r5, #8, #8
    9b16:	7b21      	ldrb	r1, [r4, #12]
    9b18:	4b48      	ldr	r3, [pc, #288]	; (9c3c <IziPlus_HandleRx+0x2dc>)
    9b1a:	483d      	ldr	r0, [pc, #244]	; (9c10 <IziPlus_HandleRx+0x2b0>)
    9b1c:	4798      	blx	r3
    9b1e:	e79e      	b.n	9a5e <IziPlus_HandleRx+0xfe>
    9b20:	0728      	lsls	r0, r5, #28
    9b22:	f47f af36 	bne.w	9992 <IziPlus_HandleRx+0x32>
    9b26:	f005 0570 	and.w	r5, r5, #112	; 0x70
    9b2a:	2d10      	cmp	r5, #16
    9b2c:	f000 8169 	beq.w	9e02 <IziPlus_HandleRx+0x4a2>
    9b30:	2d00      	cmp	r5, #0
    9b32:	d1b7      	bne.n	9aa4 <IziPlus_HandleRx+0x144>
    9b34:	8962      	ldrh	r2, [r4, #10]
    9b36:	f3c2 020b 	ubfx	r2, r2, #0, #12
    9b3a:	2a03      	cmp	r2, #3
    9b3c:	f63f af29 	bhi.w	9992 <IziPlus_HandleRx+0x32>
    9b40:	e7b0      	b.n	9aa4 <IziPlus_HandleRx+0x144>
    9b42:	7c3a      	ldrb	r2, [r7, #16]
    9b44:	2a80      	cmp	r2, #128	; 0x80
    9b46:	f000 812a 	beq.w	9d9e <IziPlus_HandleRx+0x43e>
    9b4a:	2a81      	cmp	r2, #129	; 0x81
    9b4c:	f000 8130 	beq.w	9db0 <IziPlus_HandleRx+0x450>
    9b50:	2a21      	cmp	r2, #33	; 0x21
    9b52:	f000 8161 	beq.w	9e18 <IziPlus_HandleRx+0x4b8>
    9b56:	2a22      	cmp	r2, #34	; 0x22
    9b58:	f000 80ff 	beq.w	9d5a <IziPlus_HandleRx+0x3fa>
    9b5c:	2a20      	cmp	r2, #32
    9b5e:	f000 8226 	beq.w	9fae <IziPlus_HandleRx+0x64e>
    9b62:	2300      	movs	r3, #0
    9b64:	747b      	strb	r3, [r7, #17]
    9b66:	743b      	strb	r3, [r7, #16]
    9b68:	e723      	b.n	99b2 <IziPlus_HandleRx+0x52>
    9b6a:	4d26      	ldr	r5, [pc, #152]	; (9c04 <IziPlus_HandleRx+0x2a4>)
    9b6c:	7be3      	ldrb	r3, [r4, #15]
    9b6e:	682a      	ldr	r2, [r5, #0]
    9b70:	f892 2037 	ldrb.w	r2, [r2, #55]	; 0x37
    9b74:	4293      	cmp	r3, r2
    9b76:	f000 812b 	beq.w	9dd0 <IziPlus_HandleRx+0x470>
    9b7a:	2bff      	cmp	r3, #255	; 0xff
    9b7c:	f47f af16 	bne.w	99ac <IziPlus_HandleRx+0x4c>
    9b80:	6823      	ldr	r3, [r4, #0]
    9b82:	3301      	adds	r3, #1
    9b84:	f43f af15 	beq.w	99b2 <IziPlus_HandleRx+0x52>
    9b88:	f897 8125 	ldrb.w	r8, [r7, #293]	; 0x125
    9b8c:	f1b8 0f00 	cmp.w	r8, #0
    9b90:	f040 8127 	bne.w	9de2 <IziPlus_HandleRx+0x482>
    9b94:	4b27      	ldr	r3, [pc, #156]	; (9c34 <IziPlus_HandleRx+0x2d4>)
    9b96:	4798      	blx	r3
    9b98:	f241 3388 	movw	r3, #5000	; 0x1388
    9b9c:	4298      	cmp	r0, r3
    9b9e:	f200 8261 	bhi.w	a064 <IziPlus_HandleRx+0x704>
    9ba2:	682b      	ldr	r3, [r5, #0]
    9ba4:	7be2      	ldrb	r2, [r4, #15]
    9ba6:	f893 3037 	ldrb.w	r3, [r3, #55]	; 0x37
    9baa:	429a      	cmp	r2, r3
    9bac:	f47f af01 	bne.w	99b2 <IziPlus_HandleRx+0x52>
    9bb0:	4b13      	ldr	r3, [pc, #76]	; (9c00 <IziPlus_HandleRx+0x2a0>)
    9bb2:	225a      	movs	r2, #90	; 0x5a
    9bb4:	805a      	strh	r2, [r3, #2]
    9bb6:	e6fc      	b.n	99b2 <IziPlus_HandleRx+0x52>
    9bb8:	4b21      	ldr	r3, [pc, #132]	; (9c40 <IziPlus_HandleRx+0x2e0>)
    9bba:	4798      	blx	r3
    9bbc:	2801      	cmp	r0, #1
    9bbe:	d910      	bls.n	9be2 <IziPlus_HandleRx+0x282>
    9bc0:	68bb      	ldr	r3, [r7, #8]
    9bc2:	2b63      	cmp	r3, #99	; 0x63
    9bc4:	d966      	bls.n	9c94 <IziPlus_HandleRx+0x334>
    9bc6:	f5b3 7f16 	cmp.w	r3, #600	; 0x258
    9bca:	f8b7 3126 	ldrh.w	r3, [r7, #294]	; 0x126
    9bce:	f103 0301 	add.w	r3, r3, #1
    9bd2:	b29b      	uxth	r3, r3
    9bd4:	f8a7 3126 	strh.w	r3, [r7, #294]	; 0x126
    9bd8:	f080 8166 	bcs.w	9ea8 <IziPlus_HandleRx+0x548>
    9bdc:	2b32      	cmp	r3, #50	; 0x32
    9bde:	f67f aee8 	bls.w	99b2 <IziPlus_HandleRx+0x52>
    9be2:	2300      	movs	r3, #0
    9be4:	f8a7 3126 	strh.w	r3, [r7, #294]	; 0x126
    9be8:	e6e3      	b.n	99b2 <IziPlus_HandleRx+0x52>
    9bea:	4b16      	ldr	r3, [pc, #88]	; (9c44 <IziPlus_HandleRx+0x2e4>)
    9bec:	4798      	blx	r3
    9bee:	4b16      	ldr	r3, [pc, #88]	; (9c48 <IziPlus_HandleRx+0x2e8>)
    9bf0:	4798      	blx	r3
    9bf2:	7b65      	ldrb	r5, [r4, #13]
    9bf4:	e6c1      	b.n	997a <IziPlus_HandleRx+0x1a>
    9bf6:	bf00      	nop
    9bf8:	2001ff00 	.word	0x2001ff00
    9bfc:	20005670 	.word	0x20005670
    9c00:	20002a06 	.word	0x20002a06
    9c04:	2000ee34 	.word	0x2000ee34
    9c08:	00804020 	.word	0x00804020
    9c0c:	00004ff1 	.word	0x00004ff1
    9c10:	2000f178 	.word	0x2000f178
    9c14:	2000f300 	.word	0x2000f300
    9c18:	00004c89 	.word	0x00004c89
    9c1c:	0000be91 	.word	0x0000be91
    9c20:	00004e61 	.word	0x00004e61
    9c24:	2000f2fc 	.word	0x2000f2fc
    9c28:	00004d19 	.word	0x00004d19
    9c2c:	00008c31 	.word	0x00008c31
    9c30:	2000f15c 	.word	0x2000f15c
    9c34:	0000ece5 	.word	0x0000ece5
    9c38:	0000ef31 	.word	0x0000ef31
    9c3c:	00004d3d 	.word	0x00004d3d
    9c40:	00004d09 	.word	0x00004d09
    9c44:	0000d771 	.word	0x0000d771
    9c48:	0000b8e9 	.word	0x0000b8e9
    9c4c:	2b21      	cmp	r3, #33	; 0x21
    9c4e:	f040 8241 	bne.w	a0d4 <IziPlus_HandleRx+0x774>
    9c52:	0729      	lsls	r1, r5, #28
    9c54:	f47f ae9d 	bne.w	9992 <IziPlus_HandleRx+0x32>
    9c58:	f005 0570 	and.w	r5, r5, #112	; 0x70
    9c5c:	2d10      	cmp	r5, #16
    9c5e:	f000 8171 	beq.w	9f44 <IziPlus_HandleRx+0x5e4>
    9c62:	2d00      	cmp	r5, #0
    9c64:	f47f af1e 	bne.w	9aa4 <IziPlus_HandleRx+0x144>
    9c68:	8962      	ldrh	r2, [r4, #10]
    9c6a:	f3c2 020b 	ubfx	r2, r2, #0, #12
    9c6e:	2a03      	cmp	r2, #3
    9c70:	f67f af18 	bls.w	9aa4 <IziPlus_HandleRx+0x144>
    9c74:	4a9f      	ldr	r2, [pc, #636]	; (9ef4 <IziPlus_HandleRx+0x594>)
    9c76:	4ba0      	ldr	r3, [pc, #640]	; (9ef8 <IziPlus_HandleRx+0x598>)
    9c78:	6815      	ldr	r5, [r2, #0]
    9c7a:	3510      	adds	r5, #16
    9c7c:	4628      	mov	r0, r5
    9c7e:	4798      	blx	r3
    9c80:	1c43      	adds	r3, r0, #1
    9c82:	b2db      	uxtb	r3, r3
    9c84:	2b20      	cmp	r3, #32
    9c86:	462a      	mov	r2, r5
    9c88:	bf28      	it	cs
    9c8a:	2320      	movcs	r3, #32
    9c8c:	7b21      	ldrb	r1, [r4, #12]
    9c8e:	489b      	ldr	r0, [pc, #620]	; (9efc <IziPlus_HandleRx+0x59c>)
    9c90:	4d9b      	ldr	r5, [pc, #620]	; (9f00 <IziPlus_HandleRx+0x5a0>)
    9c92:	e6e3      	b.n	9a5c <IziPlus_HandleRx+0xfc>
    9c94:	2301      	movs	r3, #1
    9c96:	f8a7 3126 	strh.w	r3, [r7, #294]	; 0x126
    9c9a:	e68a      	b.n	99b2 <IziPlus_HandleRx+0x52>
    9c9c:	8962      	ldrh	r2, [r4, #10]
    9c9e:	f3c2 020b 	ubfx	r2, r2, #0, #12
    9ca2:	2a03      	cmp	r2, #3
    9ca4:	f67f aefe 	bls.w	9aa4 <IziPlus_HandleRx+0x144>
    9ca8:	4a92      	ldr	r2, [pc, #584]	; (9ef4 <IziPlus_HandleRx+0x594>)
    9caa:	4b96      	ldr	r3, [pc, #600]	; (9f04 <IziPlus_HandleRx+0x5a4>)
    9cac:	6810      	ldr	r0, [r2, #0]
    9cae:	7b25      	ldrb	r5, [r4, #12]
    9cb0:	f8b0 803a 	ldrh.w	r8, [r0, #58]	; 0x3a
    9cb4:	f890 903c 	ldrb.w	r9, [r0, #60]	; 0x3c
    9cb8:	f890 a03d 	ldrb.w	sl, [r0, #61]	; 0x3d
    9cbc:	f890 b03e 	ldrb.w	fp, [r0, #62]	; 0x3e
    9cc0:	4798      	blx	r3
    9cc2:	4629      	mov	r1, r5
    9cc4:	9002      	str	r0, [sp, #8]
    9cc6:	e88d 0c00 	stmia.w	sp, {sl, fp}
    9cca:	464b      	mov	r3, r9
    9ccc:	4642      	mov	r2, r8
    9cce:	4d8e      	ldr	r5, [pc, #568]	; (9f08 <IziPlus_HandleRx+0x5a8>)
    9cd0:	488a      	ldr	r0, [pc, #552]	; (9efc <IziPlus_HandleRx+0x59c>)
    9cd2:	47a8      	blx	r5
    9cd4:	e6c3      	b.n	9a5e <IziPlus_HandleRx+0xfe>
    9cd6:	8961      	ldrh	r1, [r4, #10]
    9cd8:	f3c1 010b 	ubfx	r1, r1, #0, #12
    9cdc:	2904      	cmp	r1, #4
    9cde:	d94d      	bls.n	9d7c <IziPlus_HandleRx+0x41c>
    9ce0:	3904      	subs	r1, #4
    9ce2:	f011 05ff 	ands.w	r5, r1, #255	; 0xff
    9ce6:	d049      	beq.n	9d7c <IziPlus_HandleRx+0x41c>
    9ce8:	4988      	ldr	r1, [pc, #544]	; (9f0c <IziPlus_HandleRx+0x5ac>)
    9cea:	f8b1 8000 	ldrh.w	r8, [r1]
    9cee:	4545      	cmp	r5, r8
    9cf0:	d844      	bhi.n	9d7c <IziPlus_HandleRx+0x41c>
    9cf2:	4610      	mov	r0, r2
    9cf4:	4692      	mov	sl, r2
    9cf6:	f8df e234 	ldr.w	lr, [pc, #564]	; 9f2c <IziPlus_HandleRx+0x5cc>
    9cfa:	f04f 0901 	mov.w	r9, #1
    9cfe:	e019      	b.n	9d34 <IziPlus_HandleRx+0x3d4>
    9d00:	f89c c010 	ldrb.w	ip, [ip, #16]
    9d04:	f8be 01be 	ldrh.w	r0, [lr, #446]	; 0x1be
    9d08:	3901      	subs	r1, #1
    9d0a:	4411      	add	r1, r2
    9d0c:	b2ca      	uxtb	r2, r1
    9d0e:	4560      	cmp	r0, ip
    9d10:	4692      	mov	sl, r2
    9d12:	eb02 0009 	add.w	r0, r2, r9
    9d16:	d831      	bhi.n	9d7c <IziPlus_HandleRx+0x41c>
    9d18:	f8be 11c0 	ldrh.w	r1, [lr, #448]	; 0x1c0
    9d1c:	4561      	cmp	r1, ip
    9d1e:	f10e 0e20 	add.w	lr, lr, #32
    9d22:	d32b      	bcc.n	9d7c <IziPlus_HandleRx+0x41c>
    9d24:	45a9      	cmp	r9, r5
    9d26:	f109 0901 	add.w	r9, r9, #1
    9d2a:	f280 81c6 	bge.w	a0ba <IziPlus_HandleRx+0x75a>
    9d2e:	4540      	cmp	r0, r8
    9d30:	f280 81c3 	bge.w	a0ba <IziPlus_HandleRx+0x75a>
    9d34:	f89e 11b8 	ldrb.w	r1, [lr, #440]	; 0x1b8
    9d38:	2902      	cmp	r1, #2
    9d3a:	eb04 0c00 	add.w	ip, r4, r0
    9d3e:	d1df      	bne.n	9d00 <IziPlus_HandleRx+0x3a0>
    9d40:	eb04 0c0a 	add.w	ip, r4, sl
    9d44:	44cc      	add	ip, r9
    9d46:	4420      	add	r0, r4
    9d48:	f89c a010 	ldrb.w	sl, [ip, #16]
    9d4c:	f890 c010 	ldrb.w	ip, [r0, #16]
    9d50:	eb0c 2c0a 	add.w	ip, ip, sl, lsl #8
    9d54:	fa1f fc8c 	uxth.w	ip, ip
    9d58:	e7d4      	b.n	9d04 <IziPlus_HandleRx+0x3a4>
    9d5a:	7e3d      	ldrb	r5, [r7, #24]
    9d5c:	b99d      	cbnz	r5, 9d86 <IziPlus_HandleRx+0x426>
    9d5e:	4b6c      	ldr	r3, [pc, #432]	; (9f10 <IziPlus_HandleRx+0x5b0>)
    9d60:	7b21      	ldrb	r1, [r4, #12]
    9d62:	4866      	ldr	r0, [pc, #408]	; (9efc <IziPlus_HandleRx+0x59c>)
    9d64:	4798      	blx	r3
    9d66:	4603      	mov	r3, r0
    9d68:	2b00      	cmp	r3, #0
    9d6a:	f43f aefa 	beq.w	9b62 <IziPlus_HandleRx+0x202>
    9d6e:	4a69      	ldr	r2, [pc, #420]	; (9f14 <IziPlus_HandleRx+0x5b4>)
    9d70:	6820      	ldr	r0, [r4, #0]
    9d72:	8811      	ldrh	r1, [r2, #0]
    9d74:	4c68      	ldr	r4, [pc, #416]	; (9f18 <IziPlus_HandleRx+0x5b8>)
    9d76:	4a61      	ldr	r2, [pc, #388]	; (9efc <IziPlus_HandleRx+0x59c>)
    9d78:	47a0      	blx	r4
    9d7a:	e6f2      	b.n	9b62 <IziPlus_HandleRx+0x202>
    9d7c:	f06f 0501 	mvn.w	r5, #1
    9d80:	f8df 8190 	ldr.w	r8, [pc, #400]	; 9f14 <IziPlus_HandleRx+0x5b4>
    9d84:	e692      	b.n	9aac <IziPlus_HandleRx+0x14c>
    9d86:	7b63      	ldrb	r3, [r4, #13]
    9d88:	7b21      	ldrb	r1, [r4, #12]
    9d8a:	485c      	ldr	r0, [pc, #368]	; (9efc <IziPlus_HandleRx+0x59c>)
    9d8c:	f8df 8190 	ldr.w	r8, [pc, #400]	; 9f20 <IziPlus_HandleRx+0x5c0>
    9d90:	b26d      	sxtb	r5, r5
    9d92:	f3c3 1302 	ubfx	r3, r3, #4, #3
    9d96:	9500      	str	r5, [sp, #0]
    9d98:	47c0      	blx	r8
    9d9a:	4603      	mov	r3, r0
    9d9c:	e7e4      	b.n	9d68 <IziPlus_HandleRx+0x408>
    9d9e:	7e3d      	ldrb	r5, [r7, #24]
    9da0:	2d00      	cmp	r5, #0
    9da2:	d1f0      	bne.n	9d86 <IziPlus_HandleRx+0x426>
    9da4:	4b5d      	ldr	r3, [pc, #372]	; (9f1c <IziPlus_HandleRx+0x5bc>)
    9da6:	7b21      	ldrb	r1, [r4, #12]
    9da8:	4854      	ldr	r0, [pc, #336]	; (9efc <IziPlus_HandleRx+0x59c>)
    9daa:	4798      	blx	r3
    9dac:	4603      	mov	r3, r0
    9dae:	e7db      	b.n	9d68 <IziPlus_HandleRx+0x408>
    9db0:	7e3b      	ldrb	r3, [r7, #24]
    9db2:	2b00      	cmp	r3, #0
    9db4:	f000 81de 	beq.w	a174 <IziPlus_HandleRx+0x814>
    9db8:	f894 e00d 	ldrb.w	lr, [r4, #13]
    9dbc:	7b21      	ldrb	r1, [r4, #12]
    9dbe:	484f      	ldr	r0, [pc, #316]	; (9efc <IziPlus_HandleRx+0x59c>)
    9dc0:	4d57      	ldr	r5, [pc, #348]	; (9f20 <IziPlus_HandleRx+0x5c0>)
    9dc2:	b25b      	sxtb	r3, r3
    9dc4:	9300      	str	r3, [sp, #0]
    9dc6:	f3ce 1302 	ubfx	r3, lr, #4, #3
    9dca:	47a8      	blx	r5
    9dcc:	4603      	mov	r3, r0
    9dce:	e7cb      	b.n	9d68 <IziPlus_HandleRx+0x408>
    9dd0:	6822      	ldr	r2, [r4, #0]
    9dd2:	3201      	adds	r2, #1
    9dd4:	f43f adea 	beq.w	99ac <IziPlus_HandleRx+0x4c>
    9dd8:	f897 3125 	ldrb.w	r3, [r7, #293]	; 0x125
    9ddc:	2b00      	cmp	r3, #0
    9dde:	f000 80f4 	beq.w	9fca <IziPlus_HandleRx+0x66a>
    9de2:	4b50      	ldr	r3, [pc, #320]	; (9f24 <IziPlus_HandleRx+0x5c4>)
    9de4:	7b21      	ldrb	r1, [r4, #12]
    9de6:	4845      	ldr	r0, [pc, #276]	; (9efc <IziPlus_HandleRx+0x59c>)
    9de8:	4798      	blx	r3
    9dea:	2200      	movs	r2, #0
    9dec:	4603      	mov	r3, r0
    9dee:	f887 2125 	strb.w	r2, [r7, #293]	; 0x125
    9df2:	4948      	ldr	r1, [pc, #288]	; (9f14 <IziPlus_HandleRx+0x5b4>)
    9df4:	4a41      	ldr	r2, [pc, #260]	; (9efc <IziPlus_HandleRx+0x59c>)
    9df6:	8809      	ldrh	r1, [r1, #0]
    9df8:	6820      	ldr	r0, [r4, #0]
    9dfa:	f8df 811c 	ldr.w	r8, [pc, #284]	; 9f18 <IziPlus_HandleRx+0x5b8>
    9dfe:	47c0      	blx	r8
    9e00:	e6cf      	b.n	9ba2 <IziPlus_HandleRx+0x242>
    9e02:	7b3a      	ldrb	r2, [r7, #12]
    9e04:	2a01      	cmp	r2, #1
    9e06:	d054      	beq.n	9eb2 <IziPlus_HandleRx+0x552>
    9e08:	887a      	ldrh	r2, [r7, #2]
    9e0a:	2a00      	cmp	r2, #0
    9e0c:	d151      	bne.n	9eb2 <IziPlus_HandleRx+0x552>
    9e0e:	f06f 0503 	mvn.w	r5, #3
    9e12:	f8df 8100 	ldr.w	r8, [pc, #256]	; 9f14 <IziPlus_HandleRx+0x5b4>
    9e16:	e649      	b.n	9aac <IziPlus_HandleRx+0x14c>
    9e18:	7e3d      	ldrb	r5, [r7, #24]
    9e1a:	2d00      	cmp	r5, #0
    9e1c:	d1b3      	bne.n	9d86 <IziPlus_HandleRx+0x426>
    9e1e:	4b42      	ldr	r3, [pc, #264]	; (9f28 <IziPlus_HandleRx+0x5c8>)
    9e20:	7b21      	ldrb	r1, [r4, #12]
    9e22:	4836      	ldr	r0, [pc, #216]	; (9efc <IziPlus_HandleRx+0x59c>)
    9e24:	4798      	blx	r3
    9e26:	4603      	mov	r3, r0
    9e28:	e79e      	b.n	9d68 <IziPlus_HandleRx+0x408>
    9e2a:	8962      	ldrh	r2, [r4, #10]
    9e2c:	f3c2 020b 	ubfx	r2, r2, #0, #12
    9e30:	2a08      	cmp	r2, #8
    9e32:	d9a3      	bls.n	9d7c <IziPlus_HandleRx+0x41c>
    9e34:	4a3d      	ldr	r2, [pc, #244]	; (9f2c <IziPlus_HandleRx+0x5cc>)
    9e36:	7ca1      	ldrb	r1, [r4, #18]
    9e38:	7812      	ldrb	r2, [r2, #0]
    9e3a:	4291      	cmp	r1, r2
    9e3c:	d29e      	bcs.n	9d7c <IziPlus_HandleRx+0x41c>
    9e3e:	4a3c      	ldr	r2, [pc, #240]	; (9f30 <IziPlus_HandleRx+0x5d0>)
    9e40:	930b      	str	r3, [sp, #44]	; 0x2c
    9e42:	4790      	blx	r2
    9e44:	7c65      	ldrb	r5, [r4, #17]
    9e46:	7c22      	ldrb	r2, [r4, #16]
    9e48:	493a      	ldr	r1, [pc, #232]	; (9f34 <IziPlus_HandleRx+0x5d4>)
    9e4a:	f8df 90cc 	ldr.w	r9, [pc, #204]	; 9f18 <IziPlus_HandleRx+0x5b8>
    9e4e:	ea42 2205 	orr.w	r2, r2, r5, lsl #8
    9e52:	8742      	strh	r2, [r0, #58]	; 0x3a
    9e54:	7ca2      	ldrb	r2, [r4, #18]
    9e56:	f880 203c 	strb.w	r2, [r0, #60]	; 0x3c
    9e5a:	7d22      	ldrb	r2, [r4, #20]
    9e5c:	f880 203e 	strb.w	r2, [r0, #62]	; 0x3e
    9e60:	7ce2      	ldrb	r2, [r4, #19]
    9e62:	f880 203d 	strb.w	r2, [r0, #61]	; 0x3d
    9e66:	7b25      	ldrb	r5, [r4, #12]
    9e68:	4788      	blx	r1
    9e6a:	4629      	mov	r1, r5
    9e6c:	4602      	mov	r2, r0
    9e6e:	4d32      	ldr	r5, [pc, #200]	; (9f38 <IziPlus_HandleRx+0x5d8>)
    9e70:	4822      	ldr	r0, [pc, #136]	; (9efc <IziPlus_HandleRx+0x59c>)
    9e72:	47a8      	blx	r5
    9e74:	2501      	movs	r5, #1
    9e76:	7b61      	ldrb	r1, [r4, #13]
    9e78:	9b0b      	ldr	r3, [sp, #44]	; 0x2c
    9e7a:	4a26      	ldr	r2, [pc, #152]	; (9f14 <IziPlus_HandleRx+0x5b4>)
    9e7c:	743b      	strb	r3, [r7, #16]
    9e7e:	747d      	strb	r5, [r7, #17]
    9e80:	7679      	strb	r1, [r7, #25]
    9e82:	4603      	mov	r3, r0
    9e84:	8811      	ldrh	r1, [r2, #0]
    9e86:	6820      	ldr	r0, [r4, #0]
    9e88:	4a1c      	ldr	r2, [pc, #112]	; (9efc <IziPlus_HandleRx+0x59c>)
    9e8a:	617d      	str	r5, [r7, #20]
    9e8c:	47c8      	blx	r9
    9e8e:	7c7d      	ldrb	r5, [r7, #17]
    9e90:	2d01      	cmp	r5, #1
    9e92:	f47f ad7f 	bne.w	9994 <IziPlus_HandleRx+0x34>
    9e96:	2300      	movs	r3, #0
    9e98:	4d28      	ldr	r5, [pc, #160]	; (9f3c <IziPlus_HandleRx+0x5dc>)
    9e9a:	f8d7 0120 	ldr.w	r0, [r7, #288]	; 0x120
    9e9e:	461a      	mov	r2, r3
    9ea0:	4619      	mov	r1, r3
    9ea2:	47a8      	blx	r5
    9ea4:	7c7d      	ldrb	r5, [r7, #17]
    9ea6:	e575      	b.n	9994 <IziPlus_HandleRx+0x34>
    9ea8:	f5b3 7f16 	cmp.w	r3, #600	; 0x258
    9eac:	f63f ae99 	bhi.w	9be2 <IziPlus_HandleRx+0x282>
    9eb0:	e57f      	b.n	99b2 <IziPlus_HandleRx+0x52>
    9eb2:	8962      	ldrh	r2, [r4, #10]
    9eb4:	f3c2 020b 	ubfx	r2, r2, #0, #12
    9eb8:	2a0d      	cmp	r2, #13
    9eba:	f67f af5f 	bls.w	9d7c <IziPlus_HandleRx+0x41c>
    9ebe:	4b1c      	ldr	r3, [pc, #112]	; (9f30 <IziPlus_HandleRx+0x5d0>)
    9ec0:	4798      	blx	r3
    9ec2:	6962      	ldr	r2, [r4, #20]
    9ec4:	6302      	str	r2, [r0, #48]	; 0x30
    9ec6:	7c62      	ldrb	r2, [r4, #17]
    9ec8:	f880 2034 	strb.w	r2, [r0, #52]	; 0x34
    9ecc:	7ca2      	ldrb	r2, [r4, #18]
    9ece:	f880 2035 	strb.w	r2, [r0, #53]	; 0x35
    9ed2:	7ce2      	ldrb	r2, [r4, #19]
    9ed4:	f880 2037 	strb.w	r2, [r0, #55]	; 0x37
    9ed8:	7e22      	ldrb	r2, [r4, #24]
    9eda:	f880 203f 	strb.w	r2, [r0, #63]	; 0x3f
    9ede:	4b18      	ldr	r3, [pc, #96]	; (9f40 <IziPlus_HandleRx+0x5e0>)
    9ee0:	4798      	blx	r3
    9ee2:	2800      	cmp	r0, #0
    9ee4:	f040 80e1 	bne.w	a0aa <IziPlus_HandleRx+0x74a>
    9ee8:	7ba3      	ldrb	r3, [r4, #14]
    9eea:	f8df 8028 	ldr.w	r8, [pc, #40]	; 9f14 <IziPlus_HandleRx+0x5b4>
    9eee:	f06f 0502 	mvn.w	r5, #2
    9ef2:	e5db      	b.n	9aac <IziPlus_HandleRx+0x14c>
    9ef4:	2000ee34 	.word	0x2000ee34
    9ef8:	00010ad9 	.word	0x00010ad9
    9efc:	2000f178 	.word	0x2000f178
    9f00:	00004edd 	.word	0x00004edd
    9f04:	0000c005 	.word	0x0000c005
    9f08:	00004ddd 	.word	0x00004ddd
    9f0c:	2000f2fc 	.word	0x2000f2fc
    9f10:	00004e19 	.word	0x00004e19
    9f14:	2000f300 	.word	0x2000f300
    9f18:	00004c89 	.word	0x00004c89
    9f1c:	00005069 	.word	0x00005069
    9f20:	00004d19 	.word	0x00004d19
    9f24:	00005045 	.word	0x00005045
    9f28:	00004e95 	.word	0x00004e95
    9f2c:	2000f340 	.word	0x2000f340
    9f30:	00006051 	.word	0x00006051
    9f34:	0000c011 	.word	0x0000c011
    9f38:	00004d8d 	.word	0x00004d8d
    9f3c:	0000e225 	.word	0x0000e225
    9f40:	00006075 	.word	0x00006075
    9f44:	8962      	ldrh	r2, [r4, #10]
    9f46:	f3c2 020b 	ubfx	r2, r2, #0, #12
    9f4a:	2a04      	cmp	r2, #4
    9f4c:	f67f af16 	bls.w	9d7c <IziPlus_HandleRx+0x41c>
    9f50:	b2d2      	uxtb	r2, r2
    9f52:	1f11      	subs	r1, r2, #4
    9f54:	b2cd      	uxtb	r5, r1
    9f56:	2d20      	cmp	r5, #32
    9f58:	f63f af10 	bhi.w	9d7c <IziPlus_HandleRx+0x41c>
    9f5c:	2d1e      	cmp	r5, #30
    9f5e:	d804      	bhi.n	9f6a <IziPlus_HandleRx+0x60a>
    9f60:	1963      	adds	r3, r4, r5
    9f62:	3a03      	subs	r2, #3
    9f64:	2100      	movs	r1, #0
    9f66:	b2d5      	uxtb	r5, r2
    9f68:	7419      	strb	r1, [r3, #16]
    9f6a:	4b98      	ldr	r3, [pc, #608]	; (a1cc <IziPlus_HandleRx+0x86c>)
    9f6c:	4798      	blx	r3
    9f6e:	462a      	mov	r2, r5
    9f70:	f104 0110 	add.w	r1, r4, #16
    9f74:	4b96      	ldr	r3, [pc, #600]	; (a1d0 <IziPlus_HandleRx+0x870>)
    9f76:	3010      	adds	r0, #16
    9f78:	4798      	blx	r3
    9f7a:	7b21      	ldrb	r1, [r4, #12]
    9f7c:	4895      	ldr	r0, [pc, #596]	; (a1d4 <IziPlus_HandleRx+0x874>)
    9f7e:	4b96      	ldr	r3, [pc, #600]	; (a1d8 <IziPlus_HandleRx+0x878>)
    9f80:	4798      	blx	r3
    9f82:	f04f 0e21 	mov.w	lr, #33	; 0x21
    9f86:	7b63      	ldrb	r3, [r4, #13]
    9f88:	4a94      	ldr	r2, [pc, #592]	; (a1dc <IziPlus_HandleRx+0x87c>)
    9f8a:	767b      	strb	r3, [r7, #25]
    9f8c:	2101      	movs	r1, #1
    9f8e:	7479      	strb	r1, [r7, #17]
    9f90:	f887 e010 	strb.w	lr, [r7, #16]
    9f94:	4603      	mov	r3, r0
    9f96:	8811      	ldrh	r1, [r2, #0]
    9f98:	6820      	ldr	r0, [r4, #0]
    9f9a:	4a8e      	ldr	r2, [pc, #568]	; (a1d4 <IziPlus_HandleRx+0x874>)
    9f9c:	f8df 8298 	ldr.w	r8, [pc, #664]	; a238 <IziPlus_HandleRx+0x8d8>
    9fa0:	617d      	str	r5, [r7, #20]
    9fa2:	47c0      	blx	r8
    9fa4:	7c7d      	ldrb	r5, [r7, #17]
    9fa6:	2d01      	cmp	r5, #1
    9fa8:	f47f acf4 	bne.w	9994 <IziPlus_HandleRx+0x34>
    9fac:	e773      	b.n	9e96 <IziPlus_HandleRx+0x536>
    9fae:	7e3d      	ldrb	r5, [r7, #24]
    9fb0:	2d00      	cmp	r5, #0
    9fb2:	f47f aee8 	bne.w	9d86 <IziPlus_HandleRx+0x426>
    9fb6:	4b8a      	ldr	r3, [pc, #552]	; (a1e0 <IziPlus_HandleRx+0x880>)
    9fb8:	7b25      	ldrb	r5, [r4, #12]
    9fba:	4798      	blx	r3
    9fbc:	4b89      	ldr	r3, [pc, #548]	; (a1e4 <IziPlus_HandleRx+0x884>)
    9fbe:	4602      	mov	r2, r0
    9fc0:	4629      	mov	r1, r5
    9fc2:	4884      	ldr	r0, [pc, #528]	; (a1d4 <IziPlus_HandleRx+0x874>)
    9fc4:	4798      	blx	r3
    9fc6:	4603      	mov	r3, r0
    9fc8:	e6ce      	b.n	9d68 <IziPlus_HandleRx+0x408>
    9fca:	4a87      	ldr	r2, [pc, #540]	; (a1e8 <IziPlus_HandleRx+0x888>)
    9fcc:	88d3      	ldrh	r3, [r2, #6]
    9fce:	2b00      	cmp	r3, #0
    9fd0:	d056      	beq.n	a080 <IziPlus_HandleRx+0x720>
    9fd2:	3b01      	subs	r3, #1
    9fd4:	fa1f f883 	uxth.w	r8, r3
    9fd8:	f1b8 0f01 	cmp.w	r8, #1
    9fdc:	f8a2 8006 	strh.w	r8, [r2, #6]
    9fe0:	d14e      	bne.n	a080 <IziPlus_HandleRx+0x720>
    9fe2:	4b82      	ldr	r3, [pc, #520]	; (a1ec <IziPlus_HandleRx+0x88c>)
    9fe4:	f894 b00c 	ldrb.w	fp, [r4, #12]
    9fe8:	4798      	blx	r3
    9fea:	4b81      	ldr	r3, [pc, #516]	; (a1f0 <IziPlus_HandleRx+0x890>)
    9fec:	900f      	str	r0, [sp, #60]	; 0x3c
    9fee:	4798      	blx	r3
    9ff0:	4b80      	ldr	r3, [pc, #512]	; (a1f4 <IziPlus_HandleRx+0x894>)
    9ff2:	900c      	str	r0, [sp, #48]	; 0x30
    9ff4:	4798      	blx	r3
    9ff6:	4b80      	ldr	r3, [pc, #512]	; (a1f8 <IziPlus_HandleRx+0x898>)
    9ff8:	4681      	mov	r9, r0
    9ffa:	4798      	blx	r3
    9ffc:	4b7f      	ldr	r3, [pc, #508]	; (a1fc <IziPlus_HandleRx+0x89c>)
    9ffe:	900b      	str	r0, [sp, #44]	; 0x2c
    a000:	4798      	blx	r3
    a002:	4b7f      	ldr	r3, [pc, #508]	; (a200 <IziPlus_HandleRx+0x8a0>)
    a004:	4682      	mov	sl, r0
    a006:	4798      	blx	r3
    a008:	4b7e      	ldr	r3, [pc, #504]	; (a204 <IziPlus_HandleRx+0x8a4>)
    a00a:	900d      	str	r0, [sp, #52]	; 0x34
    a00c:	4798      	blx	r3
    a00e:	497e      	ldr	r1, [pc, #504]	; (a208 <IziPlus_HandleRx+0x8a8>)
    a010:	900e      	str	r0, [sp, #56]	; 0x38
    a012:	4788      	blx	r1
    a014:	4b7d      	ldr	r3, [pc, #500]	; (a20c <IziPlus_HandleRx+0x8ac>)
    a016:	497e      	ldr	r1, [pc, #504]	; (a210 <IziPlus_HandleRx+0x8b0>)
    a018:	f8ad 9004 	strh.w	r9, [sp, #4]
    a01c:	9a0e      	ldr	r2, [sp, #56]	; 0x38
    a01e:	f8d3 9000 	ldr.w	r9, [r3]
    a022:	f891 c002 	ldrb.w	ip, [r1, #2]
    a026:	9205      	str	r2, [sp, #20]
    a028:	f04f 0e00 	mov.w	lr, #0
    a02c:	9a0d      	ldr	r2, [sp, #52]	; 0x34
    a02e:	9204      	str	r2, [sp, #16]
    a030:	f368 0e07 	bfi	lr, r8, #0, #8
    a034:	f368 2e0f 	bfi	lr, r8, #8, #8
    a038:	9a0b      	ldr	r2, [sp, #44]	; 0x2c
    a03a:	9006      	str	r0, [sp, #24]
    a03c:	9202      	str	r2, [sp, #8]
    a03e:	9b0c      	ldr	r3, [sp, #48]	; 0x30
    a040:	f8cd 801c 	str.w	r8, [sp, #28]
    a044:	f8ad a00c 	strh.w	sl, [sp, #12]
    a048:	9a0f      	ldr	r2, [sp, #60]	; 0x3c
    a04a:	f8ad e000 	strh.w	lr, [sp]
    a04e:	4659      	mov	r1, fp
    a050:	f8cd 9024 	str.w	r9, [sp, #36]	; 0x24
    a054:	f8cd c020 	str.w	ip, [sp, #32]
    a058:	485e      	ldr	r0, [pc, #376]	; (a1d4 <IziPlus_HandleRx+0x874>)
    a05a:	f8df 81d4 	ldr.w	r8, [pc, #468]	; a230 <IziPlus_HandleRx+0x8d0>
    a05e:	47c0      	blx	r8
    a060:	4603      	mov	r3, r0
    a062:	e6c6      	b.n	9df2 <IziPlus_HandleRx+0x492>
    a064:	4b6b      	ldr	r3, [pc, #428]	; (a214 <IziPlus_HandleRx+0x8b4>)
    a066:	4798      	blx	r3
    a068:	2800      	cmp	r0, #0
    a06a:	f43f ad9a 	beq.w	9ba2 <IziPlus_HandleRx+0x242>
    a06e:	4643      	mov	r3, r8
    a070:	4642      	mov	r2, r8
    a072:	4641      	mov	r1, r8
    a074:	f8d7 0120 	ldr.w	r0, [r7, #288]	; 0x120
    a078:	f8df 81e0 	ldr.w	r8, [pc, #480]	; a25c <IziPlus_HandleRx+0x8fc>
    a07c:	47c0      	blx	r8
    a07e:	e590      	b.n	9ba2 <IziPlus_HandleRx+0x242>
    a080:	4b65      	ldr	r3, [pc, #404]	; (a218 <IziPlus_HandleRx+0x8b8>)
    a082:	f894 800c 	ldrb.w	r8, [r4, #12]
    a086:	4798      	blx	r3
    a088:	4b64      	ldr	r3, [pc, #400]	; (a21c <IziPlus_HandleRx+0x8bc>)
    a08a:	fa1f f980 	uxth.w	r9, r0
    a08e:	4798      	blx	r3
    a090:	4b63      	ldr	r3, [pc, #396]	; (a220 <IziPlus_HandleRx+0x8c0>)
    a092:	9000      	str	r0, [sp, #0]
    a094:	781b      	ldrb	r3, [r3, #0]
    a096:	9301      	str	r3, [sp, #4]
    a098:	4641      	mov	r1, r8
    a09a:	464b      	mov	r3, r9
    a09c:	2202      	movs	r2, #2
    a09e:	484d      	ldr	r0, [pc, #308]	; (a1d4 <IziPlus_HandleRx+0x874>)
    a0a0:	f8df 81bc 	ldr.w	r8, [pc, #444]	; a260 <IziPlus_HandleRx+0x900>
    a0a4:	47c0      	blx	r8
    a0a6:	4603      	mov	r3, r0
    a0a8:	e6a3      	b.n	9df2 <IziPlus_HandleRx+0x492>
    a0aa:	4a4f      	ldr	r2, [pc, #316]	; (a1e8 <IziPlus_HandleRx+0x888>)
    a0ac:	7c25      	ldrb	r5, [r4, #16]
    a0ae:	7b21      	ldrb	r1, [r4, #12]
    a0b0:	4b5c      	ldr	r3, [pc, #368]	; (a224 <IziPlus_HandleRx+0x8c4>)
    a0b2:	7115      	strb	r5, [r2, #4]
    a0b4:	4847      	ldr	r0, [pc, #284]	; (a1d4 <IziPlus_HandleRx+0x874>)
    a0b6:	4798      	blx	r3
    a0b8:	e4d1      	b.n	9a5e <IziPlus_HandleRx+0xfe>
    a0ba:	462a      	mov	r2, r5
    a0bc:	f104 0110 	add.w	r1, r4, #16
    a0c0:	4b59      	ldr	r3, [pc, #356]	; (a228 <IziPlus_HandleRx+0x8c8>)
    a0c2:	2000      	movs	r0, #0
    a0c4:	4798      	blx	r3
    a0c6:	7b21      	ldrb	r1, [r4, #12]
    a0c8:	4842      	ldr	r0, [pc, #264]	; (a1d4 <IziPlus_HandleRx+0x874>)
    a0ca:	4b58      	ldr	r3, [pc, #352]	; (a22c <IziPlus_HandleRx+0x8cc>)
    a0cc:	4798      	blx	r3
    a0ce:	f04f 0e22 	mov.w	lr, #34	; 0x22
    a0d2:	e758      	b.n	9f86 <IziPlus_HandleRx+0x626>
    a0d4:	2b42      	cmp	r3, #66	; 0x42
    a0d6:	f040 80c5 	bne.w	a264 <IziPlus_HandleRx+0x904>
    a0da:	072a      	lsls	r2, r5, #28
    a0dc:	f47f ac59 	bne.w	9992 <IziPlus_HandleRx+0x32>
    a0e0:	f015 0570 	ands.w	r5, r5, #112	; 0x70
    a0e4:	f47f acde 	bne.w	9aa4 <IziPlus_HandleRx+0x144>
    a0e8:	8962      	ldrh	r2, [r4, #10]
    a0ea:	f3c2 020b 	ubfx	r2, r2, #0, #12
    a0ee:	2a03      	cmp	r2, #3
    a0f0:	f67f acd8 	bls.w	9aa4 <IziPlus_HandleRx+0x144>
    a0f4:	2301      	movs	r3, #1
    a0f6:	f04f 0800 	mov.w	r8, #0
    a0fa:	7b21      	ldrb	r1, [r4, #12]
    a0fc:	4a3b      	ldr	r2, [pc, #236]	; (a1ec <IziPlus_HandleRx+0x88c>)
    a0fe:	910f      	str	r1, [sp, #60]	; 0x3c
    a100:	f363 0807 	bfi	r8, r3, #0, #8
    a104:	f363 280f 	bfi	r8, r3, #8, #8
    a108:	4790      	blx	r2
    a10a:	4b39      	ldr	r3, [pc, #228]	; (a1f0 <IziPlus_HandleRx+0x890>)
    a10c:	900e      	str	r0, [sp, #56]	; 0x38
    a10e:	4798      	blx	r3
    a110:	4b38      	ldr	r3, [pc, #224]	; (a1f4 <IziPlus_HandleRx+0x894>)
    a112:	4681      	mov	r9, r0
    a114:	4798      	blx	r3
    a116:	4b38      	ldr	r3, [pc, #224]	; (a1f8 <IziPlus_HandleRx+0x898>)
    a118:	4683      	mov	fp, r0
    a11a:	4798      	blx	r3
    a11c:	4b37      	ldr	r3, [pc, #220]	; (a1fc <IziPlus_HandleRx+0x89c>)
    a11e:	900b      	str	r0, [sp, #44]	; 0x2c
    a120:	4798      	blx	r3
    a122:	4b37      	ldr	r3, [pc, #220]	; (a200 <IziPlus_HandleRx+0x8a0>)
    a124:	4682      	mov	sl, r0
    a126:	4798      	blx	r3
    a128:	4b36      	ldr	r3, [pc, #216]	; (a204 <IziPlus_HandleRx+0x8a4>)
    a12a:	900c      	str	r0, [sp, #48]	; 0x30
    a12c:	4798      	blx	r3
    a12e:	900d      	str	r0, [sp, #52]	; 0x34
    a130:	4835      	ldr	r0, [pc, #212]	; (a208 <IziPlus_HandleRx+0x8a8>)
    a132:	4780      	blx	r0
    a134:	4b36      	ldr	r3, [pc, #216]	; (a210 <IziPlus_HandleRx+0x8b0>)
    a136:	f8df c0d4 	ldr.w	ip, [pc, #212]	; a20c <IziPlus_HandleRx+0x8ac>
    a13a:	f893 e002 	ldrb.w	lr, [r3, #2]
    a13e:	9b0d      	ldr	r3, [sp, #52]	; 0x34
    a140:	f8dc c000 	ldr.w	ip, [ip]
    a144:	9305      	str	r3, [sp, #20]
    a146:	9b0c      	ldr	r3, [sp, #48]	; 0x30
    a148:	9304      	str	r3, [sp, #16]
    a14a:	9b0b      	ldr	r3, [sp, #44]	; 0x2c
    a14c:	9006      	str	r0, [sp, #24]
    a14e:	9302      	str	r3, [sp, #8]
    a150:	9507      	str	r5, [sp, #28]
    a152:	f8ad 8000 	strh.w	r8, [sp]
    a156:	f8ad a00c 	strh.w	sl, [sp, #12]
    a15a:	f8ad b004 	strh.w	fp, [sp, #4]
    a15e:	464b      	mov	r3, r9
    a160:	9a0e      	ldr	r2, [sp, #56]	; 0x38
    a162:	990f      	ldr	r1, [sp, #60]	; 0x3c
    a164:	f8cd c024 	str.w	ip, [sp, #36]	; 0x24
    a168:	f8cd e020 	str.w	lr, [sp, #32]
    a16c:	4d30      	ldr	r5, [pc, #192]	; (a230 <IziPlus_HandleRx+0x8d0>)
    a16e:	4819      	ldr	r0, [pc, #100]	; (a1d4 <IziPlus_HandleRx+0x874>)
    a170:	47a8      	blx	r5
    a172:	e474      	b.n	9a5e <IziPlus_HandleRx+0xfe>
    a174:	7b21      	ldrb	r1, [r4, #12]
    a176:	4b2f      	ldr	r3, [pc, #188]	; (a234 <IziPlus_HandleRx+0x8d4>)
    a178:	4816      	ldr	r0, [pc, #88]	; (a1d4 <IziPlus_HandleRx+0x874>)
    a17a:	4f2f      	ldr	r7, [pc, #188]	; (a238 <IziPlus_HandleRx+0x8d8>)
    a17c:	4798      	blx	r3
    a17e:	4b17      	ldr	r3, [pc, #92]	; (a1dc <IziPlus_HandleRx+0x87c>)
    a180:	4a14      	ldr	r2, [pc, #80]	; (a1d4 <IziPlus_HandleRx+0x874>)
    a182:	8819      	ldrh	r1, [r3, #0]
    a184:	4603      	mov	r3, r0
    a186:	6820      	ldr	r0, [r4, #0]
    a188:	4c2c      	ldr	r4, [pc, #176]	; (a23c <IziPlus_HandleRx+0x8dc>)
    a18a:	47b8      	blx	r7
    a18c:	2104      	movs	r1, #4
    a18e:	462a      	mov	r2, r5
    a190:	4608      	mov	r0, r1
    a192:	2301      	movs	r3, #1
    a194:	47a0      	blx	r4
    a196:	f44f 707a 	mov.w	r0, #1000	; 0x3e8
    a19a:	4b29      	ldr	r3, [pc, #164]	; (a240 <IziPlus_HandleRx+0x8e0>)
    a19c:	4798      	blx	r3
    a19e:	20c8      	movs	r0, #200	; 0xc8
    a1a0:	4b28      	ldr	r3, [pc, #160]	; (a244 <IziPlus_HandleRx+0x8e4>)
    a1a2:	4798      	blx	r3
    a1a4:	4b28      	ldr	r3, [pc, #160]	; (a248 <IziPlus_HandleRx+0x8e8>)
    a1a6:	4798      	blx	r3
    a1a8:	4a28      	ldr	r2, [pc, #160]	; (a24c <IziPlus_HandleRx+0x8ec>)
    a1aa:	4b29      	ldr	r3, [pc, #164]	; (a250 <IziPlus_HandleRx+0x8f0>)
    a1ac:	e886 000c 	stmia.w	r6, {r2, r3}
    a1b0:	f3bf 8f4f 	dsb	sy
    a1b4:	4927      	ldr	r1, [pc, #156]	; (a254 <IziPlus_HandleRx+0x8f4>)
    a1b6:	4b28      	ldr	r3, [pc, #160]	; (a258 <IziPlus_HandleRx+0x8f8>)
    a1b8:	68ca      	ldr	r2, [r1, #12]
    a1ba:	f402 62e0 	and.w	r2, r2, #1792	; 0x700
    a1be:	4313      	orrs	r3, r2
    a1c0:	60cb      	str	r3, [r1, #12]
    a1c2:	f3bf 8f4f 	dsb	sy
    a1c6:	bf00      	nop
    a1c8:	e7fd      	b.n	a1c6 <IziPlus_HandleRx+0x866>
    a1ca:	bf00      	nop
    a1cc:	00006051 	.word	0x00006051
    a1d0:	00010a69 	.word	0x00010a69
    a1d4:	2000f178 	.word	0x2000f178
    a1d8:	00004eb5 	.word	0x00004eb5
    a1dc:	2000f300 	.word	0x2000f300
    a1e0:	0000c005 	.word	0x0000c005
    a1e4:	00004db5 	.word	0x00004db5
    a1e8:	20002a06 	.word	0x20002a06
    a1ec:	0000c051 	.word	0x0000c051
    a1f0:	0000c06d 	.word	0x0000c06d
    a1f4:	0000c0a5 	.word	0x0000c0a5
    a1f8:	0000c089 	.word	0x0000c089
    a1fc:	0000c0b9 	.word	0x0000c0b9
    a200:	0000c0d5 	.word	0x0000c0d5
    a204:	0000c041 	.word	0x0000c041
    a208:	0000c049 	.word	0x0000c049
    a20c:	2000f308 	.word	0x2000f308
    a210:	2000f8ac 	.word	0x2000f8ac
    a214:	00007869 	.word	0x00007869
    a218:	0000b905 	.word	0x0000b905
    a21c:	0000bcf1 	.word	0x0000bcf1
    a220:	2000f304 	.word	0x2000f304
    a224:	00004d6d 	.word	0x00004d6d
    a228:	0000bd5d 	.word	0x0000bd5d
    a22c:	00004e39 	.word	0x00004e39
    a230:	00004f11 	.word	0x00004f11
    a234:	000050b1 	.word	0x000050b1
    a238:	00004c89 	.word	0x00004c89
    a23c:	0000d1c1 	.word	0x0000d1c1
    a240:	000070a1 	.word	0x000070a1
    a244:	0000ef31 	.word	0x0000ef31
    a248:	00006225 	.word	0x00006225
    a24c:	abbaacdc 	.word	0xabbaacdc
    a250:	11223344 	.word	0x11223344
    a254:	e000ed00 	.word	0xe000ed00
    a258:	05fa0004 	.word	0x05fa0004
    a25c:	0000e225 	.word	0x0000e225
    a260:	00004fc1 	.word	0x00004fc1
    a264:	2b11      	cmp	r3, #17
    a266:	d129      	bne.n	a2bc <IziPlus_HandleRx+0x95c>
    a268:	f015 0f0d 	tst.w	r5, #13
    a26c:	d11a      	bne.n	a2a4 <IziPlus_HandleRx+0x944>
    a26e:	f005 0570 	and.w	r5, r5, #112	; 0x70
    a272:	2d20      	cmp	r5, #32
    a274:	f47f ac16 	bne.w	9aa4 <IziPlus_HandleRx+0x144>
    a278:	8962      	ldrh	r2, [r4, #10]
    a27a:	f3c2 020b 	ubfx	r2, r2, #0, #12
    a27e:	2a05      	cmp	r2, #5
    a280:	f67f ac10 	bls.w	9aa4 <IziPlus_HandleRx+0x144>
    a284:	4bb3      	ldr	r3, [pc, #716]	; (a554 <IziPlus_HandleRx+0xbf4>)
    a286:	7c21      	ldrb	r1, [r4, #16]
    a288:	7c60      	ldrb	r0, [r4, #17]
    a28a:	4798      	blx	r3
    a28c:	7b63      	ldrb	r3, [r4, #13]
    a28e:	f003 030f 	and.w	r3, r3, #15
    a292:	2b02      	cmp	r3, #2
    a294:	f43f ab7d 	beq.w	9992 <IziPlus_HandleRx+0x32>
    a298:	7b21      	ldrb	r1, [r4, #12]
    a29a:	4baf      	ldr	r3, [pc, #700]	; (a558 <IziPlus_HandleRx+0xbf8>)
    a29c:	48af      	ldr	r0, [pc, #700]	; (a55c <IziPlus_HandleRx+0xbfc>)
    a29e:	4798      	blx	r3
    a2a0:	f7ff bbdd 	b.w	9a5e <IziPlus_HandleRx+0xfe>
    a2a4:	f005 090f 	and.w	r9, r5, #15
    a2a8:	f1b9 0f00 	cmp.w	r9, #0
    a2ac:	f47f ab71 	bne.w	9992 <IziPlus_HandleRx+0x32>
    a2b0:	f8df 82fc 	ldr.w	r8, [pc, #764]	; a5b0 <IziPlus_HandleRx+0xc50>
    a2b4:	f04f 35ff 	mov.w	r5, #4294967295
    a2b8:	f7ff bbf8 	b.w	9aac <IziPlus_HandleRx+0x14c>
    a2bc:	2b02      	cmp	r3, #2
    a2be:	d12e      	bne.n	a31e <IziPlus_HandleRx+0x9be>
    a2c0:	f015 0f0d 	tst.w	r5, #13
    a2c4:	d1ee      	bne.n	a2a4 <IziPlus_HandleRx+0x944>
    a2c6:	f005 0270 	and.w	r2, r5, #112	; 0x70
    a2ca:	2a10      	cmp	r2, #16
    a2cc:	f47f abea 	bne.w	9aa4 <IziPlus_HandleRx+0x144>
    a2d0:	7c23      	ldrb	r3, [r4, #16]
    a2d2:	2b01      	cmp	r3, #1
    a2d4:	d013      	beq.n	a2fe <IziPlus_HandleRx+0x99e>
    a2d6:	7b3b      	ldrb	r3, [r7, #12]
    a2d8:	b1b3      	cbz	r3, a308 <IziPlus_HandleRx+0x9a8>
    a2da:	072b      	lsls	r3, r5, #28
    a2dc:	f47f ab59 	bne.w	9992 <IziPlus_HandleRx+0x32>
    a2e0:	4b9f      	ldr	r3, [pc, #636]	; (a560 <IziPlus_HandleRx+0xc00>)
    a2e2:	7b21      	ldrb	r1, [r4, #12]
    a2e4:	681d      	ldr	r5, [r3, #0]
    a2e6:	489d      	ldr	r0, [pc, #628]	; (a55c <IziPlus_HandleRx+0xbfc>)
    a2e8:	f895 3035 	ldrb.w	r3, [r5, #53]	; 0x35
    a2ec:	f895 2034 	ldrb.w	r2, [r5, #52]	; 0x34
    a2f0:	f895 5037 	ldrb.w	r5, [r5, #55]	; 0x37
    a2f4:	9500      	str	r5, [sp, #0]
    a2f6:	4d9b      	ldr	r5, [pc, #620]	; (a564 <IziPlus_HandleRx+0xc04>)
    a2f8:	47a8      	blx	r5
    a2fa:	f7ff bbb0 	b.w	9a5e <IziPlus_HandleRx+0xfe>
    a2fe:	2202      	movs	r2, #2
    a300:	2300      	movs	r3, #0
    a302:	733a      	strb	r2, [r7, #12]
    a304:	707b      	strb	r3, [r7, #1]
    a306:	e7e8      	b.n	a2da <IziPlus_HandleRx+0x97a>
    a308:	2501      	movs	r5, #1
    a30a:	4628      	mov	r0, r5
    a30c:	2302      	movs	r3, #2
    a30e:	220a      	movs	r2, #10
    a310:	2105      	movs	r1, #5
    a312:	f8df 8254 	ldr.w	r8, [pc, #596]	; a568 <IziPlus_HandleRx+0xc08>
    a316:	733d      	strb	r5, [r7, #12]
    a318:	47c0      	blx	r8
    a31a:	7b65      	ldrb	r5, [r4, #13]
    a31c:	e7dd      	b.n	a2da <IziPlus_HandleRx+0x97a>
    a31e:	f1a3 0230 	sub.w	r2, r3, #48	; 0x30
    a322:	2a01      	cmp	r2, #1
    a324:	f005 090f 	and.w	r9, r5, #15
    a328:	d952      	bls.n	a3d0 <IziPlus_HandleRx+0xa70>
    a32a:	2b80      	cmp	r3, #128	; 0x80
    a32c:	f040 80f5 	bne.w	a51a <IziPlus_HandleRx+0xbba>
    a330:	f1b9 0f00 	cmp.w	r9, #0
    a334:	d07d      	beq.n	a432 <IziPlus_HandleRx+0xad2>
    a336:	f1b9 0f02 	cmp.w	r9, #2
    a33a:	f47f ab2a 	bne.w	9992 <IziPlus_HandleRx+0x32>
    a33e:	f005 0570 	and.w	r5, r5, #112	; 0x70
    a342:	2d10      	cmp	r5, #16
    a344:	f47f abae 	bne.w	9aa4 <IziPlus_HandleRx+0x144>
    a348:	88ba      	ldrh	r2, [r7, #4]
    a34a:	2a00      	cmp	r2, #0
    a34c:	f43f ab21 	beq.w	9992 <IziPlus_HandleRx+0x32>
    a350:	6922      	ldr	r2, [r4, #16]
    a352:	8961      	ldrh	r1, [r4, #10]
    a354:	3a08      	subs	r2, #8
    a356:	f3c1 010b 	ubfx	r1, r1, #0, #12
    a35a:	440a      	add	r2, r1
    a35c:	f5b2 3fe0 	cmp.w	r2, #114688	; 0x1c000
    a360:	f63f ad0c 	bhi.w	9d7c <IziPlus_HandleRx+0x41c>
    a364:	2302      	movs	r3, #2
    a366:	461a      	mov	r2, r3
    a368:	4619      	mov	r1, r3
    a36a:	2001      	movs	r0, #1
    a36c:	4d7e      	ldr	r5, [pc, #504]	; (a568 <IziPlus_HandleRx+0xc08>)
    a36e:	47a8      	blx	r5
    a370:	6920      	ldr	r0, [r4, #16]
    a372:	4b7e      	ldr	r3, [pc, #504]	; (a56c <IziPlus_HandleRx+0xc0c>)
    a374:	f500 3000 	add.w	r0, r0, #131072	; 0x20000
    a378:	4798      	blx	r3
    a37a:	2800      	cmp	r0, #0
    a37c:	f040 8092 	bne.w	a4a4 <IziPlus_HandleRx+0xb44>
    a380:	8963      	ldrh	r3, [r4, #10]
    a382:	6921      	ldr	r1, [r4, #16]
    a384:	4d7a      	ldr	r5, [pc, #488]	; (a570 <IziPlus_HandleRx+0xc10>)
    a386:	487b      	ldr	r0, [pc, #492]	; (a574 <IziPlus_HandleRx+0xc14>)
    a388:	f3c3 030b 	ubfx	r3, r3, #0, #12
    a38c:	3b08      	subs	r3, #8
    a38e:	b29b      	uxth	r3, r3
    a390:	f501 3100 	add.w	r1, r1, #131072	; 0x20000
    a394:	f104 0214 	add.w	r2, r4, #20
    a398:	47a8      	blx	r5
    a39a:	4b77      	ldr	r3, [pc, #476]	; (a578 <IziPlus_HandleRx+0xc18>)
    a39c:	7b21      	ldrb	r1, [r4, #12]
    a39e:	2800      	cmp	r0, #0
    a3a0:	486e      	ldr	r0, [pc, #440]	; (a55c <IziPlus_HandleRx+0xbfc>)
    a3a2:	bfb4      	ite	lt
    a3a4:	f06f 0503 	mvnlt.w	r5, #3
    a3a8:	2500      	movge	r5, #0
    a3aa:	4798      	blx	r3
    a3ac:	7b63      	ldrb	r3, [r4, #13]
    a3ae:	f003 030f 	and.w	r3, r3, #15
    a3b2:	2b02      	cmp	r3, #2
    a3b4:	4681      	mov	r9, r0
    a3b6:	d16a      	bne.n	a48e <IziPlus_HandleRx+0xb2e>
    a3b8:	7c7b      	ldrb	r3, [r7, #17]
    a3ba:	2b01      	cmp	r3, #1
    a3bc:	f000 8096 	beq.w	a4ec <IziPlus_HandleRx+0xb8c>
    a3c0:	2346      	movs	r3, #70	; 0x46
    a3c2:	7473      	strb	r3, [r6, #17]
    a3c4:	2d00      	cmp	r5, #0
    a3c6:	f040 81a3 	bne.w	a710 <IziPlus_HandleRx+0xdb0>
    a3ca:	7c7d      	ldrb	r5, [r7, #17]
    a3cc:	f7ff bae4 	b.w	9998 <IziPlus_HandleRx+0x38>
    a3d0:	f1b9 0f02 	cmp.w	r9, #2
    a3d4:	d033      	beq.n	a43e <IziPlus_HandleRx+0xade>
    a3d6:	2b82      	cmp	r3, #130	; 0x82
    a3d8:	f040 8126 	bne.w	a628 <IziPlus_HandleRx+0xcc8>
    a3dc:	f1b9 0f00 	cmp.w	r9, #0
    a3e0:	f47f aad7 	bne.w	9992 <IziPlus_HandleRx+0x32>
    a3e4:	f005 0570 	and.w	r5, r5, #112	; 0x70
    a3e8:	2d20      	cmp	r5, #32
    a3ea:	f47f ab5b 	bne.w	9aa4 <IziPlus_HandleRx+0x144>
    a3ee:	8962      	ldrh	r2, [r4, #10]
    a3f0:	f3c2 020b 	ubfx	r2, r2, #0, #12
    a3f4:	2a08      	cmp	r2, #8
    a3f6:	f67f ab55 	bls.w	9aa4 <IziPlus_HandleRx+0x144>
    a3fa:	4b60      	ldr	r3, [pc, #384]	; (a57c <IziPlus_HandleRx+0xc1c>)
    a3fc:	4798      	blx	r3
    a3fe:	6923      	ldr	r3, [r4, #16]
    a400:	4283      	cmp	r3, r0
    a402:	4602      	mov	r2, r0
    a404:	f000 8081 	beq.w	a50a <IziPlus_HandleRx+0xbaa>
    a408:	7d23      	ldrb	r3, [r4, #20]
    a40a:	7b21      	ldrb	r1, [r4, #12]
    a40c:	4d5c      	ldr	r5, [pc, #368]	; (a580 <IziPlus_HandleRx+0xc20>)
    a40e:	4853      	ldr	r0, [pc, #332]	; (a55c <IziPlus_HandleRx+0xbfc>)
    a410:	f8df 819c 	ldr.w	r8, [pc, #412]	; a5b0 <IziPlus_HandleRx+0xc50>
    a414:	eb03 0383 	add.w	r3, r3, r3, lsl #2
    a418:	005b      	lsls	r3, r3, #1
    a41a:	80bb      	strh	r3, [r7, #4]
    a41c:	47a8      	blx	r5
    a41e:	f8b8 1000 	ldrh.w	r1, [r8]
    a422:	4a4e      	ldr	r2, [pc, #312]	; (a55c <IziPlus_HandleRx+0xbfc>)
    a424:	f8df 818c 	ldr.w	r8, [pc, #396]	; a5b4 <IziPlus_HandleRx+0xc54>
    a428:	4603      	mov	r3, r0
    a42a:	6820      	ldr	r0, [r4, #0]
    a42c:	464d      	mov	r5, r9
    a42e:	47c0      	blx	r8
    a430:	e7c6      	b.n	a3c0 <IziPlus_HandleRx+0xa60>
    a432:	f005 0570 	and.w	r5, r5, #112	; 0x70
    a436:	2d10      	cmp	r5, #16
    a438:	f47f ab34 	bne.w	9aa4 <IziPlus_HandleRx+0x144>
    a43c:	e788      	b.n	a350 <IziPlus_HandleRx+0x9f0>
    a43e:	f005 0570 	and.w	r5, r5, #112	; 0x70
    a442:	2d10      	cmp	r5, #16
    a444:	f47f aaa5 	bne.w	9992 <IziPlus_HandleRx+0x32>
    a448:	4b4e      	ldr	r3, [pc, #312]	; (a584 <IziPlus_HandleRx+0xc24>)
    a44a:	4798      	blx	r3
    a44c:	4b44      	ldr	r3, [pc, #272]	; (a560 <IziPlus_HandleRx+0xc00>)
    a44e:	8962      	ldrh	r2, [r4, #10]
    a450:	681b      	ldr	r3, [r3, #0]
    a452:	f893 503e 	ldrb.w	r5, [r3, #62]	; 0x3e
    a456:	1829      	adds	r1, r5, r0
    a458:	3103      	adds	r1, #3
    a45a:	f3c2 020b 	ubfx	r2, r2, #0, #12
    a45e:	4291      	cmp	r1, r2
    a460:	da4d      	bge.n	a4fe <IziPlus_HandleRx+0xb9e>
    a462:	f105 0210 	add.w	r2, r5, #16
    a466:	2100      	movs	r1, #0
    a468:	b283      	uxth	r3, r0
    a46a:	4422      	add	r2, r4
    a46c:	4608      	mov	r0, r1
    a46e:	4d46      	ldr	r5, [pc, #280]	; (a588 <IziPlus_HandleRx+0xc28>)
    a470:	47a8      	blx	r5
    a472:	7ba3      	ldrb	r3, [r4, #14]
    a474:	2b31      	cmp	r3, #49	; 0x31
    a476:	d04a      	beq.n	a50e <IziPlus_HandleRx+0xbae>
    a478:	4b44      	ldr	r3, [pc, #272]	; (a58c <IziPlus_HandleRx+0xc2c>)
    a47a:	4798      	blx	r3
    a47c:	2301      	movs	r3, #1
    a47e:	f887 3124 	strb.w	r3, [r7, #292]	; 0x124
    a482:	200a      	movs	r0, #10
    a484:	4b42      	ldr	r3, [pc, #264]	; (a590 <IziPlus_HandleRx+0xc30>)
    a486:	4798      	blx	r3
    a488:	7c7d      	ldrb	r5, [r7, #17]
    a48a:	f7ff ba83 	b.w	9994 <IziPlus_HandleRx+0x34>
    a48e:	f8df 8120 	ldr.w	r8, [pc, #288]	; a5b0 <IziPlus_HandleRx+0xc50>
    a492:	4a32      	ldr	r2, [pc, #200]	; (a55c <IziPlus_HandleRx+0xbfc>)
    a494:	f8b8 1000 	ldrh.w	r1, [r8]
    a498:	6820      	ldr	r0, [r4, #0]
    a49a:	f8df 8118 	ldr.w	r8, [pc, #280]	; a5b4 <IziPlus_HandleRx+0xc54>
    a49e:	464b      	mov	r3, r9
    a4a0:	47c0      	blx	r8
    a4a2:	e789      	b.n	a3b8 <IziPlus_HandleRx+0xa58>
    a4a4:	7b21      	ldrb	r1, [r4, #12]
    a4a6:	4b3b      	ldr	r3, [pc, #236]	; (a594 <IziPlus_HandleRx+0xc34>)
    a4a8:	482c      	ldr	r0, [pc, #176]	; (a55c <IziPlus_HandleRx+0xbfc>)
    a4aa:	4d3b      	ldr	r5, [pc, #236]	; (a598 <IziPlus_HandleRx+0xc38>)
    a4ac:	4798      	blx	r3
    a4ae:	6923      	ldr	r3, [r4, #16]
    a4b0:	8961      	ldrh	r1, [r4, #10]
    a4b2:	f503 3300 	add.w	r3, r3, #131072	; 0x20000
    a4b6:	f8c7 301a 	str.w	r3, [r7, #26]
    a4ba:	f3c1 010b 	ubfx	r1, r1, #0, #12
    a4be:	3908      	subs	r1, #8
    a4c0:	7b63      	ldrb	r3, [r4, #13]
    a4c2:	767b      	strb	r3, [r7, #25]
    a4c4:	460a      	mov	r2, r1
    a4c6:	2301      	movs	r3, #1
    a4c8:	f04f 0e80 	mov.w	lr, #128	; 0x80
    a4cc:	6179      	str	r1, [r7, #20]
    a4ce:	4681      	mov	r9, r0
    a4d0:	f104 0114 	add.w	r1, r4, #20
    a4d4:	4831      	ldr	r0, [pc, #196]	; (a59c <IziPlus_HandleRx+0xc3c>)
    a4d6:	747b      	strb	r3, [r7, #17]
    a4d8:	f887 e010 	strb.w	lr, [r7, #16]
    a4dc:	47a8      	blx	r5
    a4de:	7b63      	ldrb	r3, [r4, #13]
    a4e0:	f003 030f 	and.w	r3, r3, #15
    a4e4:	2b02      	cmp	r3, #2
    a4e6:	f04f 0500 	mov.w	r5, #0
    a4ea:	d1d0      	bne.n	a48e <IziPlus_HandleRx+0xb2e>
    a4ec:	2300      	movs	r3, #0
    a4ee:	461a      	mov	r2, r3
    a4f0:	4619      	mov	r1, r3
    a4f2:	f8d7 0120 	ldr.w	r0, [r7, #288]	; 0x120
    a4f6:	f8df 80c0 	ldr.w	r8, [pc, #192]	; a5b8 <IziPlus_HandleRx+0xc58>
    a4fa:	47c0      	blx	r8
    a4fc:	e760      	b.n	a3c0 <IziPlus_HandleRx+0xa60>
    a4fe:	200a      	movs	r0, #10
    a500:	4b27      	ldr	r3, [pc, #156]	; (a5a0 <IziPlus_HandleRx+0xc40>)
    a502:	4798      	blx	r3
    a504:	7c7d      	ldrb	r5, [r7, #17]
    a506:	f7ff ba45 	b.w	9994 <IziPlus_HandleRx+0x34>
    a50a:	250a      	movs	r5, #10
    a50c:	e758      	b.n	a3c0 <IziPlus_HandleRx+0xa60>
    a50e:	4b25      	ldr	r3, [pc, #148]	; (a5a4 <IziPlus_HandleRx+0xc44>)
    a510:	4798      	blx	r3
    a512:	2300      	movs	r3, #0
    a514:	f887 3124 	strb.w	r3, [r7, #292]	; 0x124
    a518:	e7b3      	b.n	a482 <IziPlus_HandleRx+0xb22>
    a51a:	2b81      	cmp	r3, #129	; 0x81
    a51c:	f47f af5b 	bne.w	a3d6 <IziPlus_HandleRx+0xa76>
    a520:	f1b9 0f00 	cmp.w	r9, #0
    a524:	f47f aa35 	bne.w	9992 <IziPlus_HandleRx+0x32>
    a528:	f005 0570 	and.w	r5, r5, #112	; 0x70
    a52c:	2d20      	cmp	r5, #32
    a52e:	f47f aab9 	bne.w	9aa4 <IziPlus_HandleRx+0x144>
    a532:	f8df 9088 	ldr.w	r9, [pc, #136]	; a5bc <IziPlus_HandleRx+0xc5c>
    a536:	4b1c      	ldr	r3, [pc, #112]	; (a5a8 <IziPlus_HandleRx+0xc48>)
    a538:	f8df 8074 	ldr.w	r8, [pc, #116]	; a5b0 <IziPlus_HandleRx+0xc50>
    a53c:	f509 35e0 	add.w	r5, r9, #114688	; 0x1c000
    a540:	4798      	blx	r3
    a542:	686a      	ldr	r2, [r5, #4]
    a544:	4b19      	ldr	r3, [pc, #100]	; (a5ac <IziPlus_HandleRx+0xc4c>)
    a546:	429a      	cmp	r2, r3
    a548:	d03a      	beq.n	a5c0 <IziPlus_HandleRx+0xc60>
    a54a:	7ba3      	ldrb	r3, [r4, #14]
    a54c:	f06f 0501 	mvn.w	r5, #1
    a550:	f7ff baac 	b.w	9aac <IziPlus_HandleRx+0x14c>
    a554:	0000bec9 	.word	0x0000bec9
    a558:	00005021 	.word	0x00005021
    a55c:	2000f178 	.word	0x2000f178
    a560:	2000ee34 	.word	0x2000ee34
    a564:	00004f91 	.word	0x00004f91
    a568:	0000d1c1 	.word	0x0000d1c1
    a56c:	00008ae5 	.word	0x00008ae5
    a570:	00008a35 	.word	0x00008a35
    a574:	2000f140 	.word	0x2000f140
    a578:	00005069 	.word	0x00005069
    a57c:	0000c051 	.word	0x0000c051
    a580:	000050f9 	.word	0x000050f9
    a584:	0000c005 	.word	0x0000c005
    a588:	000046cd 	.word	0x000046cd
    a58c:	0000d8c5 	.word	0x0000d8c5
    a590:	0000d109 	.word	0x0000d109
    a594:	00005089 	.word	0x00005089
    a598:	00010a69 	.word	0x00010a69
    a59c:	2000568e 	.word	0x2000568e
    a5a0:	0000d0f9 	.word	0x0000d0f9
    a5a4:	0000d929 	.word	0x0000d929
    a5a8:	0000c041 	.word	0x0000c041
    a5ac:	ddccbbaa 	.word	0xddccbbaa
    a5b0:	2000f300 	.word	0x2000f300
    a5b4:	00004c89 	.word	0x00004c89
    a5b8:	0000e225 	.word	0x0000e225
    a5bc:	0001ff00 	.word	0x0001ff00
    a5c0:	8aa9      	ldrh	r1, [r5, #20]
    a5c2:	f8b8 2000 	ldrh.w	r2, [r8]
    a5c6:	4291      	cmp	r1, r2
    a5c8:	d8bf      	bhi.n	a54a <IziPlus_HandleRx+0xbea>
    a5ca:	8c2b      	ldrh	r3, [r5, #32]
    a5cc:	440b      	add	r3, r1
    a5ce:	4293      	cmp	r3, r2
    a5d0:	ddbb      	ble.n	a54a <IziPlus_HandleRx+0xbea>
    a5d2:	68ea      	ldr	r2, [r5, #12]
    a5d4:	4591      	cmp	r9, r2
    a5d6:	d9b8      	bls.n	a54a <IziPlus_HandleRx+0xbea>
    a5d8:	692b      	ldr	r3, [r5, #16]
    a5da:	f5b3 3f00 	cmp.w	r3, #131072	; 0x20000
    a5de:	d2b4      	bcs.n	a54a <IziPlus_HandleRx+0xbea>
    a5e0:	429a      	cmp	r2, r3
    a5e2:	d2b2      	bcs.n	a54a <IziPlus_HandleRx+0xbea>
    a5e4:	7f29      	ldrb	r1, [r5, #28]
    a5e6:	4288      	cmp	r0, r1
    a5e8:	d3af      	bcc.n	a54a <IziPlus_HandleRx+0xbea>
    a5ea:	7fa9      	ldrb	r1, [r5, #30]
    a5ec:	b109      	cbz	r1, a5f2 <IziPlus_HandleRx+0xc92>
    a5ee:	4288      	cmp	r0, r1
    a5f0:	d8ab      	bhi.n	a54a <IziPlus_HandleRx+0xbea>
    a5f2:	f502 31e0 	add.w	r1, r2, #114688	; 0x1c000
    a5f6:	3301      	adds	r3, #1
    a5f8:	f8c7 101a 	str.w	r1, [r7, #26]
    a5fc:	1a9b      	subs	r3, r3, r2
    a5fe:	f894 e00d 	ldrb.w	lr, [r4, #13]
    a602:	7b21      	ldrb	r1, [r4, #12]
    a604:	617b      	str	r3, [r7, #20]
    a606:	4a45      	ldr	r2, [pc, #276]	; (a71c <IziPlus_HandleRx+0xdbc>)
    a608:	4845      	ldr	r0, [pc, #276]	; (a720 <IziPlus_HandleRx+0xdc0>)
    a60a:	f887 e019 	strb.w	lr, [r7, #25]
    a60e:	2301      	movs	r3, #1
    a610:	2581      	movs	r5, #129	; 0x81
    a612:	743d      	strb	r5, [r7, #16]
    a614:	747b      	strb	r3, [r7, #17]
    a616:	4790      	blx	r2
    a618:	4d42      	ldr	r5, [pc, #264]	; (a724 <IziPlus_HandleRx+0xdc4>)
    a61a:	f8b8 1000 	ldrh.w	r1, [r8]
    a61e:	4a40      	ldr	r2, [pc, #256]	; (a720 <IziPlus_HandleRx+0xdc0>)
    a620:	4603      	mov	r3, r0
    a622:	6820      	ldr	r0, [r4, #0]
    a624:	47a8      	blx	r5
    a626:	e436      	b.n	9e96 <IziPlus_HandleRx+0x536>
    a628:	2b40      	cmp	r3, #64	; 0x40
    a62a:	d150      	bne.n	a6ce <IziPlus_HandleRx+0xd6e>
    a62c:	f1b9 0f00 	cmp.w	r9, #0
    a630:	f47f a9af 	bne.w	9992 <IziPlus_HandleRx+0x32>
    a634:	f005 0570 	and.w	r5, r5, #112	; 0x70
    a638:	2d10      	cmp	r5, #16
    a63a:	d00f      	beq.n	a65c <IziPlus_HandleRx+0xcfc>
    a63c:	2d00      	cmp	r5, #0
    a63e:	f47f a9a8 	bne.w	9992 <IziPlus_HandleRx+0x32>
    a642:	8963      	ldrh	r3, [r4, #10]
    a644:	f3c3 030b 	ubfx	r3, r3, #0, #12
    a648:	2b13      	cmp	r3, #19
    a64a:	f77f a9a2 	ble.w	9992 <IziPlus_HandleRx+0x32>
    a64e:	2320      	movs	r3, #32
    a650:	4a35      	ldr	r2, [pc, #212]	; (a728 <IziPlus_HandleRx+0xdc8>)
    a652:	7b21      	ldrb	r1, [r4, #12]
    a654:	4832      	ldr	r0, [pc, #200]	; (a720 <IziPlus_HandleRx+0xdc0>)
    a656:	4d35      	ldr	r5, [pc, #212]	; (a72c <IziPlus_HandleRx+0xdcc>)
    a658:	f7ff ba00 	b.w	9a5c <IziPlus_HandleRx+0xfc>
    a65c:	8963      	ldrh	r3, [r4, #10]
    a65e:	f3c3 030b 	ubfx	r3, r3, #0, #12
    a662:	2b13      	cmp	r3, #19
    a664:	dd06      	ble.n	a674 <IziPlus_HandleRx+0xd14>
    a666:	3b04      	subs	r3, #4
    a668:	b29d      	uxth	r5, r3
    a66a:	2d20      	cmp	r5, #32
    a66c:	d907      	bls.n	a67e <IziPlus_HandleRx+0xd1e>
    a66e:	f06f 0501 	mvn.w	r5, #1
    a672:	e6a5      	b.n	a3c0 <IziPlus_HandleRx+0xa60>
    a674:	2346      	movs	r3, #70	; 0x46
    a676:	7473      	strb	r3, [r6, #17]
    a678:	7c7d      	ldrb	r5, [r7, #17]
    a67a:	f7ff b98d 	b.w	9998 <IziPlus_HandleRx+0x38>
    a67e:	a810      	add	r0, sp, #64	; 0x40
    a680:	462a      	mov	r2, r5
    a682:	f104 0110 	add.w	r1, r4, #16
    a686:	4b2a      	ldr	r3, [pc, #168]	; (a730 <IziPlus_HandleRx+0xdd0>)
    a688:	4798      	blx	r3
    a68a:	2d10      	cmp	r5, #16
    a68c:	d805      	bhi.n	a69a <IziPlus_HandleRx+0xd3a>
    a68e:	4b29      	ldr	r3, [pc, #164]	; (a734 <IziPlus_HandleRx+0xdd4>)
    a690:	4798      	blx	r3
    a692:	232d      	movs	r3, #45	; 0x2d
    a694:	9014      	str	r0, [sp, #80]	; 0x50
    a696:	f8ad 3054 	strh.w	r3, [sp, #84]	; 0x54
    a69a:	a810      	add	r0, sp, #64	; 0x40
    a69c:	4b26      	ldr	r3, [pc, #152]	; (a738 <IziPlus_HandleRx+0xdd8>)
    a69e:	4798      	blx	r3
    a6a0:	2800      	cmp	r0, #0
    a6a2:	db11      	blt.n	a6c8 <IziPlus_HandleRx+0xd68>
    a6a4:	7b21      	ldrb	r1, [r4, #12]
    a6a6:	4b25      	ldr	r3, [pc, #148]	; (a73c <IziPlus_HandleRx+0xddc>)
    a6a8:	481d      	ldr	r0, [pc, #116]	; (a720 <IziPlus_HandleRx+0xdc0>)
    a6aa:	f8df 80a8 	ldr.w	r8, [pc, #168]	; a754 <IziPlus_HandleRx+0xdf4>
    a6ae:	4d1d      	ldr	r5, [pc, #116]	; (a724 <IziPlus_HandleRx+0xdc4>)
    a6b0:	4798      	blx	r3
    a6b2:	f8b8 1000 	ldrh.w	r1, [r8]
    a6b6:	4a1a      	ldr	r2, [pc, #104]	; (a720 <IziPlus_HandleRx+0xdc0>)
    a6b8:	4603      	mov	r3, r0
    a6ba:	6820      	ldr	r0, [r4, #0]
    a6bc:	47a8      	blx	r5
    a6be:	2000      	movs	r0, #0
    a6c0:	4b1f      	ldr	r3, [pc, #124]	; (a740 <IziPlus_HandleRx+0xde0>)
    a6c2:	4798      	blx	r3
    a6c4:	2500      	movs	r5, #0
    a6c6:	e67b      	b.n	a3c0 <IziPlus_HandleRx+0xa60>
    a6c8:	f06f 0503 	mvn.w	r5, #3
    a6cc:	e678      	b.n	a3c0 <IziPlus_HandleRx+0xa60>
    a6ce:	2b0a      	cmp	r3, #10
    a6d0:	f47f adea 	bne.w	a2a8 <IziPlus_HandleRx+0x948>
    a6d4:	f1b9 0f02 	cmp.w	r9, #2
    a6d8:	f47f ade6 	bne.w	a2a8 <IziPlus_HandleRx+0x948>
    a6dc:	f005 0570 	and.w	r5, r5, #112	; 0x70
    a6e0:	2d20      	cmp	r5, #32
    a6e2:	f47f a956 	bne.w	9992 <IziPlus_HandleRx+0x32>
    a6e6:	4b17      	ldr	r3, [pc, #92]	; (a744 <IziPlus_HandleRx+0xde4>)
    a6e8:	4798      	blx	r3
    a6ea:	2800      	cmp	r0, #0
    a6ec:	f47f a951 	bne.w	9992 <IziPlus_HandleRx+0x32>
    a6f0:	f44f 707a 	mov.w	r0, #1000	; 0x3e8
    a6f4:	4b14      	ldr	r3, [pc, #80]	; (a748 <IziPlus_HandleRx+0xde8>)
    a6f6:	4798      	blx	r3
    a6f8:	4b14      	ldr	r3, [pc, #80]	; (a74c <IziPlus_HandleRx+0xdec>)
    a6fa:	4648      	mov	r0, r9
    a6fc:	4798      	blx	r3
    a6fe:	8a23      	ldrh	r3, [r4, #16]
    a700:	2b63      	cmp	r3, #99	; 0x63
    a702:	f67f a946 	bls.w	9992 <IziPlus_HandleRx+0x32>
    a706:	4b12      	ldr	r3, [pc, #72]	; (a750 <IziPlus_HandleRx+0xdf0>)
    a708:	4798      	blx	r3
    a70a:	7c7d      	ldrb	r5, [r7, #17]
    a70c:	f7ff b942 	b.w	9994 <IziPlus_HandleRx+0x34>
    a710:	7ba3      	ldrb	r3, [r4, #14]
    a712:	f8df 8040 	ldr.w	r8, [pc, #64]	; a754 <IziPlus_HandleRx+0xdf4>
    a716:	f7ff b9cb 	b.w	9ab0 <IziPlus_HandleRx+0x150>
    a71a:	bf00      	nop
    a71c:	000050d1 	.word	0x000050d1
    a720:	2000f178 	.word	0x2000f178
    a724:	00004c89 	.word	0x00004c89
    a728:	00804020 	.word	0x00804020
    a72c:	00005145 	.word	0x00005145
    a730:	00010a69 	.word	0x00010a69
    a734:	000052a9 	.word	0x000052a9
    a738:	00005a59 	.word	0x00005a59
    a73c:	00005125 	.word	0x00005125
    a740:	0000d0f9 	.word	0x0000d0f9
    a744:	00007091 	.word	0x00007091
    a748:	000070a1 	.word	0x000070a1
    a74c:	0000ef31 	.word	0x0000ef31
    a750:	00006225 	.word	0x00006225
    a754:	2000f300 	.word	0x2000f300

0000a758 <IziPlus_Init>:
    a758:	b5f0      	push	{r4, r5, r6, r7, lr}
    a75a:	2203      	movs	r2, #3
    a75c:	b083      	sub	sp, #12
    a75e:	2100      	movs	r1, #0
    a760:	2001      	movs	r0, #1
    a762:	4b22      	ldr	r3, [pc, #136]	; (a7ec <IziPlus_Init+0x94>)
    a764:	4d22      	ldr	r5, [pc, #136]	; (a7f0 <IziPlus_Init+0x98>)
    a766:	4798      	blx	r3
    a768:	f8c5 0120 	str.w	r0, [r5, #288]	; 0x120
    a76c:	b120      	cbz	r0, a778 <IziPlus_Init+0x20>
    a76e:	f8d5 7128 	ldr.w	r7, [r5, #296]	; 0x128
    a772:	b117      	cbz	r7, a77a <IziPlus_Init+0x22>
    a774:	b003      	add	sp, #12
    a776:	bdf0      	pop	{r4, r5, r6, r7, pc}
    a778:	e7fe      	b.n	a778 <IziPlus_Init+0x20>
    a77a:	f505 7294 	add.w	r2, r5, #296	; 0x128
    a77e:	2304      	movs	r3, #4
    a780:	9201      	str	r2, [sp, #4]
    a782:	9300      	str	r3, [sp, #0]
    a784:	f44f 7200 	mov.w	r2, #512	; 0x200
    a788:	463b      	mov	r3, r7
    a78a:	491a      	ldr	r1, [pc, #104]	; (a7f4 <IziPlus_Init+0x9c>)
    a78c:	481a      	ldr	r0, [pc, #104]	; (a7f8 <IziPlus_Init+0xa0>)
    a78e:	4c1b      	ldr	r4, [pc, #108]	; (a7fc <IziPlus_Init+0xa4>)
    a790:	47a0      	blx	r4
    a792:	2801      	cmp	r0, #1
    a794:	4606      	mov	r6, r0
    a796:	d000      	beq.n	a79a <IziPlus_Init+0x42>
    a798:	e7fe      	b.n	a798 <IziPlus_Init+0x40>
    a79a:	f8d5 412c 	ldr.w	r4, [r5, #300]	; 0x12c
    a79e:	b15c      	cbz	r4, a7b8 <IziPlus_Init+0x60>
    a7a0:	4b17      	ldr	r3, [pc, #92]	; (a800 <IziPlus_Init+0xa8>)
    a7a2:	4798      	blx	r3
    a7a4:	9700      	str	r7, [sp, #0]
    a7a6:	4602      	mov	r2, r0
    a7a8:	463b      	mov	r3, r7
    a7aa:	4620      	mov	r0, r4
    a7ac:	4631      	mov	r1, r6
    a7ae:	4c15      	ldr	r4, [pc, #84]	; (a804 <IziPlus_Init+0xac>)
    a7b0:	47a0      	blx	r4
    a7b2:	2801      	cmp	r0, #1
    a7b4:	d0de      	beq.n	a774 <IziPlus_Init+0x1c>
    a7b6:	e7fe      	b.n	a7b6 <IziPlus_Init+0x5e>
    a7b8:	4b13      	ldr	r3, [pc, #76]	; (a808 <IziPlus_Init+0xb0>)
    a7ba:	9300      	str	r3, [sp, #0]
    a7bc:	4602      	mov	r2, r0
    a7be:	4f13      	ldr	r7, [pc, #76]	; (a80c <IziPlus_Init+0xb4>)
    a7c0:	4813      	ldr	r0, [pc, #76]	; (a810 <IziPlus_Init+0xb8>)
    a7c2:	4623      	mov	r3, r4
    a7c4:	2164      	movs	r1, #100	; 0x64
    a7c6:	47b8      	blx	r7
    a7c8:	4607      	mov	r7, r0
    a7ca:	f8c5 012c 	str.w	r0, [r5, #300]	; 0x12c
    a7ce:	b158      	cbz	r0, a7e8 <IziPlus_Init+0x90>
    a7d0:	4b0b      	ldr	r3, [pc, #44]	; (a800 <IziPlus_Init+0xa8>)
    a7d2:	4798      	blx	r3
    a7d4:	9400      	str	r4, [sp, #0]
    a7d6:	4602      	mov	r2, r0
    a7d8:	4623      	mov	r3, r4
    a7da:	4631      	mov	r1, r6
    a7dc:	4638      	mov	r0, r7
    a7de:	4c09      	ldr	r4, [pc, #36]	; (a804 <IziPlus_Init+0xac>)
    a7e0:	47a0      	blx	r4
    a7e2:	2801      	cmp	r0, #1
    a7e4:	d0c6      	beq.n	a774 <IziPlus_Init+0x1c>
    a7e6:	e7fe      	b.n	a7e6 <IziPlus_Init+0x8e>
    a7e8:	e7fe      	b.n	a7e8 <IziPlus_Init+0x90>
    a7ea:	bf00      	nop
    a7ec:	0000e1cd 	.word	0x0000e1cd
    a7f0:	20005670 	.word	0x20005670
    a7f4:	00011a34 	.word	0x00011a34
    a7f8:	0000a931 	.word	0x0000a931
    a7fc:	0000ea2d 	.word	0x0000ea2d
    a800:	0000ece5 	.word	0x0000ece5
    a804:	0000f5b1 	.word	0x0000f5b1
    a808:	000098f1 	.word	0x000098f1
    a80c:	0000f55d 	.word	0x0000f55d
    a810:	00011a3c 	.word	0x00011a3c

0000a814 <IziPlus_LightDataOk>:
    a814:	4b04      	ldr	r3, [pc, #16]	; (a828 <IziPlus_LightDataOk+0x14>)
    a816:	f893 0124 	ldrb.w	r0, [r3, #292]	; 0x124
    a81a:	b120      	cbz	r0, a826 <IziPlus_LightDataOk+0x12>
    a81c:	4b03      	ldr	r3, [pc, #12]	; (a82c <IziPlus_LightDataOk+0x18>)
    a81e:	8818      	ldrh	r0, [r3, #0]
    a820:	3000      	adds	r0, #0
    a822:	bf18      	it	ne
    a824:	2001      	movne	r0, #1
    a826:	4770      	bx	lr
    a828:	20005670 	.word	0x20005670
    a82c:	20002a06 	.word	0x20002a06

0000a830 <IziPlus_IdentifyLocal>:
    a830:	4b02      	ldr	r3, [pc, #8]	; (a83c <IziPlus_IdentifyLocal+0xc>)
    a832:	2201      	movs	r2, #1
    a834:	f883 2125 	strb.w	r2, [r3, #293]	; 0x125
    a838:	4770      	bx	lr
    a83a:	bf00      	nop
    a83c:	20005670 	.word	0x20005670

0000a840 <IziPlus_Powerup>:
    a840:	b5f0      	push	{r4, r5, r6, r7, lr}
    a842:	b083      	sub	sp, #12
    a844:	2800      	cmp	r0, #0
    a846:	d034      	beq.n	a8b2 <IziPlus_Powerup+0x72>
    a848:	4605      	mov	r5, r0
    a84a:	4b2b      	ldr	r3, [pc, #172]	; (a8f8 <IziPlus_Powerup+0xb8>)
    a84c:	4c2b      	ldr	r4, [pc, #172]	; (a8fc <IziPlus_Powerup+0xbc>)
    a84e:	4f2c      	ldr	r7, [pc, #176]	; (a900 <IziPlus_Powerup+0xc0>)
    a850:	2000      	movs	r0, #0
    a852:	4798      	blx	r3
    a854:	2d01      	cmp	r5, #1
    a856:	f04f 03f8 	mov.w	r3, #248	; 0xf8
    a85a:	bf8c      	ite	hi
    a85c:	2646      	movhi	r6, #70	; 0x46
    a85e:	2600      	movls	r6, #0
    a860:	2503      	movs	r5, #3
    a862:	461a      	mov	r2, r3
    a864:	4630      	mov	r0, r6
    a866:	4629      	mov	r1, r5
    a868:	f884 3132 	strb.w	r3, [r4, #306]	; 0x132
    a86c:	f884 6130 	strb.w	r6, [r4, #304]	; 0x130
    a870:	f884 5131 	strb.w	r5, [r4, #305]	; 0x131
    a874:	47b8      	blx	r7
    a876:	4b23      	ldr	r3, [pc, #140]	; (a904 <IziPlus_Powerup+0xc4>)
    a878:	f884 0133 	strb.w	r0, [r4, #307]	; 0x133
    a87c:	2001      	movs	r0, #1
    a87e:	4798      	blx	r3
    a880:	4b21      	ldr	r3, [pc, #132]	; (a908 <IziPlus_Powerup+0xc8>)
    a882:	4798      	blx	r3
    a884:	f894 0130 	ldrb.w	r0, [r4, #304]	; 0x130
    a888:	4b20      	ldr	r3, [pc, #128]	; (a90c <IziPlus_Powerup+0xcc>)
    a88a:	4798      	blx	r3
    a88c:	4b20      	ldr	r3, [pc, #128]	; (a910 <IziPlus_Powerup+0xd0>)
    a88e:	4605      	mov	r5, r0
    a890:	f894 0130 	ldrb.w	r0, [r4, #304]	; 0x130
    a894:	4798      	blx	r3
    a896:	4b1f      	ldr	r3, [pc, #124]	; (a914 <IziPlus_Powerup+0xd4>)
    a898:	4606      	mov	r6, r0
    a89a:	f894 0131 	ldrb.w	r0, [r4, #305]	; 0x131
    a89e:	4c1e      	ldr	r4, [pc, #120]	; (a918 <IziPlus_Powerup+0xd8>)
    a8a0:	4798      	blx	r3
    a8a2:	4633      	mov	r3, r6
    a8a4:	9000      	str	r0, [sp, #0]
    a8a6:	462a      	mov	r2, r5
    a8a8:	491c      	ldr	r1, [pc, #112]	; (a91c <IziPlus_Powerup+0xdc>)
    a8aa:	481d      	ldr	r0, [pc, #116]	; (a920 <IziPlus_Powerup+0xe0>)
    a8ac:	47a0      	blx	r4
    a8ae:	b003      	add	sp, #12
    a8b0:	bdf0      	pop	{r4, r5, r6, r7, pc}
    a8b2:	4b1c      	ldr	r3, [pc, #112]	; (a924 <IziPlus_Powerup+0xe4>)
    a8b4:	4c11      	ldr	r4, [pc, #68]	; (a8fc <IziPlus_Powerup+0xbc>)
    a8b6:	4798      	blx	r3
    a8b8:	4b1b      	ldr	r3, [pc, #108]	; (a928 <IziPlus_Powerup+0xe8>)
    a8ba:	f994 5133 	ldrsb.w	r5, [r4, #307]	; 0x133
    a8be:	681b      	ldr	r3, [r3, #0]
    a8c0:	2d00      	cmp	r5, #0
    a8c2:	f893 0034 	ldrb.w	r0, [r3, #52]	; 0x34
    a8c6:	f893 1035 	ldrb.w	r1, [r3, #53]	; 0x35
    a8ca:	f893 203f 	ldrb.w	r2, [r3, #63]	; 0x3f
    a8ce:	f884 0130 	strb.w	r0, [r4, #304]	; 0x130
    a8d2:	f884 1131 	strb.w	r1, [r4, #305]	; 0x131
    a8d6:	f884 2132 	strb.w	r2, [r4, #306]	; 0x132
    a8da:	db07      	blt.n	a8ec <IziPlus_Powerup+0xac>
    a8dc:	4b13      	ldr	r3, [pc, #76]	; (a92c <IziPlus_Powerup+0xec>)
    a8de:	4798      	blx	r3
    a8e0:	f884 0133 	strb.w	r0, [r4, #307]	; 0x133
    a8e4:	2000      	movs	r0, #0
    a8e6:	4b07      	ldr	r3, [pc, #28]	; (a904 <IziPlus_Powerup+0xc4>)
    a8e8:	4798      	blx	r3
    a8ea:	e7c9      	b.n	a880 <IziPlus_Powerup+0x40>
    a8ec:	4b04      	ldr	r3, [pc, #16]	; (a900 <IziPlus_Powerup+0xc0>)
    a8ee:	4798      	blx	r3
    a8f0:	f884 0133 	strb.w	r0, [r4, #307]	; 0x133
    a8f4:	e7f6      	b.n	a8e4 <IziPlus_Powerup+0xa4>
    a8f6:	bf00      	nop
    a8f8:	0000d17d 	.word	0x0000d17d
    a8fc:	20005670 	.word	0x20005670
    a900:	00005835 	.word	0x00005835
    a904:	00005489 	.word	0x00005489
    a908:	0000d1e9 	.word	0x0000d1e9
    a90c:	0000577d 	.word	0x0000577d
    a910:	0000578d 	.word	0x0000578d
    a914:	000057cd 	.word	0x000057cd
    a918:	00010a91 	.word	0x00010a91
    a91c:	00011a4c 	.word	0x00011a4c
    a920:	2000f280 	.word	0x2000f280
    a924:	0000d195 	.word	0x0000d195
    a928:	2000ee34 	.word	0x2000ee34
    a92c:	000057f1 	.word	0x000057f1

0000a930 <IziPlus_Task>:
    a930:	e92d 4ff0 	stmdb	sp!, {r4, r5, r6, r7, r8, r9, sl, fp, lr}
    a934:	2000      	movs	r0, #0
    a936:	b083      	sub	sp, #12
    a938:	4b9c      	ldr	r3, [pc, #624]	; (abac <IziPlus_Task+0x27c>)
    a93a:	4d9d      	ldr	r5, [pc, #628]	; (abb0 <IziPlus_Task+0x280>)
    a93c:	4798      	blx	r3
    a93e:	24c8      	movs	r4, #200	; 0xc8
    a940:	e004      	b.n	a94c <IziPlus_Task+0x1c>
    a942:	2005      	movs	r0, #5
    a944:	4b9b      	ldr	r3, [pc, #620]	; (abb4 <IziPlus_Task+0x284>)
    a946:	4798      	blx	r3
    a948:	3c01      	subs	r4, #1
    a94a:	d002      	beq.n	a952 <IziPlus_Task+0x22>
    a94c:	47a8      	blx	r5
    a94e:	2800      	cmp	r0, #0
    a950:	d0f7      	beq.n	a942 <IziPlus_Task+0x12>
    a952:	4c99      	ldr	r4, [pc, #612]	; (abb8 <IziPlus_Task+0x288>)
    a954:	4b99      	ldr	r3, [pc, #612]	; (abbc <IziPlus_Task+0x28c>)
    a956:	4d9a      	ldr	r5, [pc, #616]	; (abc0 <IziPlus_Task+0x290>)
    a958:	f8df 82cc 	ldr.w	r8, [pc, #716]	; ac28 <IziPlus_Task+0x2f8>
    a95c:	f8df b2cc 	ldr.w	fp, [pc, #716]	; ac2c <IziPlus_Task+0x2fc>
    a960:	4e98      	ldr	r6, [pc, #608]	; (abc4 <IziPlus_Task+0x294>)
    a962:	f8df a2cc 	ldr.w	sl, [pc, #716]	; ac30 <IziPlus_Task+0x300>
    a966:	4798      	blx	r3
    a968:	2314      	movs	r3, #20
    a96a:	2200      	movs	r2, #0
    a96c:	2001      	movs	r0, #1
    a96e:	7063      	strb	r3, [r4, #1]
    a970:	4b95      	ldr	r3, [pc, #596]	; (abc8 <IziPlus_Task+0x298>)
    a972:	7322      	strb	r2, [r4, #12]
    a974:	4798      	blx	r3
    a976:	4a95      	ldr	r2, [pc, #596]	; (abcc <IziPlus_Task+0x29c>)
    a978:	4b95      	ldr	r3, [pc, #596]	; (abd0 <IziPlus_Task+0x2a0>)
    a97a:	8810      	ldrh	r0, [r2, #0]
    a97c:	2201      	movs	r2, #1
    a97e:	f884 2134 	strb.w	r2, [r4, #308]	; 0x134
    a982:	4798      	blx	r3
    a984:	4893      	ldr	r0, [pc, #588]	; (abd4 <IziPlus_Task+0x2a4>)
    a986:	4b94      	ldr	r3, [pc, #592]	; (abd8 <IziPlus_Task+0x2a8>)
    a988:	4798      	blx	r3
    a98a:	4894      	ldr	r0, [pc, #592]	; (abdc <IziPlus_Task+0x2ac>)
    a98c:	4b94      	ldr	r3, [pc, #592]	; (abe0 <IziPlus_Task+0x2b0>)
    a98e:	4798      	blx	r3
    a990:	4b94      	ldr	r3, [pc, #592]	; (abe4 <IziPlus_Task+0x2b4>)
    a992:	4798      	blx	r3
    a994:	2341      	movs	r3, #65	; 0x41
    a996:	746b      	strb	r3, [r5, #17]
    a998:	e037      	b.n	aa0a <IziPlus_Task+0xda>
    a99a:	f1b9 0f02 	cmp.w	r9, #2
    a99e:	f000 80cd 	beq.w	ab3c <IziPlus_Task+0x20c>
    a9a2:	f04f 0303 	mov.w	r3, #3
    a9a6:	7323      	strb	r3, [r4, #12]
    a9a8:	2000      	movs	r0, #0
    a9aa:	4b8f      	ldr	r3, [pc, #572]	; (abe8 <IziPlus_Task+0x2b8>)
    a9ac:	4798      	blx	r3
    a9ae:	4b8f      	ldr	r3, [pc, #572]	; (abec <IziPlus_Task+0x2bc>)
    a9b0:	4798      	blx	r3
    a9b2:	4b85      	ldr	r3, [pc, #532]	; (abc8 <IziPlus_Task+0x298>)
    a9b4:	2000      	movs	r0, #0
    a9b6:	4798      	blx	r3
    a9b8:	2300      	movs	r3, #0
    a9ba:	f884 3134 	strb.w	r3, [r4, #308]	; 0x134
    a9be:	2342      	movs	r3, #66	; 0x42
    a9c0:	2114      	movs	r1, #20
    a9c2:	f8d4 0120 	ldr.w	r0, [r4, #288]	; 0x120
    a9c6:	746b      	strb	r3, [r5, #17]
    a9c8:	47d8      	blx	fp
    a9ca:	47b0      	blx	r6
    a9cc:	7c63      	ldrb	r3, [r4, #17]
    a9ce:	2b01      	cmp	r3, #1
    a9d0:	4681      	mov	r9, r0
    a9d2:	d032      	beq.n	aa3a <IziPlus_Task+0x10a>
    a9d4:	4b86      	ldr	r3, [pc, #536]	; (abf0 <IziPlus_Task+0x2c0>)
    a9d6:	881b      	ldrh	r3, [r3, #0]
    a9d8:	2243      	movs	r2, #67	; 0x43
    a9da:	746a      	strb	r2, [r5, #17]
    a9dc:	b92b      	cbnz	r3, a9ea <IziPlus_Task+0xba>
    a9de:	47b0      	blx	r6
    a9e0:	f242 7310 	movw	r3, #10000	; 0x2710
    a9e4:	4298      	cmp	r0, r3
    a9e6:	f200 8098 	bhi.w	ab1a <IziPlus_Task+0x1ea>
    a9ea:	2003      	movs	r0, #3
    a9ec:	47c0      	blx	r8
    a9ee:	4b80      	ldr	r3, [pc, #512]	; (abf0 <IziPlus_Task+0x2c0>)
    a9f0:	885b      	ldrh	r3, [r3, #2]
    a9f2:	b923      	cbnz	r3, a9fe <IziPlus_Task+0xce>
    a9f4:	47b0      	blx	r6
    a9f6:	f247 5330 	movw	r3, #30000	; 0x7530
    a9fa:	4298      	cmp	r0, r3
    a9fc:	d87a      	bhi.n	aaf4 <IziPlus_Task+0x1c4>
    a9fe:	2009      	movs	r0, #9
    aa00:	47c0      	blx	r8
    aa02:	f8da 3000 	ldr.w	r3, [sl]
    aa06:	071b      	lsls	r3, r3, #28
    aa08:	d47b      	bmi.n	ab02 <IziPlus_Task+0x1d2>
    aa0a:	f894 900c 	ldrb.w	r9, [r4, #12]
    aa0e:	f1b9 0f03 	cmp.w	r9, #3
    aa12:	d02c      	beq.n	aa6e <IziPlus_Task+0x13e>
    aa14:	7863      	ldrb	r3, [r4, #1]
    aa16:	2b00      	cmp	r3, #0
    aa18:	d0bf      	beq.n	a99a <IziPlus_Task+0x6a>
    aa1a:	2b0a      	cmp	r3, #10
    aa1c:	d8cf      	bhi.n	a9be <IziPlus_Task+0x8e>
    aa1e:	f1b9 0f01 	cmp.w	r9, #1
    aa22:	d0cc      	beq.n	a9be <IziPlus_Task+0x8e>
    aa24:	f894 3134 	ldrb.w	r3, [r4, #308]	; 0x134
    aa28:	2b02      	cmp	r3, #2
    aa2a:	d0c8      	beq.n	a9be <IziPlus_Task+0x8e>
    aa2c:	4b66      	ldr	r3, [pc, #408]	; (abc8 <IziPlus_Task+0x298>)
    aa2e:	2002      	movs	r0, #2
    aa30:	4798      	blx	r3
    aa32:	2301      	movs	r3, #1
    aa34:	f884 3134 	strb.w	r3, [r4, #308]	; 0x134
    aa38:	e7c1      	b.n	a9be <IziPlus_Task+0x8e>
    aa3a:	7c23      	ldrb	r3, [r4, #16]
    aa3c:	2248      	movs	r2, #72	; 0x48
    aa3e:	2b80      	cmp	r3, #128	; 0x80
    aa40:	746a      	strb	r2, [r5, #17]
    aa42:	f000 808d 	beq.w	ab60 <IziPlus_Task+0x230>
    aa46:	2b81      	cmp	r3, #129	; 0x81
    aa48:	d06b      	beq.n	ab22 <IziPlus_Task+0x1f2>
    aa4a:	3b20      	subs	r3, #32
    aa4c:	2b02      	cmp	r3, #2
    aa4e:	d8c1      	bhi.n	a9d4 <IziPlus_Task+0xa4>
    aa50:	4b68      	ldr	r3, [pc, #416]	; (abf4 <IziPlus_Task+0x2c4>)
    aa52:	4798      	blx	r3
    aa54:	4b68      	ldr	r3, [pc, #416]	; (abf8 <IziPlus_Task+0x2c8>)
    aa56:	4798      	blx	r3
    aa58:	2800      	cmp	r0, #0
    aa5a:	d06c      	beq.n	ab36 <IziPlus_Task+0x206>
    aa5c:	2300      	movs	r3, #0
    aa5e:	7623      	strb	r3, [r4, #24]
    aa60:	2302      	movs	r3, #2
    aa62:	7463      	strb	r3, [r4, #17]
    aa64:	47b0      	blx	r6
    aa66:	eba0 0009 	sub.w	r0, r0, r9
    aa6a:	8260      	strh	r0, [r4, #18]
    aa6c:	e7b2      	b.n	a9d4 <IziPlus_Task+0xa4>
    aa6e:	f8b4 3126 	ldrh.w	r3, [r4, #294]	; 0x126
    aa72:	2b01      	cmp	r3, #1
    aa74:	d066      	beq.n	ab44 <IziPlus_Task+0x214>
    aa76:	f994 3133 	ldrsb.w	r3, [r4, #307]	; 0x133
    aa7a:	2b00      	cmp	r3, #0
    aa7c:	db99      	blt.n	a9b2 <IziPlus_Task+0x82>
    aa7e:	f894 3124 	ldrb.w	r3, [r4, #292]	; 0x124
    aa82:	b1ab      	cbz	r3, aab0 <IziPlus_Task+0x180>
    aa84:	4b5a      	ldr	r3, [pc, #360]	; (abf0 <IziPlus_Task+0x2c0>)
    aa86:	881b      	ldrh	r3, [r3, #0]
    aa88:	b193      	cbz	r3, aab0 <IziPlus_Task+0x180>
    aa8a:	2200      	movs	r2, #0
    aa8c:	f8b4 3138 	ldrh.w	r3, [r4, #312]	; 0x138
    aa90:	f8a4 2136 	strh.w	r2, [r4, #310]	; 0x136
    aa94:	2201      	movs	r2, #1
    aa96:	f884 2135 	strb.w	r2, [r4, #309]	; 0x135
    aa9a:	2b00      	cmp	r3, #0
    aa9c:	d08f      	beq.n	a9be <IziPlus_Task+0x8e>
    aa9e:	3b01      	subs	r3, #1
    aaa0:	b29b      	uxth	r3, r3
    aaa2:	f8a4 3138 	strh.w	r3, [r4, #312]	; 0x138
    aaa6:	2b00      	cmp	r3, #0
    aaa8:	d189      	bne.n	a9be <IziPlus_Task+0x8e>
    aaaa:	2002      	movs	r0, #2
    aaac:	47c0      	blx	r8
    aaae:	e786      	b.n	a9be <IziPlus_Task+0x8e>
    aab0:	f8b4 3136 	ldrh.w	r3, [r4, #310]	; 0x136
    aab4:	3301      	adds	r3, #1
    aab6:	b29b      	uxth	r3, r3
    aab8:	2bfa      	cmp	r3, #250	; 0xfa
    aaba:	f8a4 3136 	strh.w	r3, [r4, #310]	; 0x136
    aabe:	d804      	bhi.n	aaca <IziPlus_Task+0x19a>
    aac0:	f894 3135 	ldrb.w	r3, [r4, #309]	; 0x135
    aac4:	2b00      	cmp	r3, #0
    aac6:	f43f af7a 	beq.w	a9be <IziPlus_Task+0x8e>
    aaca:	f894 0131 	ldrb.w	r0, [r4, #305]	; 0x131
    aace:	4b4b      	ldr	r3, [pc, #300]	; (abfc <IziPlus_Task+0x2cc>)
    aad0:	4798      	blx	r3
    aad2:	2800      	cmp	r0, #0
    aad4:	d15c      	bne.n	ab90 <IziPlus_Task+0x260>
    aad6:	2000      	movs	r0, #0
    aad8:	4b3b      	ldr	r3, [pc, #236]	; (abc8 <IziPlus_Task+0x298>)
    aada:	4798      	blx	r3
    aadc:	4b48      	ldr	r3, [pc, #288]	; (ac00 <IziPlus_Task+0x2d0>)
    aade:	2002      	movs	r0, #2
    aae0:	4798      	blx	r3
    aae2:	23c8      	movs	r3, #200	; 0xc8
    aae4:	f8a4 3138 	strh.w	r3, [r4, #312]	; 0x138
    aae8:	2300      	movs	r3, #0
    aaea:	f8a4 3136 	strh.w	r3, [r4, #310]	; 0x136
    aaee:	f884 3135 	strb.w	r3, [r4, #309]	; 0x135
    aaf2:	e764      	b.n	a9be <IziPlus_Task+0x8e>
    aaf4:	4b42      	ldr	r3, [pc, #264]	; (ac00 <IziPlus_Task+0x2d0>)
    aaf6:	2009      	movs	r0, #9
    aaf8:	4798      	blx	r3
    aafa:	f8da 3000 	ldr.w	r3, [sl]
    aafe:	071b      	lsls	r3, r3, #28
    ab00:	d583      	bpl.n	aa0a <IziPlus_Task+0xda>
    ab02:	4b40      	ldr	r3, [pc, #256]	; (ac04 <IziPlus_Task+0x2d4>)
    ab04:	2103      	movs	r1, #3
    ab06:	f44f 7000 	mov.w	r0, #512	; 0x200
    ab0a:	4798      	blx	r3
    ab0c:	f8da 3000 	ldr.w	r3, [sl]
    ab10:	f023 0308 	bic.w	r3, r3, #8
    ab14:	f8ca 3000 	str.w	r3, [sl]
    ab18:	e777      	b.n	aa0a <IziPlus_Task+0xda>
    ab1a:	2003      	movs	r0, #3
    ab1c:	4b38      	ldr	r3, [pc, #224]	; (ac00 <IziPlus_Task+0x2d0>)
    ab1e:	4798      	blx	r3
    ab20:	e765      	b.n	a9ee <IziPlus_Task+0xbe>
    ab22:	4b39      	ldr	r3, [pc, #228]	; (ac08 <IziPlus_Task+0x2d8>)
    ab24:	6961      	ldr	r1, [r4, #20]
    ab26:	f8d4 001a 	ldr.w	r0, [r4, #26]
    ab2a:	2200      	movs	r2, #0
    ab2c:	4798      	blx	r3
    ab2e:	4b37      	ldr	r3, [pc, #220]	; (ac0c <IziPlus_Task+0x2dc>)
    ab30:	689b      	ldr	r3, [r3, #8]
    ab32:	4298      	cmp	r0, r3
    ab34:	d092      	beq.n	aa5c <IziPlus_Task+0x12c>
    ab36:	23fd      	movs	r3, #253	; 0xfd
    ab38:	7623      	strb	r3, [r4, #24]
    ab3a:	e791      	b.n	aa60 <IziPlus_Task+0x130>
    ab3c:	2014      	movs	r0, #20
    ab3e:	4b1d      	ldr	r3, [pc, #116]	; (abb4 <IziPlus_Task+0x284>)
    ab40:	4798      	blx	r3
    ab42:	e72e      	b.n	a9a2 <IziPlus_Task+0x72>
    ab44:	9301      	str	r3, [sp, #4]
    ab46:	2005      	movs	r0, #5
    ab48:	4b31      	ldr	r3, [pc, #196]	; (ac10 <IziPlus_Task+0x2e0>)
    ab4a:	4f32      	ldr	r7, [pc, #200]	; (ac14 <IziPlus_Task+0x2e4>)
    ab4c:	4798      	blx	r3
    ab4e:	9b01      	ldr	r3, [sp, #4]
    ab50:	4648      	mov	r0, r9
    ab52:	2202      	movs	r2, #2
    ab54:	2108      	movs	r1, #8
    ab56:	47b8      	blx	r7
    ab58:	2300      	movs	r3, #0
    ab5a:	f8a4 3126 	strh.w	r3, [r4, #294]	; 0x126
    ab5e:	e72e      	b.n	a9be <IziPlus_Task+0x8e>
    ab60:	8aa3      	ldrh	r3, [r4, #20]
    ab62:	f8d4 101a 	ldr.w	r1, [r4, #26]
    ab66:	4a2c      	ldr	r2, [pc, #176]	; (ac18 <IziPlus_Task+0x2e8>)
    ab68:	482c      	ldr	r0, [pc, #176]	; (ac1c <IziPlus_Task+0x2ec>)
    ab6a:	4f2d      	ldr	r7, [pc, #180]	; (ac20 <IziPlus_Task+0x2f0>)
    ab6c:	47b8      	blx	r7
    ab6e:	2800      	cmp	r0, #0
    ab70:	bfb4      	ite	lt
    ab72:	23fc      	movlt	r3, #252	; 0xfc
    ab74:	2300      	movge	r3, #0
    ab76:	7623      	strb	r3, [r4, #24]
    ab78:	7e63      	ldrb	r3, [r4, #25]
    ab7a:	f013 0f0f 	tst.w	r3, #15
    ab7e:	bf0c      	ite	eq
    ab80:	2302      	moveq	r3, #2
    ab82:	2300      	movne	r3, #0
    ab84:	7463      	strb	r3, [r4, #17]
    ab86:	47b0      	blx	r6
    ab88:	eba0 0009 	sub.w	r0, r0, r9
    ab8c:	8260      	strh	r0, [r4, #18]
    ab8e:	e721      	b.n	a9d4 <IziPlus_Task+0xa4>
    ab90:	f894 0130 	ldrb.w	r0, [r4, #304]	; 0x130
    ab94:	4b23      	ldr	r3, [pc, #140]	; (ac24 <IziPlus_Task+0x2f4>)
    ab96:	4798      	blx	r3
    ab98:	2800      	cmp	r0, #0
    ab9a:	d09c      	beq.n	aad6 <IziPlus_Task+0x1a6>
    ab9c:	f894 3135 	ldrb.w	r3, [r4, #309]	; 0x135
    aba0:	2b00      	cmp	r3, #0
    aba2:	d0a1      	beq.n	aae8 <IziPlus_Task+0x1b8>
    aba4:	2000      	movs	r0, #0
    aba6:	4b08      	ldr	r3, [pc, #32]	; (abc8 <IziPlus_Task+0x298>)
    aba8:	4798      	blx	r3
    abaa:	e79d      	b.n	aae8 <IziPlus_Task+0x1b8>
    abac:	0000d17d 	.word	0x0000d17d
    abb0:	0000adad 	.word	0x0000adad
    abb4:	0000ef31 	.word	0x0000ef31
    abb8:	20005670 	.word	0x20005670
    abbc:	000059f5 	.word	0x000059f5
    abc0:	2001ff00 	.word	0x2001ff00
    abc4:	0000ece5 	.word	0x0000ece5
    abc8:	0000a841 	.word	0x0000a841
    abcc:	2000f300 	.word	0x2000f300
    abd0:	000049e5 	.word	0x000049e5
    abd4:	00009961 	.word	0x00009961
    abd8:	00004a4d 	.word	0x00004a4d
    abdc:	000098ed 	.word	0x000098ed
    abe0:	00004a59 	.word	0x00004a59
    abe4:	0000c57d 	.word	0x0000c57d
    abe8:	0000d195 	.word	0x0000d195
    abec:	0000d1e9 	.word	0x0000d1e9
    abf0:	20002a06 	.word	0x20002a06
    abf4:	0000606d 	.word	0x0000606d
    abf8:	00006075 	.word	0x00006075
    abfc:	000057a5 	.word	0x000057a5
    ac00:	0000d0a5 	.word	0x0000d0a5
    ac04:	0000c651 	.word	0x0000c651
    ac08:	0000fdbd 	.word	0x0000fdbd
    ac0c:	0003bf00 	.word	0x0003bf00
    ac10:	00005989 	.word	0x00005989
    ac14:	0000d1c1 	.word	0x0000d1c1
    ac18:	2000568e 	.word	0x2000568e
    ac1c:	2000f140 	.word	0x2000f140
    ac20:	00008a35 	.word	0x00008a35
    ac24:	00005755 	.word	0x00005755
    ac28:	0000d0b5 	.word	0x0000d0b5
    ac2c:	0000e731 	.word	0x0000e731
    ac30:	2000f9b4 	.word	0x2000f9b4

0000ac34 <IziPlus_Module_SetConfigValue.part.1>:
    ac34:	b538      	push	{r3, r4, r5, lr}
    ac36:	4604      	mov	r4, r0
    ac38:	4b28      	ldr	r3, [pc, #160]	; (acdc <IziPlus_Module_SetConfigValue.part.1+0xa8>)
    ac3a:	460d      	mov	r5, r1
    ac3c:	4798      	blx	r3
    ac3e:	2c1a      	cmp	r4, #26
    ac40:	d016      	beq.n	ac70 <IziPlus_Module_SetConfigValue.part.1+0x3c>
    ac42:	2c22      	cmp	r4, #34	; 0x22
    ac44:	d019      	beq.n	ac7a <IziPlus_Module_SetConfigValue.part.1+0x46>
    ac46:	2c23      	cmp	r4, #35	; 0x23
    ac48:	d01c      	beq.n	ac84 <IziPlus_Module_SetConfigValue.part.1+0x50>
    ac4a:	2c2d      	cmp	r4, #45	; 0x2d
    ac4c:	d00b      	beq.n	ac66 <IziPlus_Module_SetConfigValue.part.1+0x32>
    ac4e:	2c2e      	cmp	r4, #46	; 0x2e
    ac50:	d01d      	beq.n	ac8e <IziPlus_Module_SetConfigValue.part.1+0x5a>
    ac52:	2c2f      	cmp	r4, #47	; 0x2f
    ac54:	d020      	beq.n	ac98 <IziPlus_Module_SetConfigValue.part.1+0x64>
    ac56:	2c30      	cmp	r4, #48	; 0x30
    ac58:	d02e      	beq.n	acb8 <IziPlus_Module_SetConfigValue.part.1+0x84>
    ac5a:	2c80      	cmp	r4, #128	; 0x80
    ac5c:	d031      	beq.n	acc2 <IziPlus_Module_SetConfigValue.part.1+0x8e>
    ac5e:	2c81      	cmp	r4, #129	; 0x81
    ac60:	d01f      	beq.n	aca2 <IziPlus_Module_SetConfigValue.part.1+0x6e>
    ac62:	2000      	movs	r0, #0
    ac64:	bd38      	pop	{r3, r4, r5, pc}
    ac66:	782b      	ldrb	r3, [r5, #0]
    ac68:	f880 3042 	strb.w	r3, [r0, #66]	; 0x42
    ac6c:	2001      	movs	r0, #1
    ac6e:	bd38      	pop	{r3, r4, r5, pc}
    ac70:	782b      	ldrb	r3, [r5, #0]
    ac72:	f880 3040 	strb.w	r3, [r0, #64]	; 0x40
    ac76:	2001      	movs	r0, #1
    ac78:	bd38      	pop	{r3, r4, r5, pc}
    ac7a:	782b      	ldrb	r3, [r5, #0]
    ac7c:	f880 3041 	strb.w	r3, [r0, #65]	; 0x41
    ac80:	2001      	movs	r0, #1
    ac82:	bd38      	pop	{r3, r4, r5, pc}
    ac84:	782b      	ldrb	r3, [r5, #0]
    ac86:	f880 3046 	strb.w	r3, [r0, #70]	; 0x46
    ac8a:	2001      	movs	r0, #1
    ac8c:	bd38      	pop	{r3, r4, r5, pc}
    ac8e:	782b      	ldrb	r3, [r5, #0]
    ac90:	f880 3043 	strb.w	r3, [r0, #67]	; 0x43
    ac94:	2001      	movs	r0, #1
    ac96:	bd38      	pop	{r3, r4, r5, pc}
    ac98:	782b      	ldrb	r3, [r5, #0]
    ac9a:	f880 3044 	strb.w	r3, [r0, #68]	; 0x44
    ac9e:	2001      	movs	r0, #1
    aca0:	bd38      	pop	{r3, r4, r5, pc}
    aca2:	f890 303d 	ldrb.w	r3, [r0, #61]	; 0x3d
    aca6:	782a      	ldrb	r2, [r5, #0]
    aca8:	f003 030f 	and.w	r3, r3, #15
    acac:	ea43 1302 	orr.w	r3, r3, r2, lsl #4
    acb0:	f880 303d 	strb.w	r3, [r0, #61]	; 0x3d
    acb4:	2000      	movs	r0, #0
    acb6:	bd38      	pop	{r3, r4, r5, pc}
    acb8:	782b      	ldrb	r3, [r5, #0]
    acba:	f880 3045 	strb.w	r3, [r0, #69]	; 0x45
    acbe:	2001      	movs	r0, #1
    acc0:	bd38      	pop	{r3, r4, r5, pc}
    acc2:	f890 303d 	ldrb.w	r3, [r0, #61]	; 0x3d
    acc6:	782a      	ldrb	r2, [r5, #0]
    acc8:	f023 030f 	bic.w	r3, r3, #15
    accc:	f002 020f 	and.w	r2, r2, #15
    acd0:	4313      	orrs	r3, r2
    acd2:	f880 303d 	strb.w	r3, [r0, #61]	; 0x3d
    acd6:	2000      	movs	r0, #0
    acd8:	bd38      	pop	{r3, r4, r5, pc}
    acda:	bf00      	nop
    acdc:	0000606d 	.word	0x0000606d

0000ace0 <IziPlus_Module_Overrule_Ch1234.part.3>:
    ace0:	b430      	push	{r4, r5}
    ace2:	4b0b      	ldr	r3, [pc, #44]	; (ad10 <IziPlus_Module_Overrule_Ch1234.part.3+0x30>)
    ace4:	78dc      	ldrb	r4, [r3, #3]
    ace6:	b14c      	cbz	r4, acfc <IziPlus_Module_Overrule_Ch1234.part.3+0x1c>
    ace8:	4d0a      	ldr	r5, [pc, #40]	; (ad14 <IziPlus_Module_Overrule_Ch1234.part.3+0x34>)
    acea:	2200      	movs	r2, #0
    acec:	00d3      	lsls	r3, r2, #3
    acee:	fa20 f303 	lsr.w	r3, r0, r3
    acf2:	b2db      	uxtb	r3, r3
    acf4:	54ab      	strb	r3, [r5, r2]
    acf6:	3201      	adds	r2, #1
    acf8:	42a2      	cmp	r2, r4
    acfa:	dbf7      	blt.n	acec <IziPlus_Module_Overrule_Ch1234.part.3+0xc>
    acfc:	4a06      	ldr	r2, [pc, #24]	; (ad18 <IziPlus_Module_Overrule_Ch1234.part.3+0x38>)
    acfe:	4b07      	ldr	r3, [pc, #28]	; (ad1c <IziPlus_Module_Overrule_Ch1234.part.3+0x3c>)
    ad00:	fba2 2101 	umull	r2, r1, r2, r1
    ad04:	f3c1 114f 	ubfx	r1, r1, #5, #16
    ad08:	8019      	strh	r1, [r3, #0]
    ad0a:	bc30      	pop	{r4, r5}
    ad0c:	4770      	bx	lr
    ad0e:	bf00      	nop
    ad10:	2000f8ac 	.word	0x2000f8ac
    ad14:	2000f2f8 	.word	0x2000f2f8
    ad18:	51eb851f 	.word	0x51eb851f
    ad1c:	200057ac 	.word	0x200057ac

0000ad20 <IziPlus_GetDevType>:
    ad20:	4b1c      	ldr	r3, [pc, #112]	; (ad94 <IziPlus_GetDevType+0x74>)
    ad22:	f9b3 3002 	ldrsh.w	r3, [r3, #2]
    ad26:	b510      	push	{r4, lr}
    ad28:	4c1b      	ldr	r4, [pc, #108]	; (ad98 <IziPlus_GetDevType+0x78>)
    ad2a:	f44f 7208 	mov.w	r2, #544	; 0x220
    ad2e:	2b00      	cmp	r3, #0
    ad30:	8022      	strh	r2, [r4, #0]
    ad32:	db28      	blt.n	ad86 <IziPlus_GetDevType+0x66>
    ad34:	4b19      	ldr	r3, [pc, #100]	; (ad9c <IziPlus_GetDevType+0x7c>)
    ad36:	4798      	blx	r3
    ad38:	4919      	ldr	r1, [pc, #100]	; (ada0 <IziPlus_GetDevType+0x80>)
    ad3a:	780b      	ldrb	r3, [r1, #0]
    ad3c:	b1b8      	cbz	r0, ad6e <IziPlus_GetDevType+0x4e>
    ad3e:	8820      	ldrh	r0, [r4, #0]
    ad40:	4a18      	ldr	r2, [pc, #96]	; (ada4 <IziPlus_GetDevType+0x84>)
    ad42:	4403      	add	r3, r0
    ad44:	8013      	strh	r3, [r2, #0]
    ad46:	78cb      	ldrb	r3, [r1, #3]
    ad48:	2b04      	cmp	r3, #4
    ad4a:	d81a      	bhi.n	ad82 <IziPlus_GetDevType+0x62>
    ad4c:	b16b      	cbz	r3, ad6a <IziPlus_GetDevType+0x4a>
    ad4e:	7e0a      	ldrb	r2, [r1, #24]
    ad50:	2a04      	cmp	r2, #4
    ad52:	d816      	bhi.n	ad82 <IziPlus_GetDevType+0x62>
    ad54:	f103 0218 	add.w	r2, r3, #24
    ad58:	4411      	add	r1, r2
    ad5a:	4b13      	ldr	r3, [pc, #76]	; (ada8 <IziPlus_GetDevType+0x88>)
    ad5c:	e003      	b.n	ad66 <IziPlus_GetDevType+0x46>
    ad5e:	f813 2b01 	ldrb.w	r2, [r3], #1
    ad62:	2a04      	cmp	r2, #4
    ad64:	d80d      	bhi.n	ad82 <IziPlus_GetDevType+0x62>
    ad66:	428b      	cmp	r3, r1
    ad68:	d1f9      	bne.n	ad5e <IziPlus_GetDevType+0x3e>
    ad6a:	2001      	movs	r0, #1
    ad6c:	bd10      	pop	{r4, pc}
    ad6e:	2b17      	cmp	r3, #23
    ad70:	d8e5      	bhi.n	ad3e <IziPlus_GetDevType+0x1e>
    ad72:	8822      	ldrh	r2, [r4, #0]
    ad74:	480b      	ldr	r0, [pc, #44]	; (ada4 <IziPlus_GetDevType+0x84>)
    ad76:	3201      	adds	r2, #1
    ad78:	4413      	add	r3, r2
    ad7a:	8003      	strh	r3, [r0, #0]
    ad7c:	78cb      	ldrb	r3, [r1, #3]
    ad7e:	2b04      	cmp	r3, #4
    ad80:	d9e4      	bls.n	ad4c <IziPlus_GetDevType+0x2c>
    ad82:	2000      	movs	r0, #0
    ad84:	bd10      	pop	{r4, pc}
    ad86:	4b07      	ldr	r3, [pc, #28]	; (ada4 <IziPlus_GetDevType+0x84>)
    ad88:	4905      	ldr	r1, [pc, #20]	; (ada0 <IziPlus_GetDevType+0x80>)
    ad8a:	f240 223e 	movw	r2, #574	; 0x23e
    ad8e:	801a      	strh	r2, [r3, #0]
    ad90:	e7d9      	b.n	ad46 <IziPlus_GetDevType+0x26>
    ad92:	bf00      	nop
    ad94:	200057ac 	.word	0x200057ac
    ad98:	2000f2fe 	.word	0x2000f2fe
    ad9c:	00008685 	.word	0x00008685
    ada0:	2000f8ac 	.word	0x2000f8ac
    ada4:	2000f300 	.word	0x2000f300
    ada8:	2000f8c5 	.word	0x2000f8c5

0000adac <IziPlus_Module_InitReady>:
    adac:	4b01      	ldr	r3, [pc, #4]	; (adb4 <IziPlus_Module_InitReady+0x8>)
    adae:	7918      	ldrb	r0, [r3, #4]
    adb0:	4770      	bx	lr
    adb2:	bf00      	nop
    adb4:	200057ac 	.word	0x200057ac

0000adb8 <IziPlus_Module_WriteEmitter_WRGB_MP>:
    adb8:	e92d 41f0 	stmdb	sp!, {r4, r5, r6, r7, r8, lr}
    adbc:	4d40      	ldr	r5, [pc, #256]	; (aec0 <IziPlus_Module_WriteEmitter_WRGB_MP+0x108>)
    adbe:	4c41      	ldr	r4, [pc, #260]	; (aec4 <IziPlus_Module_WriteEmitter_WRGB_MP+0x10c>)
    adc0:	692b      	ldr	r3, [r5, #16]
    adc2:	f8c4 3090 	str.w	r3, [r4, #144]	; 0x90
    adc6:	e895 000f 	ldmia.w	r5, {r0, r1, r2, r3}
    adca:	f105 0714 	add.w	r7, r5, #20
    adce:	f104 0608 	add.w	r6, r4, #8
    add2:	e886 000f 	stmia.w	r6, {r0, r1, r2, r3}
    add6:	e897 0003 	ldmia.w	r7, {r0, r1}
    adda:	f105 031c 	add.w	r3, r5, #28
    adde:	f104 0280 	add.w	r2, r4, #128	; 0x80
    ade2:	e882 0003 	stmia.w	r2, {r0, r1}
    ade6:	e893 0003 	ldmia.w	r3, {r0, r1}
    adea:	f104 0278 	add.w	r2, r4, #120	; 0x78
    adee:	f105 0324 	add.w	r3, r5, #36	; 0x24
    adf2:	e882 0003 	stmia.w	r2, {r0, r1}
    adf6:	e893 0003 	ldmia.w	r3, {r0, r1}
    adfa:	f648 6794 	movw	r7, #36500	; 0x8e94
    adfe:	f44f 7308 	mov.w	r3, #544	; 0x220
    ae02:	220e      	movs	r2, #14
    ae04:	f04f 0c04 	mov.w	ip, #4
    ae08:	f04f 0e41 	mov.w	lr, #65	; 0x41
    ae0c:	f104 066c 	add.w	r6, r4, #108	; 0x6c
    ae10:	f8a4 30f0 	strh.w	r3, [r4, #240]	; 0xf0
    ae14:	f04f 0800 	mov.w	r8, #0
    ae18:	2301      	movs	r3, #1
    ae1a:	f8c4 7088 	str.w	r7, [r4, #136]	; 0x88
    ae1e:	71a2      	strb	r2, [r4, #6]
    ae20:	2764      	movs	r7, #100	; 0x64
    ae22:	f105 0230 	add.w	r2, r5, #48	; 0x30
    ae26:	f884 c003 	strb.w	ip, [r4, #3]
    ae2a:	f884 e007 	strb.w	lr, [r4, #7]
    ae2e:	7063      	strb	r3, [r4, #1]
    ae30:	70a3      	strb	r3, [r4, #2]
    ae32:	f884 30fc 	strb.w	r3, [r4, #252]	; 0xfc
    ae36:	f8a4 708c 	strh.w	r7, [r4, #140]	; 0x8c
    ae3a:	f8a4 708e 	strh.w	r7, [r4, #142]	; 0x8e
    ae3e:	f884 8000 	strb.w	r8, [r4]
    ae42:	e886 0003 	stmia.w	r6, {r0, r1}
    ae46:	e892 0003 	ldmia.w	r2, {r0, r1}
    ae4a:	f104 0394 	add.w	r3, r4, #148	; 0x94
    ae4e:	f105 0738 	add.w	r7, r5, #56	; 0x38
    ae52:	e883 0003 	stmia.w	r3, {r0, r1}
    ae56:	cf0f      	ldmia	r7!, {r0, r1, r2, r3}
    ae58:	f104 061c 	add.w	r6, r4, #28
    ae5c:	c60f      	stmia	r6!, {r0, r1, r2, r3}
    ae5e:	f105 0c4c 	add.w	ip, r5, #76	; 0x4c
    ae62:	e8bc 000f 	ldmia.w	ip!, {r0, r1, r2, r3}
    ae66:	683f      	ldr	r7, [r7, #0]
    ae68:	7037      	strb	r7, [r6, #0]
    ae6a:	f105 0e60 	add.w	lr, r5, #96	; 0x60
    ae6e:	f104 0730 	add.w	r7, r4, #48	; 0x30
    ae72:	c70f      	stmia	r7!, {r0, r1, r2, r3}
    ae74:	e8be 000f 	ldmia.w	lr!, {r0, r1, r2, r3}
    ae78:	6aee      	ldr	r6, [r5, #44]	; 0x2c
    ae7a:	f8dc c000 	ldr.w	ip, [ip]
    ae7e:	6766      	str	r6, [r4, #116]	; 0x74
    ae80:	f104 0644 	add.w	r6, r4, #68	; 0x44
    ae84:	f887 c000 	strb.w	ip, [r7]
    ae88:	c60f      	stmia	r6!, {r0, r1, r2, r3}
    ae8a:	f105 0774 	add.w	r7, r5, #116	; 0x74
    ae8e:	cf0f      	ldmia	r7!, {r0, r1, r2, r3}
    ae90:	f8de e000 	ldr.w	lr, [lr]
    ae94:	f886 e000 	strb.w	lr, [r6]
    ae98:	f104 0658 	add.w	r6, r4, #88	; 0x58
    ae9c:	c60f      	stmia	r6!, {r0, r1, r2, r3}
    ae9e:	683f      	ldr	r7, [r7, #0]
    aea0:	f8d5 3088 	ldr.w	r3, [r5, #136]	; 0x88
    aea4:	4a08      	ldr	r2, [pc, #32]	; (aec8 <IziPlus_Module_WriteEmitter_WRGB_MP+0x110>)
    aea6:	f8c4 20f8 	str.w	r2, [r4, #248]	; 0xf8
    aeaa:	4d08      	ldr	r5, [pc, #32]	; (aecc <IziPlus_Module_WriteEmitter_WRGB_MP+0x114>)
    aeac:	61a3      	str	r3, [r4, #24]
    aeae:	4642      	mov	r2, r8
    aeb0:	4620      	mov	r0, r4
    aeb2:	21fe      	movs	r1, #254	; 0xfe
    aeb4:	7037      	strb	r7, [r6, #0]
    aeb6:	47a8      	blx	r5
    aeb8:	f8a4 00fe 	strh.w	r0, [r4, #254]	; 0xfe
    aebc:	e8bd 81f0 	ldmia.w	sp!, {r4, r5, r6, r7, r8, pc}
    aec0:	00011a74 	.word	0x00011a74
    aec4:	2000f8ac 	.word	0x2000f8ac
    aec8:	e3306409 	.word	0xe3306409
    aecc:	0000fd81 	.word	0x0000fd81

0000aed0 <IziPlus_Module_Fixture_Wrgb>:
    aed0:	b5f8      	push	{r3, r4, r5, r6, r7, lr}
    aed2:	4b15      	ldr	r3, [pc, #84]	; (af28 <IziPlus_Module_Fixture_Wrgb+0x58>)
    aed4:	4c15      	ldr	r4, [pc, #84]	; (af2c <IziPlus_Module_Fixture_Wrgb+0x5c>)
    aed6:	4f16      	ldr	r7, [pc, #88]	; (af30 <IziPlus_Module_Fixture_Wrgb+0x60>)
    aed8:	4e16      	ldr	r6, [pc, #88]	; (af34 <IziPlus_Module_Fixture_Wrgb+0x64>)
    aeda:	cb07      	ldmia	r3!, {r0, r1, r2}
    aedc:	f5a4 65a9 	sub.w	r5, r4, #1352	; 0x548
    aee0:	f8b3 e000 	ldrh.w	lr, [r3]
    aee4:	6020      	str	r0, [r4, #0]
    aee6:	6061      	str	r1, [r4, #4]
    aee8:	60a2      	str	r2, [r4, #8]
    aeea:	2309      	movs	r3, #9
    aeec:	f107 018c 	add.w	r1, r7, #140	; 0x8c
    aef0:	f8a4 e00c 	strh.w	lr, [r4, #12]
    aef4:	f5a4 60a8 	sub.w	r0, r4, #1344	; 0x540
    aef8:	f44f 72a2 	mov.w	r2, #324	; 0x144
    aefc:	702b      	strb	r3, [r5, #0]
    aefe:	47b0      	blx	r6
    af00:	2202      	movs	r2, #2
    af02:	2306      	movs	r3, #6
    af04:	f507 71e8 	add.w	r1, r7, #464	; 0x1d0
    af08:	70ea      	strb	r2, [r5, #3]
    af0a:	f5a4 7064 	sub.w	r0, r4, #912	; 0x390
    af0e:	22c0      	movs	r2, #192	; 0xc0
    af10:	706b      	strb	r3, [r5, #1]
    af12:	47b0      	blx	r6
    af14:	2313      	movs	r3, #19
    af16:	f507 7124 	add.w	r1, r7, #656	; 0x290
    af1a:	f5a4 7004 	sub.w	r0, r4, #528	; 0x210
    af1e:	f44f 72d1 	mov.w	r2, #418	; 0x1a2
    af22:	70ab      	strb	r3, [r5, #2]
    af24:	47b0      	blx	r6
    af26:	bdf8      	pop	{r3, r4, r5, r6, r7, pc}
    af28:	00011f08 	.word	0x00011f08
    af2c:	2000f888 	.word	0x2000f888
    af30:	00011a74 	.word	0x00011a74
    af34:	00010a69 	.word	0x00010a69

0000af38 <IziPlus_Module_SetFixtureParameters>:
    af38:	b538      	push	{r3, r4, r5, lr}
    af3a:	4b23      	ldr	r3, [pc, #140]	; (afc8 <IziPlus_Module_SetFixtureParameters+0x90>)
    af3c:	4798      	blx	r3
    af3e:	4b23      	ldr	r3, [pc, #140]	; (afcc <IziPlus_Module_SetFixtureParameters+0x94>)
    af40:	78d9      	ldrb	r1, [r3, #3]
    af42:	2900      	cmp	r1, #0
    af44:	d03a      	beq.n	afbc <IziPlus_Module_SetFixtureParameters+0x84>
    af46:	3136      	adds	r1, #54	; 0x36
    af48:	eb03 0141 	add.w	r1, r3, r1, lsl #1
    af4c:	2200      	movs	r2, #0
    af4e:	336c      	adds	r3, #108	; 0x6c
    af50:	f833 0b02 	ldrh.w	r0, [r3], #2
    af54:	4282      	cmp	r2, r0
    af56:	bf38      	it	cc
    af58:	4602      	movcc	r2, r0
    af5a:	428b      	cmp	r3, r1
    af5c:	d1f8      	bne.n	af50 <IziPlus_Module_SetFixtureParameters+0x18>
    af5e:	f5a2 737a 	sub.w	r3, r2, #1000	; 0x3e8
    af62:	f202 52dc 	addw	r2, r2, #1500	; 0x5dc
    af66:	b29b      	uxth	r3, r3
    af68:	b292      	uxth	r2, r2
    af6a:	4819      	ldr	r0, [pc, #100]	; (afd0 <IziPlus_Module_SetFixtureParameters+0x98>)
    af6c:	4d19      	ldr	r5, [pc, #100]	; (afd4 <IziPlus_Module_SetFixtureParameters+0x9c>)
    af6e:	7844      	ldrb	r4, [r0, #1]
    af70:	80c3      	strh	r3, [r0, #6]
    af72:	2300      	movs	r3, #0
    af74:	8082      	strh	r2, [r0, #4]
    af76:	802b      	strh	r3, [r5, #0]
    af78:	b154      	cbz	r4, af90 <IziPlus_Module_SetFixtureParameters+0x58>
    af7a:	eb00 1444 	add.w	r4, r0, r4, lsl #5
    af7e:	4602      	mov	r2, r0
    af80:	f892 11b8 	ldrb.w	r1, [r2, #440]	; 0x1b8
    af84:	3220      	adds	r2, #32
    af86:	440b      	add	r3, r1
    af88:	42a2      	cmp	r2, r4
    af8a:	b29b      	uxth	r3, r3
    af8c:	d1f8      	bne.n	af80 <IziPlus_Module_SetFixtureParameters+0x48>
    af8e:	802b      	strh	r3, [r5, #0]
    af90:	4c11      	ldr	r4, [pc, #68]	; (afd8 <IziPlus_Module_SetFixtureParameters+0xa0>)
    af92:	7882      	ldrb	r2, [r0, #2]
    af94:	2300      	movs	r3, #0
    af96:	8023      	strh	r3, [r4, #0]
    af98:	b172      	cbz	r2, afb8 <IziPlus_Module_SetFixtureParameters+0x80>
    af9a:	eb02 0182 	add.w	r1, r2, r2, lsl #2
    af9e:	eb02 0141 	add.w	r1, r2, r1, lsl #1
    afa2:	4a0b      	ldr	r2, [pc, #44]	; (afd0 <IziPlus_Module_SetFixtureParameters+0x98>)
    afa4:	eb00 0041 	add.w	r0, r0, r1, lsl #1
    afa8:	f892 1338 	ldrb.w	r1, [r2, #824]	; 0x338
    afac:	3216      	adds	r2, #22
    afae:	440b      	add	r3, r1
    afb0:	4290      	cmp	r0, r2
    afb2:	b29b      	uxth	r3, r3
    afb4:	d1f8      	bne.n	afa8 <IziPlus_Module_SetFixtureParameters+0x70>
    afb6:	8023      	strh	r3, [r4, #0]
    afb8:	2001      	movs	r0, #1
    afba:	bd38      	pop	{r3, r4, r5, pc}
    afbc:	f240 52dc 	movw	r2, #1500	; 0x5dc
    afc0:	f64f 4318 	movw	r3, #64536	; 0xfc18
    afc4:	e7d1      	b.n	af6a <IziPlus_Module_SetFixtureParameters+0x32>
    afc6:	bf00      	nop
    afc8:	0000aed1 	.word	0x0000aed1
    afcc:	2000f8ac 	.word	0x2000f8ac
    afd0:	2000f340 	.word	0x2000f340
    afd4:	2000f2fc 	.word	0x2000f2fc
    afd8:	2000f304 	.word	0x2000f304

0000afdc <IziPlus_Module_CheckDefinitions>:
    afdc:	b510      	push	{r4, lr}
    afde:	4c0e      	ldr	r4, [pc, #56]	; (b018 <IziPlus_Module_CheckDefinitions+0x3c>)
    afe0:	4b0e      	ldr	r3, [pc, #56]	; (b01c <IziPlus_Module_CheckDefinitions+0x40>)
    afe2:	4620      	mov	r0, r4
    afe4:	2200      	movs	r2, #0
    afe6:	21fe      	movs	r1, #254	; 0xfe
    afe8:	4798      	blx	r3
    afea:	f8b4 30fe 	ldrh.w	r3, [r4, #254]	; 0xfe
    afee:	4283      	cmp	r3, r0
    aff0:	d00a      	beq.n	b008 <IziPlus_Module_CheckDefinitions+0x2c>
    aff2:	4b0b      	ldr	r3, [pc, #44]	; (b020 <IziPlus_Module_CheckDefinitions+0x44>)
    aff4:	4798      	blx	r3
    aff6:	2001      	movs	r0, #1
    aff8:	4b0a      	ldr	r3, [pc, #40]	; (b024 <IziPlus_Module_CheckDefinitions+0x48>)
    affa:	4798      	blx	r3
    affc:	4b0a      	ldr	r3, [pc, #40]	; (b028 <IziPlus_Module_CheckDefinitions+0x4c>)
    affe:	4798      	blx	r3
    b000:	4b0a      	ldr	r3, [pc, #40]	; (b02c <IziPlus_Module_CheckDefinitions+0x50>)
    b002:	2201      	movs	r2, #1
    b004:	715a      	strb	r2, [r3, #5]
    b006:	bd10      	pop	{r4, pc}
    b008:	4c09      	ldr	r4, [pc, #36]	; (b030 <IziPlus_Module_CheckDefinitions+0x54>)
    b00a:	2007      	movs	r0, #7
    b00c:	47a0      	blx	r4
    b00e:	4623      	mov	r3, r4
    b010:	2008      	movs	r0, #8
    b012:	e8bd 4010 	ldmia.w	sp!, {r4, lr}
    b016:	4718      	bx	r3
    b018:	2000f8ac 	.word	0x2000f8ac
    b01c:	0000fd81 	.word	0x0000fd81
    b020:	0000ad21 	.word	0x0000ad21
    b024:	0000adb9 	.word	0x0000adb9
    b028:	0000af39 	.word	0x0000af39
    b02c:	200057ac 	.word	0x200057ac
    b030:	0000d0b5 	.word	0x0000d0b5
    b034:	00000000 	.word	0x00000000

0000b038 <compute_index>:
    b038:	e92d 47f0 	stmdb	sp!, {r4, r5, r6, r7, r8, r9, sl, lr}
    b03c:	4614      	mov	r4, r2
    b03e:	461d      	mov	r5, r3
    b040:	4680      	mov	r8, r0
    b042:	4689      	mov	r9, r1
    b044:	4610      	mov	r0, r2
    b046:	4619      	mov	r1, r3
    b048:	4e2f      	ldr	r6, [pc, #188]	; (b108 <compute_index+0xd0>)
    b04a:	2200      	movs	r2, #0
    b04c:	2300      	movs	r3, #0
    b04e:	47b0      	blx	r6
    b050:	2800      	cmp	r0, #0
    b052:	d151      	bne.n	b0f8 <compute_index+0xc0>
    b054:	4f2d      	ldr	r7, [pc, #180]	; (b10c <compute_index+0xd4>)
    b056:	e9dd 2308 	ldrd	r2, r3, [sp, #32]
    b05a:	4620      	mov	r0, r4
    b05c:	4629      	mov	r1, r5
    b05e:	47b8      	blx	r7
    b060:	2800      	cmp	r0, #0
    b062:	d149      	bne.n	b0f8 <compute_index+0xc0>
    b064:	2200      	movs	r2, #0
    b066:	2300      	movs	r3, #0
    b068:	4640      	mov	r0, r8
    b06a:	4649      	mov	r1, r9
    b06c:	47b0      	blx	r6
    b06e:	2800      	cmp	r0, #0
    b070:	d142      	bne.n	b0f8 <compute_index+0xc0>
    b072:	4622      	mov	r2, r4
    b074:	462b      	mov	r3, r5
    b076:	4640      	mov	r0, r8
    b078:	4649      	mov	r1, r9
    b07a:	f8df a0b0 	ldr.w	sl, [pc, #176]	; b12c <compute_index+0xf4>
    b07e:	f8df 80b0 	ldr.w	r8, [pc, #176]	; b130 <compute_index+0xf8>
    b082:	47d0      	blx	sl
    b084:	47c0      	blx	r8
    b086:	4622      	mov	r2, r4
    b088:	462b      	mov	r3, r5
    b08a:	4606      	mov	r6, r0
    b08c:	460f      	mov	r7, r1
    b08e:	e9dd 0108 	ldrd	r0, r1, [sp, #32]
    b092:	47d0      	blx	sl
    b094:	47c0      	blx	r8
    b096:	4c1e      	ldr	r4, [pc, #120]	; (b110 <compute_index+0xd8>)
    b098:	2200      	movs	r2, #0
    b09a:	2300      	movs	r3, #0
    b09c:	4680      	mov	r8, r0
    b09e:	4689      	mov	r9, r1
    b0a0:	47a0      	blx	r4
    b0a2:	4604      	mov	r4, r0
    b0a4:	bb40      	cbnz	r0, b0f8 <compute_index+0xc0>
    b0a6:	4642      	mov	r2, r8
    b0a8:	464b      	mov	r3, r9
    b0aa:	4630      	mov	r0, r6
    b0ac:	4639      	mov	r1, r7
    b0ae:	47d0      	blx	sl
    b0b0:	4d18      	ldr	r5, [pc, #96]	; (b114 <compute_index+0xdc>)
    b0b2:	a313      	add	r3, pc, #76	; (adr r3, b100 <compute_index+0xc8>)
    b0b4:	e9d3 2300 	ldrd	r2, r3, [r3]
    b0b8:	47a8      	blx	r5
    b0ba:	4d17      	ldr	r5, [pc, #92]	; (b118 <compute_index+0xe0>)
    b0bc:	2200      	movs	r2, #0
    b0be:	2300      	movs	r3, #0
    b0c0:	4606      	mov	r6, r0
    b0c2:	460f      	mov	r7, r1
    b0c4:	47a8      	blx	r5
    b0c6:	b9a0      	cbnz	r0, b0f2 <compute_index+0xba>
    b0c8:	4c14      	ldr	r4, [pc, #80]	; (b11c <compute_index+0xe4>)
    b0ca:	a30d      	add	r3, pc, #52	; (adr r3, b100 <compute_index+0xc8>)
    b0cc:	e9d3 2300 	ldrd	r2, r3, [r3]
    b0d0:	4630      	mov	r0, r6
    b0d2:	4639      	mov	r1, r7
    b0d4:	47a0      	blx	r4
    b0d6:	b110      	cbz	r0, b0de <compute_index+0xa6>
    b0d8:	20ff      	movs	r0, #255	; 0xff
    b0da:	e8bd 87f0 	ldmia.w	sp!, {r4, r5, r6, r7, r8, r9, sl, pc}
    b0de:	4630      	mov	r0, r6
    b0e0:	4639      	mov	r1, r7
    b0e2:	4c0f      	ldr	r4, [pc, #60]	; (b120 <compute_index+0xe8>)
    b0e4:	4b0f      	ldr	r3, [pc, #60]	; (b124 <compute_index+0xec>)
    b0e6:	2200      	movs	r2, #0
    b0e8:	47a0      	blx	r4
    b0ea:	4b0f      	ldr	r3, [pc, #60]	; (b128 <compute_index+0xf0>)
    b0ec:	4798      	blx	r3
    b0ee:	e8bd 87f0 	ldmia.w	sp!, {r4, r5, r6, r7, r8, r9, sl, pc}
    b0f2:	4620      	mov	r0, r4
    b0f4:	e8bd 87f0 	ldmia.w	sp!, {r4, r5, r6, r7, r8, r9, sl, pc}
    b0f8:	f04f 30ff 	mov.w	r0, #4294967295
    b0fc:	e8bd 87f0 	ldmia.w	sp!, {r4, r5, r6, r7, r8, r9, sl, pc}
    b100:	00000000 	.word	0x00000000
    b104:	406fe000 	.word	0x406fe000
    b108:	0001064d 	.word	0x0001064d
    b10c:	00010661 	.word	0x00010661
    b110:	00010625 	.word	0x00010625
    b114:	00010155 	.word	0x00010155
    b118:	00010639 	.word	0x00010639
    b11c:	00010675 	.word	0x00010675
    b120:	0000fdf1 	.word	0x0000fdf1
    b124:	3fe00000 	.word	0x3fe00000
    b128:	000106b5 	.word	0x000106b5
    b12c:	000103a9 	.word	0x000103a9
    b130:	0000f88d 	.word	0x0000f88d

0000b134 <IziPlus_Module_Update>:
    b134:	e92d 4ff0 	stmdb	sp!, {r4, r5, r6, r7, r8, r9, sl, fp, lr}
    b138:	4f57      	ldr	r7, [pc, #348]	; (b298 <IziPlus_Module_Update+0x164>)
    b13a:	4a58      	ldr	r2, [pc, #352]	; (b29c <IziPlus_Module_Update+0x168>)
    b13c:	f8d7 8000 	ldr.w	r8, [r7]
    b140:	7811      	ldrb	r1, [r2, #0]
    b142:	f898 303c 	ldrb.w	r3, [r8, #60]	; 0x3c
    b146:	4299      	cmp	r1, r3
    b148:	b083      	sub	sp, #12
    b14a:	f200 8091 	bhi.w	b270 <IziPlus_Module_Update+0x13c>
    b14e:	4d54      	ldr	r5, [pc, #336]	; (b2a0 <IziPlus_Module_Update+0x16c>)
    b150:	4b54      	ldr	r3, [pc, #336]	; (b2a4 <IziPlus_Module_Update+0x170>)
    b152:	f503 7100 	add.w	r1, r3, #512	; 0x200
    b156:	461a      	mov	r2, r3
    b158:	e002      	b.n	b160 <IziPlus_Module_Update+0x2c>
    b15a:	428a      	cmp	r2, r1
    b15c:	f000 8090 	beq.w	b280 <IziPlus_Module_Update+0x14c>
    b160:	1ad4      	subs	r4, r2, r3
    b162:	f812 0b01 	ldrb.w	r0, [r2], #1
    b166:	2868      	cmp	r0, #104	; 0x68
    b168:	d1f7      	bne.n	b15a <IziPlus_Module_Update+0x26>
    b16a:	00e4      	lsls	r4, r4, #3
    b16c:	b224      	sxth	r4, r4
    b16e:	4a4d      	ldr	r2, [pc, #308]	; (b2a4 <IziPlus_Module_Update+0x170>)
    b170:	812c      	strh	r4, [r5, #8]
    b172:	e002      	b.n	b17a <IziPlus_Module_Update+0x46>
    b174:	428a      	cmp	r2, r1
    b176:	f000 8086 	beq.w	b286 <IziPlus_Module_Update+0x152>
    b17a:	1ad4      	subs	r4, r2, r3
    b17c:	f812 0b01 	ldrb.w	r0, [r2], #1
    b180:	2863      	cmp	r0, #99	; 0x63
    b182:	d1f7      	bne.n	b174 <IziPlus_Module_Update+0x40>
    b184:	00e4      	lsls	r4, r4, #3
    b186:	b224      	sxth	r4, r4
    b188:	4847      	ldr	r0, [pc, #284]	; (b2a8 <IziPlus_Module_Update+0x174>)
    b18a:	4a46      	ldr	r2, [pc, #280]	; (b2a4 <IziPlus_Module_Update+0x170>)
    b18c:	8004      	strh	r4, [r0, #0]
    b18e:	e001      	b.n	b194 <IziPlus_Module_Update+0x60>
    b190:	428a      	cmp	r2, r1
    b192:	d07b      	beq.n	b28c <IziPlus_Module_Update+0x158>
    b194:	1ad4      	subs	r4, r2, r3
    b196:	f812 0b01 	ldrb.w	r0, [r2], #1
    b19a:	285a      	cmp	r0, #90	; 0x5a
    b19c:	d1f8      	bne.n	b190 <IziPlus_Module_Update+0x5c>
    b19e:	00e4      	lsls	r4, r4, #3
    b1a0:	b224      	sxth	r4, r4
    b1a2:	4a40      	ldr	r2, [pc, #256]	; (b2a4 <IziPlus_Module_Update+0x170>)
    b1a4:	816c      	strh	r4, [r5, #10]
    b1a6:	e001      	b.n	b1ac <IziPlus_Module_Update+0x78>
    b1a8:	428a      	cmp	r2, r1
    b1aa:	d072      	beq.n	b292 <IziPlus_Module_Update+0x15e>
    b1ac:	1ad4      	subs	r4, r2, r3
    b1ae:	f812 0b01 	ldrb.w	r0, [r2], #1
    b1b2:	2855      	cmp	r0, #85	; 0x55
    b1b4:	d1f8      	bne.n	b1a8 <IziPlus_Module_Update+0x74>
    b1b6:	00e4      	lsls	r4, r4, #3
    b1b8:	b224      	sxth	r4, r4
    b1ba:	4d3c      	ldr	r5, [pc, #240]	; (b2ac <IziPlus_Module_Update+0x178>)
    b1bc:	4b3c      	ldr	r3, [pc, #240]	; (b2b0 <IziPlus_Module_Update+0x17c>)
    b1be:	79a8      	ldrb	r0, [r5, #6]
    b1c0:	801c      	strh	r4, [r3, #0]
    b1c2:	4c3c      	ldr	r4, [pc, #240]	; (b2b4 <IziPlus_Module_Update+0x180>)
    b1c4:	4e3c      	ldr	r6, [pc, #240]	; (b2b8 <IziPlus_Module_Update+0x184>)
    b1c6:	47a0      	blx	r4
    b1c8:	4682      	mov	sl, r0
    b1ca:	f898 0044 	ldrb.w	r0, [r8, #68]	; 0x44
    b1ce:	468b      	mov	fp, r1
    b1d0:	47a0      	blx	r4
    b1d2:	4680      	mov	r8, r0
    b1d4:	79e8      	ldrb	r0, [r5, #7]
    b1d6:	4689      	mov	r9, r1
    b1d8:	47a0      	blx	r4
    b1da:	4652      	mov	r2, sl
    b1dc:	e9cd 0100 	strd	r0, r1, [sp]
    b1e0:	465b      	mov	r3, fp
    b1e2:	4649      	mov	r1, r9
    b1e4:	4640      	mov	r0, r8
    b1e6:	47b0      	blx	r6
    b1e8:	4b34      	ldr	r3, [pc, #208]	; (b2bc <IziPlus_Module_Update+0x188>)
    b1ea:	7018      	strb	r0, [r3, #0]
    b1ec:	79a8      	ldrb	r0, [r5, #6]
    b1ee:	47a0      	blx	r4
    b1f0:	683b      	ldr	r3, [r7, #0]
    b1f2:	4682      	mov	sl, r0
    b1f4:	f893 0045 	ldrb.w	r0, [r3, #69]	; 0x45
    b1f8:	468b      	mov	fp, r1
    b1fa:	47a0      	blx	r4
    b1fc:	4680      	mov	r8, r0
    b1fe:	79e8      	ldrb	r0, [r5, #7]
    b200:	4689      	mov	r9, r1
    b202:	47a0      	blx	r4
    b204:	4652      	mov	r2, sl
    b206:	e9cd 0100 	strd	r0, r1, [sp]
    b20a:	465b      	mov	r3, fp
    b20c:	4649      	mov	r1, r9
    b20e:	4640      	mov	r0, r8
    b210:	47b0      	blx	r6
    b212:	4b2b      	ldr	r3, [pc, #172]	; (b2c0 <IziPlus_Module_Update+0x18c>)
    b214:	7018      	strb	r0, [r3, #0]
    b216:	79a8      	ldrb	r0, [r5, #6]
    b218:	47a0      	blx	r4
    b21a:	683b      	ldr	r3, [r7, #0]
    b21c:	4682      	mov	sl, r0
    b21e:	f893 0042 	ldrb.w	r0, [r3, #66]	; 0x42
    b222:	468b      	mov	fp, r1
    b224:	47a0      	blx	r4
    b226:	4680      	mov	r8, r0
    b228:	79e8      	ldrb	r0, [r5, #7]
    b22a:	4689      	mov	r9, r1
    b22c:	47a0      	blx	r4
    b22e:	4652      	mov	r2, sl
    b230:	e9cd 0100 	strd	r0, r1, [sp]
    b234:	465b      	mov	r3, fp
    b236:	4649      	mov	r1, r9
    b238:	4640      	mov	r0, r8
    b23a:	47b0      	blx	r6
    b23c:	4b21      	ldr	r3, [pc, #132]	; (b2c4 <IziPlus_Module_Update+0x190>)
    b23e:	7018      	strb	r0, [r3, #0]
    b240:	79a8      	ldrb	r0, [r5, #6]
    b242:	47a0      	blx	r4
    b244:	683b      	ldr	r3, [r7, #0]
    b246:	4682      	mov	sl, r0
    b248:	f893 0043 	ldrb.w	r0, [r3, #67]	; 0x43
    b24c:	468b      	mov	fp, r1
    b24e:	47a0      	blx	r4
    b250:	4680      	mov	r8, r0
    b252:	79e8      	ldrb	r0, [r5, #7]
    b254:	4689      	mov	r9, r1
    b256:	47a0      	blx	r4
    b258:	465b      	mov	r3, fp
    b25a:	e9cd 0100 	strd	r0, r1, [sp]
    b25e:	4652      	mov	r2, sl
    b260:	4640      	mov	r0, r8
    b262:	4649      	mov	r1, r9
    b264:	47b0      	blx	r6
    b266:	4b18      	ldr	r3, [pc, #96]	; (b2c8 <IziPlus_Module_Update+0x194>)
    b268:	7018      	strb	r0, [r3, #0]
    b26a:	b003      	add	sp, #12
    b26c:	e8bd 8ff0 	ldmia.w	sp!, {r4, r5, r6, r7, r8, r9, sl, fp, pc}
    b270:	eb03 03c3 	add.w	r3, r3, r3, lsl #3
    b274:	eb02 0383 	add.w	r3, r2, r3, lsl #2
    b278:	4d09      	ldr	r5, [pc, #36]	; (b2a0 <IziPlus_Module_Update+0x16c>)
    b27a:	7a1b      	ldrb	r3, [r3, #8]
    b27c:	71ab      	strb	r3, [r5, #6]
    b27e:	e767      	b.n	b150 <IziPlus_Module_Update+0x1c>
    b280:	f04f 34ff 	mov.w	r4, #4294967295
    b284:	e773      	b.n	b16e <IziPlus_Module_Update+0x3a>
    b286:	f04f 34ff 	mov.w	r4, #4294967295
    b28a:	e77d      	b.n	b188 <IziPlus_Module_Update+0x54>
    b28c:	f04f 34ff 	mov.w	r4, #4294967295
    b290:	e787      	b.n	b1a2 <IziPlus_Module_Update+0x6e>
    b292:	f04f 34ff 	mov.w	r4, #4294967295
    b296:	e790      	b.n	b1ba <IziPlus_Module_Update+0x86>
    b298:	2000ee34 	.word	0x2000ee34
    b29c:	2000f340 	.word	0x2000f340
    b2a0:	200057ac 	.word	0x200057ac
    b2a4:	00012058 	.word	0x00012058
    b2a8:	2000f9ac 	.word	0x2000f9ac
    b2ac:	2000f8ac 	.word	0x2000f8ac
    b2b0:	2000f302 	.word	0x2000f302
    b2b4:	00010069 	.word	0x00010069
    b2b8:	0000b039 	.word	0x0000b039
    b2bc:	2000f33c 	.word	0x2000f33c
    b2c0:	2000f328 	.word	0x2000f328
    b2c4:	2000f8a8 	.word	0x2000f8a8
    b2c8:	2000f2f4 	.word	0x2000f2f4

0000b2cc <IziPlus_Module_Init>:
    b2cc:	b538      	push	{r3, r4, r5, lr}
    b2ce:	4b28      	ldr	r3, [pc, #160]	; (b370 <IziPlus_Module_Init+0xa4>)
    b2d0:	4828      	ldr	r0, [pc, #160]	; (b374 <IziPlus_Module_Init+0xa8>)
    b2d2:	781b      	ldrb	r3, [r3, #0]
    b2d4:	4a28      	ldr	r2, [pc, #160]	; (b378 <IziPlus_Module_Init+0xac>)
    b2d6:	241e      	movs	r4, #30
    b2d8:	2100      	movs	r1, #0
    b2da:	2b01      	cmp	r3, #1
    b2dc:	8004      	strh	r4, [r0, #0]
    b2de:	8011      	strh	r1, [r2, #0]
    b2e0:	d029      	beq.n	b336 <IziPlus_Module_Init+0x6a>
    b2e2:	2b03      	cmp	r3, #3
    b2e4:	d02c      	beq.n	b340 <IziPlus_Module_Init+0x74>
    b2e6:	2b05      	cmp	r3, #5
    b2e8:	d02f      	beq.n	b34a <IziPlus_Module_Init+0x7e>
    b2ea:	2b04      	cmp	r3, #4
    b2ec:	d03a      	beq.n	b364 <IziPlus_Module_Init+0x98>
    b2ee:	2b02      	cmp	r3, #2
    b2f0:	d030      	beq.n	b354 <IziPlus_Module_Init+0x88>
    b2f2:	4d22      	ldr	r5, [pc, #136]	; (b37c <IziPlus_Module_Init+0xb0>)
    b2f4:	4c22      	ldr	r4, [pc, #136]	; (b380 <IziPlus_Module_Init+0xb4>)
    b2f6:	47a8      	blx	r5
    b2f8:	2001      	movs	r0, #1
    b2fa:	4b22      	ldr	r3, [pc, #136]	; (b384 <IziPlus_Module_Init+0xb8>)
    b2fc:	4798      	blx	r3
    b2fe:	4b22      	ldr	r3, [pc, #136]	; (b388 <IziPlus_Module_Init+0xbc>)
    b300:	4798      	blx	r3
    b302:	4b22      	ldr	r3, [pc, #136]	; (b38c <IziPlus_Module_Init+0xc0>)
    b304:	681b      	ldr	r3, [r3, #0]
    b306:	f893 21fd 	ldrb.w	r2, [r3, #509]	; 0x1fd
    b30a:	2101      	movs	r1, #1
    b30c:	2acd      	cmp	r2, #205	; 0xcd
    b30e:	7161      	strb	r1, [r4, #5]
    b310:	d105      	bne.n	b31e <IziPlus_Module_Init+0x52>
    b312:	491f      	ldr	r1, [pc, #124]	; (b390 <IziPlus_Module_Init+0xc4>)
    b314:	f893 21ff 	ldrb.w	r2, [r3, #511]	; 0x1ff
    b318:	780b      	ldrb	r3, [r1, #0]
    b31a:	429a      	cmp	r2, r3
    b31c:	d01f      	beq.n	b35e <IziPlus_Module_Init+0x92>
    b31e:	4b1d      	ldr	r3, [pc, #116]	; (b394 <IziPlus_Module_Init+0xc8>)
    b320:	4798      	blx	r3
    b322:	47a8      	blx	r5
    b324:	4b1c      	ldr	r3, [pc, #112]	; (b398 <IziPlus_Module_Init+0xcc>)
    b326:	4798      	blx	r3
    b328:	4b1c      	ldr	r3, [pc, #112]	; (b39c <IziPlus_Module_Init+0xd0>)
    b32a:	2200      	movs	r2, #0
    b32c:	2001      	movs	r0, #1
    b32e:	601a      	str	r2, [r3, #0]
    b330:	605a      	str	r2, [r3, #4]
    b332:	7120      	strb	r0, [r4, #4]
    b334:	bd38      	pop	{r3, r4, r5, pc}
    b336:	7813      	ldrb	r3, [r2, #0]
    b338:	f043 0301 	orr.w	r3, r3, #1
    b33c:	7013      	strb	r3, [r2, #0]
    b33e:	e7d8      	b.n	b2f2 <IziPlus_Module_Init+0x26>
    b340:	7813      	ldrb	r3, [r2, #0]
    b342:	f043 0302 	orr.w	r3, r3, #2
    b346:	7013      	strb	r3, [r2, #0]
    b348:	e7d3      	b.n	b2f2 <IziPlus_Module_Init+0x26>
    b34a:	7813      	ldrb	r3, [r2, #0]
    b34c:	f043 0304 	orr.w	r3, r3, #4
    b350:	7013      	strb	r3, [r2, #0]
    b352:	e7ce      	b.n	b2f2 <IziPlus_Module_Init+0x26>
    b354:	7813      	ldrb	r3, [r2, #0]
    b356:	f043 0308 	orr.w	r3, r3, #8
    b35a:	7013      	strb	r3, [r2, #0]
    b35c:	e7c9      	b.n	b2f2 <IziPlus_Module_Init+0x26>
    b35e:	4b10      	ldr	r3, [pc, #64]	; (b3a0 <IziPlus_Module_Init+0xd4>)
    b360:	4798      	blx	r3
    b362:	e7de      	b.n	b322 <IziPlus_Module_Init+0x56>
    b364:	7813      	ldrb	r3, [r2, #0]
    b366:	f043 0310 	orr.w	r3, r3, #16
    b36a:	7013      	strb	r3, [r2, #0]
    b36c:	e7c1      	b.n	b2f2 <IziPlus_Module_Init+0x26>
    b36e:	bf00      	nop
    b370:	2000f9b0 	.word	0x2000f9b0
    b374:	2000f2b0 	.word	0x2000f2b0
    b378:	2000f334 	.word	0x2000f334
    b37c:	0000ad21 	.word	0x0000ad21
    b380:	200057ac 	.word	0x200057ac
    b384:	0000adb9 	.word	0x0000adb9
    b388:	0000af39 	.word	0x0000af39
    b38c:	2000ee34 	.word	0x2000ee34
    b390:	2000f8ac 	.word	0x2000f8ac
    b394:	00005f29 	.word	0x00005f29
    b398:	0000b135 	.word	0x0000b135
    b39c:	2000f32c 	.word	0x2000f32c
    b3a0:	00006179 	.word	0x00006179

0000b3a4 <IziPlus_Module_TemperatureCheck>:
    b3a4:	4298      	cmp	r0, r3
    b3a6:	dc18      	bgt.n	b3da <IziPlus_Module_TemperatureCheck+0x36>
    b3a8:	4290      	cmp	r0, r2
    b3aa:	dd20      	ble.n	b3ee <IziPlus_Module_TemperatureCheck+0x4a>
    b3ac:	1a80      	subs	r0, r0, r2
    b3ae:	1a9b      	subs	r3, r3, r2
    b3b0:	b410      	push	{r4}
    b3b2:	f44f 62fa 	mov.w	r2, #2000	; 0x7d0
    b3b6:	880c      	ldrh	r4, [r1, #0]
    b3b8:	fb92 f3f3 	sdiv	r3, r2, r3
    b3bc:	fb13 f000 	smulbb	r0, r3, r0
    b3c0:	b280      	uxth	r0, r0
    b3c2:	42a0      	cmp	r0, r4
    b3c4:	d21f      	bcs.n	b406 <IziPlus_Module_TemperatureCheck+0x62>
    b3c6:	1a20      	subs	r0, r4, r0
    b3c8:	287f      	cmp	r0, #127	; 0x7f
    b3ca:	dd01      	ble.n	b3d0 <IziPlus_Module_TemperatureCheck+0x2c>
    b3cc:	2c03      	cmp	r4, #3
    b3ce:	d826      	bhi.n	b41e <IziPlus_Module_TemperatureCheck+0x7a>
    b3d0:	b1ec      	cbz	r4, b40e <IziPlus_Module_TemperatureCheck+0x6a>
    b3d2:	3c01      	subs	r4, #1
    b3d4:	800c      	strh	r4, [r1, #0]
    b3d6:	2001      	movs	r0, #1
    b3d8:	e01a      	b.n	b410 <IziPlus_Module_TemperatureCheck+0x6c>
    b3da:	880b      	ldrh	r3, [r1, #0]
    b3dc:	f240 72c5 	movw	r2, #1989	; 0x7c5
    b3e0:	4293      	cmp	r3, r2
    b3e2:	d90c      	bls.n	b3fe <IziPlus_Module_TemperatureCheck+0x5a>
    b3e4:	f44f 63fa 	mov.w	r3, #2000	; 0x7d0
    b3e8:	800b      	strh	r3, [r1, #0]
    b3ea:	2000      	movs	r0, #0
    b3ec:	4770      	bx	lr
    b3ee:	880b      	ldrh	r3, [r1, #0]
    b3f0:	2b0a      	cmp	r3, #10
    b3f2:	bf8c      	ite	hi
    b3f4:	3b0a      	subhi	r3, #10
    b3f6:	2300      	movls	r3, #0
    b3f8:	800b      	strh	r3, [r1, #0]
    b3fa:	2001      	movs	r0, #1
    b3fc:	4770      	bx	lr
    b3fe:	330a      	adds	r3, #10
    b400:	800b      	strh	r3, [r1, #0]
    b402:	2001      	movs	r0, #1
    b404:	4770      	bx	lr
    b406:	d902      	bls.n	b40e <IziPlus_Module_TemperatureCheck+0x6a>
    b408:	f5b4 6ffa 	cmp.w	r4, #2000	; 0x7d0
    b40c:	d303      	bcc.n	b416 <IziPlus_Module_TemperatureCheck+0x72>
    b40e:	2001      	movs	r0, #1
    b410:	f85d 4b04 	ldr.w	r4, [sp], #4
    b414:	4770      	bx	lr
    b416:	3401      	adds	r4, #1
    b418:	800c      	strh	r4, [r1, #0]
    b41a:	2001      	movs	r0, #1
    b41c:	e7f8      	b.n	b410 <IziPlus_Module_TemperatureCheck+0x6c>
    b41e:	3c04      	subs	r4, #4
    b420:	800c      	strh	r4, [r1, #0]
    b422:	2001      	movs	r0, #1
    b424:	e7f4      	b.n	b410 <IziPlus_Module_TemperatureCheck+0x6c>
    b426:	bf00      	nop

0000b428 <IziPlus_Module_TempLimit>:
    b428:	490a      	ldr	r1, [pc, #40]	; (b454 <IziPlus_Module_TempLimit+0x2c>)
    b42a:	b510      	push	{r4, lr}
    b42c:	880a      	ldrh	r2, [r1, #0]
    b42e:	884c      	ldrh	r4, [r1, #2]
    b430:	888b      	ldrh	r3, [r1, #4]
    b432:	42a2      	cmp	r2, r4
    b434:	bf28      	it	cs
    b436:	4622      	movcs	r2, r4
    b438:	4293      	cmp	r3, r2
    b43a:	bf28      	it	cs
    b43c:	4613      	movcs	r3, r2
    b43e:	f5b3 6ffa 	cmp.w	r3, #2000	; 0x7d0
    b442:	d206      	bcs.n	b452 <IziPlus_Module_TempLimit+0x2a>
    b444:	fba3 0100 	umull	r0, r1, r3, r0
    b448:	4c03      	ldr	r4, [pc, #12]	; (b458 <IziPlus_Module_TempLimit+0x30>)
    b44a:	f44f 62fa 	mov.w	r2, #2000	; 0x7d0
    b44e:	2300      	movs	r3, #0
    b450:	47a0      	blx	r4
    b452:	bd10      	pop	{r4, pc}
    b454:	20002a10 	.word	0x20002a10
    b458:	00010705 	.word	0x00010705

0000b45c <IziPlus_Module_PowerCheck>:
    b45c:	b538      	push	{r3, r4, r5, lr}
    b45e:	4c25      	ldr	r4, [pc, #148]	; (b4f4 <IziPlus_Module_PowerCheck+0x98>)
    b460:	4b25      	ldr	r3, [pc, #148]	; (b4f8 <IziPlus_Module_PowerCheck+0x9c>)
    b462:	88a5      	ldrh	r5, [r4, #4]
    b464:	4798      	blx	r3
    b466:	4b25      	ldr	r3, [pc, #148]	; (b4fc <IziPlus_Module_PowerCheck+0xa0>)
    b468:	4a25      	ldr	r2, [pc, #148]	; (b500 <IziPlus_Module_PowerCheck+0xa4>)
    b46a:	f8d3 3088 	ldr.w	r3, [r3, #136]	; 0x88
    b46e:	f249 4170 	movw	r1, #38000	; 0x9470
    b472:	428b      	cmp	r3, r1
    b474:	bf28      	it	cs
    b476:	460b      	movcs	r3, r1
    b478:	4298      	cmp	r0, r3
    b47a:	6013      	str	r3, [r2, #0]
    b47c:	d911      	bls.n	b4a2 <IziPlus_Module_PowerCheck+0x46>
    b47e:	1ac3      	subs	r3, r0, r3
    b480:	f3c3 138f 	ubfx	r3, r3, #6, #16
    b484:	2b00      	cmp	r3, #0
    b486:	d030      	beq.n	b4ea <IziPlus_Module_PowerCheck+0x8e>
    b488:	f5b3 7f80 	cmp.w	r3, #256	; 0x100
    b48c:	bf28      	it	cs
    b48e:	f44f 7380 	movcs.w	r3, #256	; 0x100
    b492:	88a1      	ldrh	r1, [r4, #4]
    b494:	428b      	cmp	r3, r1
    b496:	bf96      	itet	ls
    b498:	1ac9      	subls	r1, r1, r3
    b49a:	2100      	movhi	r1, #0
    b49c:	b289      	uxthls	r1, r1
    b49e:	80a1      	strh	r1, [r4, #4]
    b4a0:	e006      	b.n	b4b0 <IziPlus_Module_PowerCheck+0x54>
    b4a2:	88a1      	ldrh	r1, [r4, #4]
    b4a4:	f5b1 6ffa 	cmp.w	r1, #2000	; 0x7d0
    b4a8:	d30d      	bcc.n	b4c6 <IziPlus_Module_PowerCheck+0x6a>
    b4aa:	f44f 61fa 	mov.w	r1, #2000	; 0x7d0
    b4ae:	80a1      	strh	r1, [r4, #4]
    b4b0:	4628      	mov	r0, r5
    b4b2:	2203      	movs	r2, #3
    b4b4:	4b13      	ldr	r3, [pc, #76]	; (b504 <IziPlus_Module_PowerCheck+0xa8>)
    b4b6:	4798      	blx	r3
    b4b8:	b280      	uxth	r0, r0
    b4ba:	80a0      	strh	r0, [r4, #4]
    b4bc:	f5b0 60fa 	subs.w	r0, r0, #2000	; 0x7d0
    b4c0:	bf18      	it	ne
    b4c2:	2001      	movne	r0, #1
    b4c4:	bd38      	pop	{r3, r4, r5, pc}
    b4c6:	1a1b      	subs	r3, r3, r0
    b4c8:	f3c3 138f 	ubfx	r3, r3, #6, #16
    b4cc:	b17b      	cbz	r3, b4ee <IziPlus_Module_PowerCheck+0x92>
    b4ce:	f5b3 7f80 	cmp.w	r3, #256	; 0x100
    b4d2:	bf28      	it	cs
    b4d4:	f44f 7380 	movcs.w	r3, #256	; 0x100
    b4d8:	461a      	mov	r2, r3
    b4da:	440a      	add	r2, r1
    b4dc:	f5b2 6ffa 	cmp.w	r2, #2000	; 0x7d0
    b4e0:	dce3      	bgt.n	b4aa <IziPlus_Module_PowerCheck+0x4e>
    b4e2:	440b      	add	r3, r1
    b4e4:	b299      	uxth	r1, r3
    b4e6:	80a1      	strh	r1, [r4, #4]
    b4e8:	e7e2      	b.n	b4b0 <IziPlus_Module_PowerCheck+0x54>
    b4ea:	2301      	movs	r3, #1
    b4ec:	e7d1      	b.n	b492 <IziPlus_Module_PowerCheck+0x36>
    b4ee:	2201      	movs	r2, #1
    b4f0:	4613      	mov	r3, r2
    b4f2:	e7f2      	b.n	b4da <IziPlus_Module_PowerCheck+0x7e>
    b4f4:	20002a10 	.word	0x20002a10
    b4f8:	0000785d 	.word	0x0000785d
    b4fc:	2000f8ac 	.word	0x2000f8ac
    b500:	2000f338 	.word	0x2000f338
    b504:	00007065 	.word	0x00007065

0000b508 <IziPlus_Module_Timer100ms>:
    b508:	e92d 4ff8 	stmdb	sp!, {r3, r4, r5, r6, r7, r8, r9, sl, fp, lr}
    b50c:	4ca0      	ldr	r4, [pc, #640]	; (b790 <IziPlus_Module_Timer100ms+0x288>)
    b50e:	89a3      	ldrh	r3, [r4, #12]
    b510:	3301      	adds	r3, #1
    b512:	b29b      	uxth	r3, r3
    b514:	2b09      	cmp	r3, #9
    b516:	bf88      	it	hi
    b518:	2300      	movhi	r3, #0
    b51a:	81a3      	strh	r3, [r4, #12]
    b51c:	8823      	ldrh	r3, [r4, #0]
    b51e:	b29b      	uxth	r3, r3
    b520:	b11b      	cbz	r3, b52a <IziPlus_Module_Timer100ms+0x22>
    b522:	8823      	ldrh	r3, [r4, #0]
    b524:	3b01      	subs	r3, #1
    b526:	b29b      	uxth	r3, r3
    b528:	8023      	strh	r3, [r4, #0]
    b52a:	4a9a      	ldr	r2, [pc, #616]	; (b794 <IziPlus_Module_Timer100ms+0x28c>)
    b52c:	8813      	ldrh	r3, [r2, #0]
    b52e:	b12b      	cbz	r3, b53c <IziPlus_Module_Timer100ms+0x34>
    b530:	3b01      	subs	r3, #1
    b532:	b29b      	uxth	r3, r3
    b534:	8013      	strh	r3, [r2, #0]
    b536:	2b00      	cmp	r3, #0
    b538:	f000 80ff 	beq.w	b73a <IziPlus_Module_Timer100ms+0x232>
    b53c:	4b96      	ldr	r3, [pc, #600]	; (b798 <IziPlus_Module_Timer100ms+0x290>)
    b53e:	4798      	blx	r3
    b540:	2800      	cmp	r0, #0
    b542:	f040 80d1 	bne.w	b6e8 <IziPlus_Module_Timer100ms+0x1e0>
    b546:	89e3      	ldrh	r3, [r4, #14]
    b548:	2b00      	cmp	r3, #0
    b54a:	d047      	beq.n	b5dc <IziPlus_Module_Timer100ms+0xd4>
    b54c:	3b01      	subs	r3, #1
    b54e:	b29b      	uxth	r3, r3
    b550:	81e3      	strh	r3, [r4, #14]
    b552:	2b00      	cmp	r3, #0
    b554:	f000 80b6 	beq.w	b6c4 <IziPlus_Module_Timer100ms+0x1bc>
    b558:	8a23      	ldrh	r3, [r4, #16]
    b55a:	2b00      	cmp	r3, #0
    b55c:	f000 80fd 	beq.w	b75a <IziPlus_Module_Timer100ms+0x252>
    b560:	2b01      	cmp	r3, #1
    b562:	f000 8151 	beq.w	b808 <IziPlus_Module_Timer100ms+0x300>
    b566:	2b02      	cmp	r3, #2
    b568:	f000 8160 	beq.w	b82c <IziPlus_Module_Timer100ms+0x324>
    b56c:	8aa2      	ldrh	r2, [r4, #20]
    b56e:	2a00      	cmp	r2, #0
    b570:	d034      	beq.n	b5dc <IziPlus_Module_Timer100ms+0xd4>
    b572:	2b40      	cmp	r3, #64	; 0x40
    b574:	f000 8192 	beq.w	b89c <IziPlus_Module_Timer100ms+0x394>
    b578:	2b41      	cmp	r3, #65	; 0x41
    b57a:	f000 8185 	beq.w	b888 <IziPlus_Module_Timer100ms+0x380>
    b57e:	2b42      	cmp	r3, #66	; 0x42
    b580:	f000 8198 	beq.w	b8b4 <IziPlus_Module_Timer100ms+0x3ac>
    b584:	2be0      	cmp	r3, #224	; 0xe0
    b586:	d129      	bne.n	b5dc <IziPlus_Module_Timer100ms+0xd4>
    b588:	f44f 707a 	mov.w	r0, #1000	; 0x3e8
    b58c:	4b83      	ldr	r3, [pc, #524]	; (b79c <IziPlus_Module_Timer100ms+0x294>)
    b58e:	4798      	blx	r3
    b590:	20c8      	movs	r0, #200	; 0xc8
    b592:	4b83      	ldr	r3, [pc, #524]	; (b7a0 <IziPlus_Module_Timer100ms+0x298>)
    b594:	4798      	blx	r3
    b596:	4b83      	ldr	r3, [pc, #524]	; (b7a4 <IziPlus_Module_Timer100ms+0x29c>)
    b598:	4798      	blx	r3
    b59a:	4b83      	ldr	r3, [pc, #524]	; (b7a8 <IziPlus_Module_Timer100ms+0x2a0>)
    b59c:	4983      	ldr	r1, [pc, #524]	; (b7ac <IziPlus_Module_Timer100ms+0x2a4>)
    b59e:	4a84      	ldr	r2, [pc, #528]	; (b7b0 <IziPlus_Module_Timer100ms+0x2a8>)
    b5a0:	e883 0006 	stmia.w	r3, {r1, r2}
    b5a4:	f3bf 8f4f 	dsb	sy
    b5a8:	4982      	ldr	r1, [pc, #520]	; (b7b4 <IziPlus_Module_Timer100ms+0x2ac>)
    b5aa:	4b83      	ldr	r3, [pc, #524]	; (b7b8 <IziPlus_Module_Timer100ms+0x2b0>)
    b5ac:	68ca      	ldr	r2, [r1, #12]
    b5ae:	f402 62e0 	and.w	r2, r2, #1792	; 0x700
    b5b2:	4313      	orrs	r3, r2
    b5b4:	60cb      	str	r3, [r1, #12]
    b5b6:	f3bf 8f4f 	dsb	sy
    b5ba:	bf00      	nop
    b5bc:	e7fd      	b.n	b5ba <IziPlus_Module_Timer100ms+0xb2>
    b5be:	7ca3      	ldrb	r3, [r4, #18]
    b5c0:	2b06      	cmp	r3, #6
    b5c2:	d902      	bls.n	b5ca <IziPlus_Module_Timer100ms+0xc2>
    b5c4:	8823      	ldrh	r3, [r4, #0]
    b5c6:	b29b      	uxth	r3, r3
    b5c8:	b943      	cbnz	r3, b5dc <IziPlus_Module_Timer100ms+0xd4>
    b5ca:	4a7c      	ldr	r2, [pc, #496]	; (b7bc <IziPlus_Module_Timer100ms+0x2b4>)
    b5cc:	4b7c      	ldr	r3, [pc, #496]	; (b7c0 <IziPlus_Module_Timer100ms+0x2b8>)
    b5ce:	f8d2 00f8 	ldr.w	r0, [r2, #248]	; 0xf8
    b5d2:	f44f 71fa 	mov.w	r1, #500	; 0x1f4
    b5d6:	2206      	movs	r2, #6
    b5d8:	74a2      	strb	r2, [r4, #18]
    b5da:	4798      	blx	r3
    b5dc:	7da3      	ldrb	r3, [r4, #22]
    b5de:	3301      	adds	r3, #1
    b5e0:	b2db      	uxtb	r3, r3
    b5e2:	2b09      	cmp	r3, #9
    b5e4:	75a3      	strb	r3, [r4, #22]
    b5e6:	d963      	bls.n	b6b0 <IziPlus_Module_Timer100ms+0x1a8>
    b5e8:	4b76      	ldr	r3, [pc, #472]	; (b7c4 <IziPlus_Module_Timer100ms+0x2bc>)
    b5ea:	4f77      	ldr	r7, [pc, #476]	; (b7c8 <IziPlus_Module_Timer100ms+0x2c0>)
    b5ec:	6818      	ldr	r0, [r3, #0]
    b5ee:	6839      	ldr	r1, [r7, #0]
    b5f0:	4e72      	ldr	r6, [pc, #456]	; (b7bc <IziPlus_Module_Timer100ms+0x2b4>)
    b5f2:	68c2      	ldr	r2, [r0, #12]
    b5f4:	68cb      	ldr	r3, [r1, #12]
    b5f6:	78f5      	ldrb	r5, [r6, #3]
    b5f8:	3201      	adds	r2, #1
    b5fa:	3301      	adds	r3, #1
    b5fc:	60c2      	str	r2, [r0, #12]
    b5fe:	60cb      	str	r3, [r1, #12]
    b600:	2d00      	cmp	r5, #0
    b602:	d04d      	beq.n	b6a0 <IziPlus_Module_Timer100ms+0x198>
    b604:	f8df 81fc 	ldr.w	r8, [pc, #508]	; b804 <IziPlus_Module_Timer100ms+0x2fc>
    b608:	f106 0518 	add.w	r5, r6, #24
    b60c:	f04f 0900 	mov.w	r9, #0
    b610:	e009      	b.n	b626 <IziPlus_Module_Timer100ms+0x11e>
    b612:	f8db 3028 	ldr.w	r3, [fp, #40]	; 0x28
    b616:	3301      	adds	r3, #1
    b618:	f8cb 3028 	str.w	r3, [fp, #40]	; 0x28
    b61c:	78f3      	ldrb	r3, [r6, #3]
    b61e:	f109 0901 	add.w	r9, r9, #1
    b622:	454b      	cmp	r3, r9
    b624:	dd3c      	ble.n	b6a0 <IziPlus_Module_Timer100ms+0x198>
    b626:	f815 ab01 	ldrb.w	sl, [r5], #1
    b62a:	4b68      	ldr	r3, [pc, #416]	; (b7cc <IziPlus_Module_Timer100ms+0x2c4>)
    b62c:	4650      	mov	r0, sl
    b62e:	4798      	blx	r3
    b630:	2800      	cmp	r0, #0
    b632:	d0f3      	beq.n	b61c <IziPlus_Module_Timer100ms+0x114>
    b634:	683b      	ldr	r3, [r7, #0]
    b636:	f838 201a 	ldrh.w	r2, [r8, sl, lsl #1]
    b63a:	ea4f 0b8a 	mov.w	fp, sl, lsl #2
    b63e:	eb03 0e0b 	add.w	lr, r3, fp
    b642:	4410      	add	r0, r2
    b644:	f8de 3018 	ldr.w	r3, [lr, #24]
    b648:	4a61      	ldr	r2, [pc, #388]	; (b7d0 <IziPlus_Module_Timer100ms+0x2c8>)
    b64a:	3301      	adds	r3, #1
    b64c:	fba2 1203 	umull	r1, r2, r2, r3
    b650:	0952      	lsrs	r2, r2, #5
    b652:	ebc2 1202 	rsb	r2, r2, r2, lsl #4
    b656:	b280      	uxth	r0, r0
    b658:	f8ce 3018 	str.w	r3, [lr, #24]
    b65c:	ebb3 0382 	subs.w	r3, r3, r2, lsl #2
    b660:	f828 001a 	strh.w	r0, [r8, sl, lsl #1]
    b664:	d10a      	bne.n	b67c <IziPlus_Module_Timer100ms+0x174>
    b666:	f828 301a 	strh.w	r3, [r8, sl, lsl #1]
    b66a:	4b59      	ldr	r3, [pc, #356]	; (b7d0 <IziPlus_Module_Timer100ms+0x2c8>)
    b66c:	f8de 1068 	ldr.w	r1, [lr, #104]	; 0x68
    b670:	fba3 3000 	umull	r3, r0, r3, r0
    b674:	eb01 1050 	add.w	r0, r1, r0, lsr #5
    b678:	f8ce 0068 	str.w	r0, [lr, #104]	; 0x68
    b67c:	4b55      	ldr	r3, [pc, #340]	; (b7d4 <IziPlus_Module_Timer100ms+0x2cc>)
    b67e:	4798      	blx	r3
    b680:	683b      	ldr	r3, [r7, #0]
    b682:	2827      	cmp	r0, #39	; 0x27
    b684:	449b      	add	fp, r3
    b686:	d9c4      	bls.n	b612 <IziPlus_Module_Timer100ms+0x10a>
    b688:	283b      	cmp	r0, #59	; 0x3b
    b68a:	d813      	bhi.n	b6b4 <IziPlus_Module_Timer100ms+0x1ac>
    b68c:	f8db 3038 	ldr.w	r3, [fp, #56]	; 0x38
    b690:	3301      	adds	r3, #1
    b692:	f8cb 3038 	str.w	r3, [fp, #56]	; 0x38
    b696:	78f3      	ldrb	r3, [r6, #3]
    b698:	f109 0901 	add.w	r9, r9, #1
    b69c:	454b      	cmp	r3, r9
    b69e:	dcc2      	bgt.n	b626 <IziPlus_Module_Timer100ms+0x11e>
    b6a0:	8b23      	ldrh	r3, [r4, #24]
    b6a2:	f5b3 6f61 	cmp.w	r3, #3600	; 0xe10
    b6a6:	d201      	bcs.n	b6ac <IziPlus_Module_Timer100ms+0x1a4>
    b6a8:	3301      	adds	r3, #1
    b6aa:	8323      	strh	r3, [r4, #24]
    b6ac:	2300      	movs	r3, #0
    b6ae:	75a3      	strb	r3, [r4, #22]
    b6b0:	e8bd 8ff8 	ldmia.w	sp!, {r3, r4, r5, r6, r7, r8, r9, sl, fp, pc}
    b6b4:	284f      	cmp	r0, #79	; 0x4f
    b6b6:	d836      	bhi.n	b726 <IziPlus_Module_Timer100ms+0x21e>
    b6b8:	f8db 3048 	ldr.w	r3, [fp, #72]	; 0x48
    b6bc:	3301      	adds	r3, #1
    b6be:	f8cb 3048 	str.w	r3, [fp, #72]	; 0x48
    b6c2:	e7ab      	b.n	b61c <IziPlus_Module_Timer100ms+0x114>
    b6c4:	7ca3      	ldrb	r3, [r4, #18]
    b6c6:	2b06      	cmp	r3, #6
    b6c8:	d902      	bls.n	b6d0 <IziPlus_Module_Timer100ms+0x1c8>
    b6ca:	8823      	ldrh	r3, [r4, #0]
    b6cc:	b29b      	uxth	r3, r3
    b6ce:	b92b      	cbnz	r3, b6dc <IziPlus_Module_Timer100ms+0x1d4>
    b6d0:	2100      	movs	r1, #0
    b6d2:	2206      	movs	r2, #6
    b6d4:	4608      	mov	r0, r1
    b6d6:	4b3a      	ldr	r3, [pc, #232]	; (b7c0 <IziPlus_Module_Timer100ms+0x2b8>)
    b6d8:	74a2      	strb	r2, [r4, #18]
    b6da:	4798      	blx	r3
    b6dc:	4b3e      	ldr	r3, [pc, #248]	; (b7d8 <IziPlus_Module_Timer100ms+0x2d0>)
    b6de:	781a      	ldrb	r2, [r3, #0]
    b6e0:	f36f 1246 	bfc	r2, #5, #2
    b6e4:	701a      	strb	r2, [r3, #0]
    b6e6:	e779      	b.n	b5dc <IziPlus_Module_Timer100ms+0xd4>
    b6e8:	4b3c      	ldr	r3, [pc, #240]	; (b7dc <IziPlus_Module_Timer100ms+0x2d4>)
    b6ea:	4d3d      	ldr	r5, [pc, #244]	; (b7e0 <IziPlus_Module_Timer100ms+0x2d8>)
    b6ec:	4798      	blx	r3
    b6ee:	4b3d      	ldr	r3, [pc, #244]	; (b7e4 <IziPlus_Module_Timer100ms+0x2dc>)
    b6f0:	8962      	ldrh	r2, [r4, #10]
    b6f2:	881b      	ldrh	r3, [r3, #0]
    b6f4:	493c      	ldr	r1, [pc, #240]	; (b7e8 <IziPlus_Module_Timer100ms+0x2e0>)
    b6f6:	b200      	sxth	r0, r0
    b6f8:	b21b      	sxth	r3, r3
    b6fa:	b212      	sxth	r2, r2
    b6fc:	47a8      	blx	r5
    b6fe:	b9c0      	cbnz	r0, b732 <IziPlus_Module_Timer100ms+0x22a>
    b700:	2003      	movs	r0, #3
    b702:	4b3a      	ldr	r3, [pc, #232]	; (b7ec <IziPlus_Module_Timer100ms+0x2e4>)
    b704:	4798      	blx	r3
    b706:	4b3a      	ldr	r3, [pc, #232]	; (b7f0 <IziPlus_Module_Timer100ms+0x2e8>)
    b708:	4798      	blx	r3
    b70a:	4b3a      	ldr	r3, [pc, #232]	; (b7f4 <IziPlus_Module_Timer100ms+0x2ec>)
    b70c:	8922      	ldrh	r2, [r4, #8]
    b70e:	881b      	ldrh	r3, [r3, #0]
    b710:	4939      	ldr	r1, [pc, #228]	; (b7f8 <IziPlus_Module_Timer100ms+0x2f0>)
    b712:	b200      	sxth	r0, r0
    b714:	b21b      	sxth	r3, r3
    b716:	b212      	sxth	r2, r2
    b718:	47a8      	blx	r5
    b71a:	2800      	cmp	r0, #0
    b71c:	d034      	beq.n	b788 <IziPlus_Module_Timer100ms+0x280>
    b71e:	2002      	movs	r0, #2
    b720:	4b36      	ldr	r3, [pc, #216]	; (b7fc <IziPlus_Module_Timer100ms+0x2f4>)
    b722:	4798      	blx	r3
    b724:	e70f      	b.n	b546 <IziPlus_Module_Timer100ms+0x3e>
    b726:	f8db 3058 	ldr.w	r3, [fp, #88]	; 0x58
    b72a:	3301      	adds	r3, #1
    b72c:	f8cb 3058 	str.w	r3, [fp, #88]	; 0x58
    b730:	e774      	b.n	b61c <IziPlus_Module_Timer100ms+0x114>
    b732:	2003      	movs	r0, #3
    b734:	4b31      	ldr	r3, [pc, #196]	; (b7fc <IziPlus_Module_Timer100ms+0x2f4>)
    b736:	4798      	blx	r3
    b738:	e7e5      	b.n	b706 <IziPlus_Module_Timer100ms+0x1fe>
    b73a:	4927      	ldr	r1, [pc, #156]	; (b7d8 <IziPlus_Module_Timer100ms+0x2d0>)
    b73c:	4830      	ldr	r0, [pc, #192]	; (b800 <IziPlus_Module_Timer100ms+0x2f8>)
    b73e:	780a      	ldrb	r2, [r1, #0]
    b740:	f363 0200 	bfi	r2, r3, #0, #1
    b744:	f363 0241 	bfi	r2, r3, #1, #1
    b748:	f363 0282 	bfi	r2, r3, #2, #1
    b74c:	f363 1204 	bfi	r2, r3, #4, #1
    b750:	f363 02c3 	bfi	r2, r3, #3, #1
    b754:	700a      	strb	r2, [r1, #0]
    b756:	4780      	blx	r0
    b758:	e6f0      	b.n	b53c <IziPlus_Module_Timer100ms+0x34>
    b75a:	89a3      	ldrh	r3, [r4, #12]
    b75c:	2b01      	cmp	r3, #1
    b75e:	f43f af2e 	beq.w	b5be <IziPlus_Module_Timer100ms+0xb6>
    b762:	2b06      	cmp	r3, #6
    b764:	f47f af3a 	bne.w	b5dc <IziPlus_Module_Timer100ms+0xd4>
    b768:	7ca3      	ldrb	r3, [r4, #18]
    b76a:	2b06      	cmp	r3, #6
    b76c:	d904      	bls.n	b778 <IziPlus_Module_Timer100ms+0x270>
    b76e:	8823      	ldrh	r3, [r4, #0]
    b770:	b29b      	uxth	r3, r3
    b772:	2b00      	cmp	r3, #0
    b774:	f47f af32 	bne.w	b5dc <IziPlus_Module_Timer100ms+0xd4>
    b778:	2206      	movs	r2, #6
    b77a:	f44f 71fa 	mov.w	r1, #500	; 0x1f4
    b77e:	2000      	movs	r0, #0
    b780:	4b0f      	ldr	r3, [pc, #60]	; (b7c0 <IziPlus_Module_Timer100ms+0x2b8>)
    b782:	74a2      	strb	r2, [r4, #18]
    b784:	4798      	blx	r3
    b786:	e729      	b.n	b5dc <IziPlus_Module_Timer100ms+0xd4>
    b788:	2002      	movs	r0, #2
    b78a:	4b18      	ldr	r3, [pc, #96]	; (b7ec <IziPlus_Module_Timer100ms+0x2e4>)
    b78c:	4798      	blx	r3
    b78e:	e6da      	b.n	b546 <IziPlus_Module_Timer100ms+0x3e>
    b790:	200057ac 	.word	0x200057ac
    b794:	2000f2b0 	.word	0x2000f2b0
    b798:	0000cc79 	.word	0x0000cc79
    b79c:	000070a1 	.word	0x000070a1
    b7a0:	0000ef31 	.word	0x0000ef31
    b7a4:	00006225 	.word	0x00006225
    b7a8:	2001ff00 	.word	0x2001ff00
    b7ac:	abbaacdc 	.word	0xabbaacdc
    b7b0:	778899aa 	.word	0x778899aa
    b7b4:	e000ed00 	.word	0xe000ed00
    b7b8:	05fa0004 	.word	0x05fa0004
    b7bc:	2000f8ac 	.word	0x2000f8ac
    b7c0:	0000ace1 	.word	0x0000ace1
    b7c4:	2000ee30 	.word	0x2000ee30
    b7c8:	2000f038 	.word	0x2000f038
    b7cc:	00007885 	.word	0x00007885
    b7d0:	88888889 	.word	0x88888889
    b7d4:	0000cf39 	.word	0x0000cf39
    b7d8:	2000f334 	.word	0x2000f334
    b7dc:	0000cf5d 	.word	0x0000cf5d
    b7e0:	0000b3a5 	.word	0x0000b3a5
    b7e4:	2000f302 	.word	0x2000f302
    b7e8:	20002a12 	.word	0x20002a12
    b7ec:	0000d109 	.word	0x0000d109
    b7f0:	0000cf11 	.word	0x0000cf11
    b7f4:	2000f9ac 	.word	0x2000f9ac
    b7f8:	20002a10 	.word	0x20002a10
    b7fc:	0000d0f9 	.word	0x0000d0f9
    b800:	0000b135 	.word	0x0000b135
    b804:	2000f32c 	.word	0x2000f32c
    b808:	7ca3      	ldrb	r3, [r4, #18]
    b80a:	2b06      	cmp	r3, #6
    b80c:	d904      	bls.n	b818 <IziPlus_Module_Timer100ms+0x310>
    b80e:	8823      	ldrh	r3, [r4, #0]
    b810:	b29b      	uxth	r3, r3
    b812:	2b00      	cmp	r3, #0
    b814:	f47f aee2 	bne.w	b5dc <IziPlus_Module_Timer100ms+0xd4>
    b818:	4a2b      	ldr	r2, [pc, #172]	; (b8c8 <IziPlus_Module_Timer100ms+0x3c0>)
    b81a:	4b2c      	ldr	r3, [pc, #176]	; (b8cc <IziPlus_Module_Timer100ms+0x3c4>)
    b81c:	f8d2 00f8 	ldr.w	r0, [r2, #248]	; 0xf8
    b820:	f44f 717a 	mov.w	r1, #1000	; 0x3e8
    b824:	2206      	movs	r2, #6
    b826:	74a2      	strb	r2, [r4, #18]
    b828:	4798      	blx	r3
    b82a:	e6d7      	b.n	b5dc <IziPlus_Module_Timer100ms+0xd4>
    b82c:	4e26      	ldr	r6, [pc, #152]	; (b8c8 <IziPlus_Module_Timer100ms+0x3c0>)
    b82e:	78f3      	ldrb	r3, [r6, #3]
    b830:	2b00      	cmp	r3, #0
    b832:	f43f aed3 	beq.w	b5dc <IziPlus_Module_Timer100ms+0xd4>
    b836:	4f26      	ldr	r7, [pc, #152]	; (b8d0 <IziPlus_Module_Timer100ms+0x3c8>)
    b838:	4d26      	ldr	r5, [pc, #152]	; (b8d4 <IziPlus_Module_Timer100ms+0x3cc>)
    b83a:	f8df 90a8 	ldr.w	r9, [pc, #168]	; b8e4 <IziPlus_Module_Timer100ms+0x3dc>
    b83e:	f04f 0a00 	mov.w	sl, #0
    b842:	f04f 0806 	mov.w	r8, #6
    b846:	47b8      	blx	r7
    b848:	f8d6 30f8 	ldr.w	r3, [r6, #248]	; 0xf8
    b84c:	7ca2      	ldrb	r2, [r4, #18]
    b84e:	ea4f 01ca 	mov.w	r1, sl, lsl #3
    b852:	40cb      	lsrs	r3, r1
    b854:	b2db      	uxtb	r3, r3
    b856:	fb00 f003 	mul.w	r0, r0, r3
    b85a:	fb85 1300 	smull	r1, r3, r5, r0
    b85e:	17c0      	asrs	r0, r0, #31
    b860:	ebc0 1063 	rsb	r0, r0, r3, asr #5
    b864:	2a06      	cmp	r2, #6
    b866:	b2c0      	uxtb	r0, r0
    b868:	d902      	bls.n	b870 <IziPlus_Module_Timer100ms+0x368>
    b86a:	8823      	ldrh	r3, [r4, #0]
    b86c:	b29b      	uxth	r3, r3
    b86e:	b92b      	cbnz	r3, b87c <IziPlus_Module_Timer100ms+0x374>
    b870:	230a      	movs	r3, #10
    b872:	f884 8012 	strb.w	r8, [r4, #18]
    b876:	f809 000a 	strb.w	r0, [r9, sl]
    b87a:	8023      	strh	r3, [r4, #0]
    b87c:	78f3      	ldrb	r3, [r6, #3]
    b87e:	f10a 0a01 	add.w	sl, sl, #1
    b882:	4553      	cmp	r3, sl
    b884:	dcdf      	bgt.n	b846 <IziPlus_Module_Timer100ms+0x33e>
    b886:	e6a9      	b.n	b5dc <IziPlus_Module_Timer100ms+0xd4>
    b888:	2302      	movs	r3, #2
    b88a:	2204      	movs	r2, #4
    b88c:	2108      	movs	r1, #8
    b88e:	2000      	movs	r0, #0
    b890:	4d11      	ldr	r5, [pc, #68]	; (b8d8 <IziPlus_Module_Timer100ms+0x3d0>)
    b892:	47a8      	blx	r5
    b894:	2000      	movs	r0, #0
    b896:	4b11      	ldr	r3, [pc, #68]	; (b8dc <IziPlus_Module_Timer100ms+0x3d4>)
    b898:	4798      	blx	r3
    b89a:	e69f      	b.n	b5dc <IziPlus_Module_Timer100ms+0xd4>
    b89c:	2204      	movs	r2, #4
    b89e:	2106      	movs	r1, #6
    b8a0:	2000      	movs	r0, #0
    b8a2:	2302      	movs	r3, #2
    b8a4:	4d0c      	ldr	r5, [pc, #48]	; (b8d8 <IziPlus_Module_Timer100ms+0x3d0>)
    b8a6:	47a8      	blx	r5
    b8a8:	4b0d      	ldr	r3, [pc, #52]	; (b8e0 <IziPlus_Module_Timer100ms+0x3d8>)
    b8aa:	4798      	blx	r3
    b8ac:	2000      	movs	r0, #0
    b8ae:	4b0b      	ldr	r3, [pc, #44]	; (b8dc <IziPlus_Module_Timer100ms+0x3d4>)
    b8b0:	4798      	blx	r3
    b8b2:	e693      	b.n	b5dc <IziPlus_Module_Timer100ms+0xd4>
    b8b4:	2302      	movs	r3, #2
    b8b6:	4619      	mov	r1, r3
    b8b8:	2204      	movs	r2, #4
    b8ba:	2000      	movs	r0, #0
    b8bc:	4d06      	ldr	r5, [pc, #24]	; (b8d8 <IziPlus_Module_Timer100ms+0x3d0>)
    b8be:	47a8      	blx	r5
    b8c0:	2001      	movs	r0, #1
    b8c2:	4b06      	ldr	r3, [pc, #24]	; (b8dc <IziPlus_Module_Timer100ms+0x3d4>)
    b8c4:	4798      	blx	r3
    b8c6:	e689      	b.n	b5dc <IziPlus_Module_Timer100ms+0xd4>
    b8c8:	2000f8ac 	.word	0x2000f8ac
    b8cc:	0000ace1 	.word	0x0000ace1
    b8d0:	00004a65 	.word	0x00004a65
    b8d4:	51eb851f 	.word	0x51eb851f
    b8d8:	0000d1c1 	.word	0x0000d1c1
    b8dc:	000060fd 	.word	0x000060fd
    b8e0:	00005f29 	.word	0x00005f29
    b8e4:	2000f2f8 	.word	0x2000f2f8

0000b8e8 <IziPlus_Module_IdentifySync>:
    b8e8:	4b01      	ldr	r3, [pc, #4]	; (b8f0 <IziPlus_Module_IdentifySync+0x8>)
    b8ea:	2200      	movs	r2, #0
    b8ec:	819a      	strh	r2, [r3, #12]
    b8ee:	4770      	bx	lr
    b8f0:	200057ac 	.word	0x200057ac

0000b8f4 <IziPlus_Module_IsIdentifying>:
    b8f4:	4b02      	ldr	r3, [pc, #8]	; (b900 <IziPlus_Module_IsIdentifying+0xc>)
    b8f6:	89d8      	ldrh	r0, [r3, #14]
    b8f8:	3000      	adds	r0, #0
    b8fa:	bf18      	it	ne
    b8fc:	2001      	movne	r0, #1
    b8fe:	4770      	bx	lr
    b900:	200057ac 	.word	0x200057ac

0000b904 <IziPlus_Module_GetCpuState>:
    b904:	4b01      	ldr	r3, [pc, #4]	; (b90c <IziPlus_Module_GetCpuState+0x8>)
    b906:	8818      	ldrh	r0, [r3, #0]
    b908:	4770      	bx	lr
    b90a:	bf00      	nop
    b90c:	2000f334 	.word	0x2000f334

0000b910 <IziPlus_EmitterOk>:
    b910:	4b02      	ldr	r3, [pc, #8]	; (b91c <IziPlus_EmitterOk+0xc>)
    b912:	8858      	ldrh	r0, [r3, #2]
    b914:	43c0      	mvns	r0, r0
    b916:	f3c0 30c0 	ubfx	r0, r0, #15, #1
    b91a:	4770      	bx	lr
    b91c:	200057ac 	.word	0x200057ac

0000b920 <IziPlus_Module_MonitorValue>:
    b920:	2801      	cmp	r0, #1
    b922:	b570      	push	{r4, r5, r6, lr}
    b924:	4604      	mov	r4, r0
    b926:	460d      	mov	r5, r1
    b928:	d077      	beq.n	ba1a <IziPlus_Module_MonitorValue+0xfa>
    b92a:	2813      	cmp	r0, #19
    b92c:	d07e      	beq.n	ba2c <IziPlus_Module_MonitorValue+0x10c>
    b92e:	281a      	cmp	r0, #26
    b930:	f000 8081 	beq.w	ba36 <IziPlus_Module_MonitorValue+0x116>
    b934:	2817      	cmp	r0, #23
    b936:	d02b      	beq.n	b990 <IziPlus_Module_MonitorValue+0x70>
    b938:	2804      	cmp	r0, #4
    b93a:	f000 8087 	beq.w	ba4c <IziPlus_Module_MonitorValue+0x12c>
    b93e:	2803      	cmp	r0, #3
    b940:	f000 808f 	beq.w	ba62 <IziPlus_Module_MonitorValue+0x142>
    b944:	280d      	cmp	r0, #13
    b946:	f000 80b1 	beq.w	baac <IziPlus_Module_MonitorValue+0x18c>
    b94a:	280c      	cmp	r0, #12
    b94c:	f000 80b3 	beq.w	bab6 <IziPlus_Module_MonitorValue+0x196>
    b950:	2820      	cmp	r0, #32
    b952:	d05a      	beq.n	ba0a <IziPlus_Module_MonitorValue+0xea>
    b954:	2823      	cmp	r0, #35	; 0x23
    b956:	d04a      	beq.n	b9ee <IziPlus_Module_MonitorValue+0xce>
    b958:	2815      	cmp	r0, #21
    b95a:	f000 80b1 	beq.w	bac0 <IziPlus_Module_MonitorValue+0x1a0>
    b95e:	281e      	cmp	r0, #30
    b960:	f000 8084 	beq.w	ba6c <IziPlus_Module_MonitorValue+0x14c>
    b964:	2822      	cmp	r0, #34	; 0x22
    b966:	d076      	beq.n	ba56 <IziPlus_Module_MonitorValue+0x136>
    b968:	281f      	cmp	r0, #31
    b96a:	f000 80f3 	beq.w	bb54 <IziPlus_Module_MonitorValue+0x234>
    b96e:	2821      	cmp	r0, #33	; 0x21
    b970:	f000 80dd 	beq.w	bb2e <IziPlus_Module_MonitorValue+0x20e>
    b974:	2824      	cmp	r0, #36	; 0x24
    b976:	f000 80fa 	beq.w	bb6e <IziPlus_Module_MonitorValue+0x24e>
    b97a:	2825      	cmp	r0, #37	; 0x25
    b97c:	f000 8110 	beq.w	bba0 <IziPlus_Module_MonitorValue+0x280>
    b980:	282a      	cmp	r0, #42	; 0x2a
    b982:	f000 812d 	beq.w	bbe0 <IziPlus_Module_MonitorValue+0x2c0>
    b986:	282b      	cmp	r0, #43	; 0x2b
    b988:	f000 814c 	beq.w	bc24 <IziPlus_Module_MonitorValue+0x304>
    b98c:	2400      	movs	r4, #0
    b98e:	e020      	b.n	b9d2 <IziPlus_Module_MonitorValue+0xb2>
    b990:	4cb4      	ldr	r4, [pc, #720]	; (bc64 <IziPlus_Module_MonitorValue+0x344>)
    b992:	8823      	ldrh	r3, [r4, #0]
    b994:	8866      	ldrh	r6, [r4, #2]
    b996:	42b3      	cmp	r3, r6
    b998:	d81d      	bhi.n	b9d6 <IziPlus_Module_MonitorValue+0xb6>
    b99a:	4eb3      	ldr	r6, [pc, #716]	; (bc68 <IziPlus_Module_MonitorValue+0x348>)
    b99c:	fba6 2303 	umull	r2, r3, r6, r3
    b9a0:	f3c3 1607 	ubfx	r6, r3, #4, #8
    b9a4:	2007      	movs	r0, #7
    b9a6:	4bb1      	ldr	r3, [pc, #708]	; (bc6c <IziPlus_Module_MonitorValue+0x34c>)
    b9a8:	4798      	blx	r3
    b9aa:	b1f0      	cbz	r0, b9ea <IziPlus_Module_MonitorValue+0xca>
    b9ac:	88a3      	ldrh	r3, [r4, #4]
    b9ae:	4aae      	ldr	r2, [pc, #696]	; (bc68 <IziPlus_Module_MonitorValue+0x348>)
    b9b0:	fba2 2303 	umull	r2, r3, r2, r3
    b9b4:	091b      	lsrs	r3, r3, #4
    b9b6:	b2db      	uxtb	r3, r3
    b9b8:	42b3      	cmp	r3, r6
    b9ba:	bf28      	it	cs
    b9bc:	4633      	movcs	r3, r6
    b9be:	4aac      	ldr	r2, [pc, #688]	; (bc70 <IziPlus_Module_MonitorValue+0x350>)
    b9c0:	702b      	strb	r3, [r5, #0]
    b9c2:	6813      	ldr	r3, [r2, #0]
    b9c4:	4aab      	ldr	r2, [pc, #684]	; (bc74 <IziPlus_Module_MonitorValue+0x354>)
    b9c6:	7f19      	ldrb	r1, [r3, #28]
    b9c8:	78d2      	ldrb	r2, [r2, #3]
    b9ca:	4291      	cmp	r1, r2
    b9cc:	d922      	bls.n	ba14 <IziPlus_Module_MonitorValue+0xf4>
    b9ce:	771a      	strb	r2, [r3, #28]
    b9d0:	2401      	movs	r4, #1
    b9d2:	4620      	mov	r0, r4
    b9d4:	bd70      	pop	{r4, r5, r6, pc}
    b9d6:	4ba4      	ldr	r3, [pc, #656]	; (bc68 <IziPlus_Module_MonitorValue+0x348>)
    b9d8:	2007      	movs	r0, #7
    b9da:	fba3 3606 	umull	r3, r6, r3, r6
    b9de:	4ba3      	ldr	r3, [pc, #652]	; (bc6c <IziPlus_Module_MonitorValue+0x34c>)
    b9e0:	f3c6 1607 	ubfx	r6, r6, #4, #8
    b9e4:	4798      	blx	r3
    b9e6:	2800      	cmp	r0, #0
    b9e8:	d1e0      	bne.n	b9ac <IziPlus_Module_MonitorValue+0x8c>
    b9ea:	2364      	movs	r3, #100	; 0x64
    b9ec:	e7e3      	b.n	b9b6 <IziPlus_Module_MonitorValue+0x96>
    b9ee:	4ba0      	ldr	r3, [pc, #640]	; (bc70 <IziPlus_Module_MonitorValue+0x350>)
    b9f0:	4aa1      	ldr	r2, [pc, #644]	; (bc78 <IziPlus_Module_MonitorValue+0x358>)
    b9f2:	681b      	ldr	r3, [r3, #0]
    b9f4:	691b      	ldr	r3, [r3, #16]
    b9f6:	fba2 2303 	umull	r2, r3, r2, r3
    b9fa:	0b5b      	lsrs	r3, r3, #13
    b9fc:	f3c3 2207 	ubfx	r2, r3, #8, #8
    ba00:	2402      	movs	r4, #2
    ba02:	702b      	strb	r3, [r5, #0]
    ba04:	706a      	strb	r2, [r5, #1]
    ba06:	4620      	mov	r0, r4
    ba08:	bd70      	pop	{r4, r5, r6, pc}
    ba0a:	4b99      	ldr	r3, [pc, #612]	; (bc70 <IziPlus_Module_MonitorValue+0x350>)
    ba0c:	4a9a      	ldr	r2, [pc, #616]	; (bc78 <IziPlus_Module_MonitorValue+0x358>)
    ba0e:	681b      	ldr	r3, [r3, #0]
    ba10:	68db      	ldr	r3, [r3, #12]
    ba12:	e7f0      	b.n	b9f6 <IziPlus_Module_MonitorValue+0xd6>
    ba14:	2401      	movs	r4, #1
    ba16:	4620      	mov	r0, r4
    ba18:	bd70      	pop	{r4, r5, r6, pc}
    ba1a:	4b98      	ldr	r3, [pc, #608]	; (bc7c <IziPlus_Module_MonitorValue+0x35c>)
    ba1c:	4798      	blx	r3
    ba1e:	4b98      	ldr	r3, [pc, #608]	; (bc80 <IziPlus_Module_MonitorValue+0x360>)
    ba20:	307d      	adds	r0, #125	; 0x7d
    ba22:	fba3 3000 	umull	r3, r0, r3, r0
    ba26:	0900      	lsrs	r0, r0, #4
    ba28:	7028      	strb	r0, [r5, #0]
    ba2a:	e7d2      	b.n	b9d2 <IziPlus_Module_MonitorValue+0xb2>
    ba2c:	4b95      	ldr	r3, [pc, #596]	; (bc84 <IziPlus_Module_MonitorValue+0x364>)
    ba2e:	4798      	blx	r3
    ba30:	2401      	movs	r4, #1
    ba32:	7028      	strb	r0, [r5, #0]
    ba34:	e7cd      	b.n	b9d2 <IziPlus_Module_MonitorValue+0xb2>
    ba36:	4b94      	ldr	r3, [pc, #592]	; (bc88 <IziPlus_Module_MonitorValue+0x368>)
    ba38:	4798      	blx	r3
    ba3a:	4b94      	ldr	r3, [pc, #592]	; (bc8c <IziPlus_Module_MonitorValue+0x36c>)
    ba3c:	fba3 3000 	umull	r3, r0, r3, r0
    ba40:	0943      	lsrs	r3, r0, #5
    ba42:	0b40      	lsrs	r0, r0, #13
    ba44:	702b      	strb	r3, [r5, #0]
    ba46:	7068      	strb	r0, [r5, #1]
    ba48:	2401      	movs	r4, #1
    ba4a:	e7c2      	b.n	b9d2 <IziPlus_Module_MonitorValue+0xb2>
    ba4c:	4b90      	ldr	r3, [pc, #576]	; (bc90 <IziPlus_Module_MonitorValue+0x370>)
    ba4e:	4798      	blx	r3
    ba50:	2401      	movs	r4, #1
    ba52:	7028      	strb	r0, [r5, #0]
    ba54:	e7bd      	b.n	b9d2 <IziPlus_Module_MonitorValue+0xb2>
    ba56:	4b86      	ldr	r3, [pc, #536]	; (bc70 <IziPlus_Module_MonitorValue+0x350>)
    ba58:	681b      	ldr	r3, [r3, #0]
    ba5a:	7f1b      	ldrb	r3, [r3, #28]
    ba5c:	700b      	strb	r3, [r1, #0]
    ba5e:	2401      	movs	r4, #1
    ba60:	e7b7      	b.n	b9d2 <IziPlus_Module_MonitorValue+0xb2>
    ba62:	4b8c      	ldr	r3, [pc, #560]	; (bc94 <IziPlus_Module_MonitorValue+0x374>)
    ba64:	4798      	blx	r3
    ba66:	2401      	movs	r4, #1
    ba68:	7028      	strb	r0, [r5, #0]
    ba6a:	e7b2      	b.n	b9d2 <IziPlus_Module_MonitorValue+0xb2>
    ba6c:	4b8a      	ldr	r3, [pc, #552]	; (bc98 <IziPlus_Module_MonitorValue+0x378>)
    ba6e:	498b      	ldr	r1, [pc, #556]	; (bc9c <IziPlus_Module_MonitorValue+0x37c>)
    ba70:	7e98      	ldrb	r0, [r3, #26]
    ba72:	4b8b      	ldr	r3, [pc, #556]	; (bca0 <IziPlus_Module_MonitorValue+0x380>)
    ba74:	eb01 2140 	add.w	r1, r1, r0, lsl #9
    ba78:	3138      	adds	r1, #56	; 0x38
    ba7a:	f24d 424c 	movw	r2, #54348	; 0xd44c
    ba7e:	8809      	ldrh	r1, [r1, #0]
    ba80:	fb02 f201 	mul.w	r2, r2, r1
    ba84:	fba3 1302 	umull	r1, r3, r3, r2
    ba88:	1ad2      	subs	r2, r2, r3
    ba8a:	eb03 0352 	add.w	r3, r3, r2, lsr #1
    ba8e:	f3c3 23cf 	ubfx	r3, r3, #11, #16
    ba92:	f5b3 7f7a 	cmp.w	r3, #1000	; 0x3e8
    ba96:	bf2c      	ite	cs
    ba98:	089b      	lsrcs	r3, r3, #2
    ba9a:	2300      	movcc	r3, #0
    ba9c:	eb03 3380 	add.w	r3, r3, r0, lsl #14
    baa0:	b29b      	uxth	r3, r3
    baa2:	0a1a      	lsrs	r2, r3, #8
    baa4:	702b      	strb	r3, [r5, #0]
    baa6:	706a      	strb	r2, [r5, #1]
    baa8:	2402      	movs	r4, #2
    baaa:	e792      	b.n	b9d2 <IziPlus_Module_MonitorValue+0xb2>
    baac:	4b7d      	ldr	r3, [pc, #500]	; (bca4 <IziPlus_Module_MonitorValue+0x384>)
    baae:	4798      	blx	r3
    bab0:	2401      	movs	r4, #1
    bab2:	7028      	strb	r0, [r5, #0]
    bab4:	e78d      	b.n	b9d2 <IziPlus_Module_MonitorValue+0xb2>
    bab6:	4b7c      	ldr	r3, [pc, #496]	; (bca8 <IziPlus_Module_MonitorValue+0x388>)
    bab8:	4798      	blx	r3
    baba:	2401      	movs	r4, #1
    babc:	7028      	strb	r0, [r5, #0]
    babe:	e788      	b.n	b9d2 <IziPlus_Module_MonitorValue+0xb2>
    bac0:	4b7a      	ldr	r3, [pc, #488]	; (bcac <IziPlus_Module_MonitorValue+0x38c>)
    bac2:	4798      	blx	r3
    bac4:	2800      	cmp	r0, #0
    bac6:	db11      	blt.n	baec <IziPlus_Module_MonitorValue+0x1cc>
    bac8:	2804      	cmp	r0, #4
    baca:	f000 8085 	beq.w	bbd8 <IziPlus_Module_MonitorValue+0x2b8>
    bace:	2805      	cmp	r0, #5
    bad0:	f000 809e 	beq.w	bc10 <IziPlus_Module_MonitorValue+0x2f0>
    bad4:	2801      	cmp	r0, #1
    bad6:	f000 809d 	beq.w	bc14 <IziPlus_Module_MonitorValue+0x2f4>
    bada:	2807      	cmp	r0, #7
    badc:	f000 80bf 	beq.w	bc5e <IziPlus_Module_MonitorValue+0x33e>
    bae0:	2808      	cmp	r0, #8
    bae2:	f000 80f1 	beq.w	bcc8 <IziPlus_Module_MonitorValue+0x3a8>
    bae6:	2802      	cmp	r0, #2
    bae8:	f000 80f2 	beq.w	bcd0 <IziPlus_Module_MonitorValue+0x3b0>
    baec:	4b70      	ldr	r3, [pc, #448]	; (bcb0 <IziPlus_Module_MonitorValue+0x390>)
    baee:	4798      	blx	r3
    baf0:	2800      	cmp	r0, #0
    baf2:	f2c0 80f8 	blt.w	bce6 <IziPlus_Module_MonitorValue+0x3c6>
    baf6:	2802      	cmp	r0, #2
    baf8:	f000 809d 	beq.w	bc36 <IziPlus_Module_MonitorValue+0x316>
    bafc:	2803      	cmp	r0, #3
    bafe:	f000 80ac 	beq.w	bc5a <IziPlus_Module_MonitorValue+0x33a>
    bb02:	2806      	cmp	r0, #6
    bb04:	f000 80de 	beq.w	bcc4 <IziPlus_Module_MonitorValue+0x3a4>
    bb08:	2805      	cmp	r0, #5
    bb0a:	f000 80df 	beq.w	bccc <IziPlus_Module_MonitorValue+0x3ac>
    bb0e:	2807      	cmp	r0, #7
    bb10:	f000 80e0 	beq.w	bcd4 <IziPlus_Module_MonitorValue+0x3b4>
    bb14:	280b      	cmp	r0, #11
    bb16:	f000 80df 	beq.w	bcd8 <IziPlus_Module_MonitorValue+0x3b8>
    bb1a:	2801      	cmp	r0, #1
    bb1c:	f000 80de 	beq.w	bcdc <IziPlus_Module_MonitorValue+0x3bc>
    bb20:	2800      	cmp	r0, #0
    bb22:	bf14      	ite	ne
    bb24:	2400      	movne	r4, #0
    bb26:	249d      	moveq	r4, #157	; 0x9d
    bb28:	702c      	strb	r4, [r5, #0]
    bb2a:	2401      	movs	r4, #1
    bb2c:	e751      	b.n	b9d2 <IziPlus_Module_MonitorValue+0xb2>
    bb2e:	4a5a      	ldr	r2, [pc, #360]	; (bc98 <IziPlus_Module_MonitorValue+0x378>)
    bb30:	4b60      	ldr	r3, [pc, #384]	; (bcb4 <IziPlus_Module_MonitorValue+0x394>)
    bb32:	7e91      	ldrb	r1, [r2, #26]
    bb34:	681b      	ldr	r3, [r3, #0]
    bb36:	4a60      	ldr	r2, [pc, #384]	; (bcb8 <IziPlus_Module_MonitorValue+0x398>)
    bb38:	1d88      	adds	r0, r1, #6
    bb3a:	2402      	movs	r4, #2
    bb3c:	f853 3020 	ldr.w	r3, [r3, r0, lsl #2]
    bb40:	fba2 2303 	umull	r2, r3, r2, r3
    bb44:	0b9b      	lsrs	r3, r3, #14
    bb46:	f3c3 2207 	ubfx	r2, r3, #8, #8
    bb4a:	eb02 1281 	add.w	r2, r2, r1, lsl #6
    bb4e:	702b      	strb	r3, [r5, #0]
    bb50:	706a      	strb	r2, [r5, #1]
    bb52:	e73e      	b.n	b9d2 <IziPlus_Module_MonitorValue+0xb2>
    bb54:	4b46      	ldr	r3, [pc, #280]	; (bc70 <IziPlus_Module_MonitorValue+0x350>)
    bb56:	4a4a      	ldr	r2, [pc, #296]	; (bc80 <IziPlus_Module_MonitorValue+0x360>)
    bb58:	681b      	ldr	r3, [r3, #0]
    bb5a:	8b1b      	ldrh	r3, [r3, #24]
    bb5c:	337d      	adds	r3, #125	; 0x7d
    bb5e:	fb82 1203 	smull	r1, r2, r2, r3
    bb62:	17db      	asrs	r3, r3, #31
    bb64:	ebc3 1322 	rsb	r3, r3, r2, asr #4
    bb68:	702b      	strb	r3, [r5, #0]
    bb6a:	2401      	movs	r4, #1
    bb6c:	e731      	b.n	b9d2 <IziPlus_Module_MonitorValue+0xb2>
    bb6e:	4b4a      	ldr	r3, [pc, #296]	; (bc98 <IziPlus_Module_MonitorValue+0x378>)
    bb70:	494a      	ldr	r1, [pc, #296]	; (bc9c <IziPlus_Module_MonitorValue+0x37c>)
    bb72:	7e9b      	ldrb	r3, [r3, #26]
    bb74:	eb01 2143 	add.w	r1, r1, r3, lsl #9
    bb78:	019b      	lsls	r3, r3, #6
    bb7a:	6848      	ldr	r0, [r1, #4]
    bb7c:	2800      	cmp	r0, #0
    bb7e:	b2da      	uxtb	r2, r3
    bb80:	dd27      	ble.n	bbd2 <IziPlus_Module_MonitorValue+0x2b2>
    bb82:	690b      	ldr	r3, [r1, #16]
    bb84:	484d      	ldr	r0, [pc, #308]	; (bcbc <IziPlus_Module_MonitorValue+0x39c>)
    bb86:	fb80 0103 	smull	r0, r1, r0, r3
    bb8a:	17db      	asrs	r3, r3, #31
    bb8c:	ebc3 03a1 	rsb	r3, r3, r1, asr #2
    bb90:	b2d9      	uxtb	r1, r3
    bb92:	f3c3 2307 	ubfx	r3, r3, #8, #8
    bb96:	4413      	add	r3, r2
    bb98:	706b      	strb	r3, [r5, #1]
    bb9a:	7029      	strb	r1, [r5, #0]
    bb9c:	2402      	movs	r4, #2
    bb9e:	e718      	b.n	b9d2 <IziPlus_Module_MonitorValue+0xb2>
    bba0:	4a44      	ldr	r2, [pc, #272]	; (bcb4 <IziPlus_Module_MonitorValue+0x394>)
    bba2:	4b3d      	ldr	r3, [pc, #244]	; (bc98 <IziPlus_Module_MonitorValue+0x378>)
    bba4:	6810      	ldr	r0, [r2, #0]
    bba6:	7e9b      	ldrb	r3, [r3, #26]
    bba8:	eb00 0083 	add.w	r0, r0, r3, lsl #2
    bbac:	019b      	lsls	r3, r3, #6
    bbae:	6981      	ldr	r1, [r0, #24]
    bbb0:	293b      	cmp	r1, #59	; 0x3b
    bbb2:	b2da      	uxtb	r2, r3
    bbb4:	d90d      	bls.n	bbd2 <IziPlus_Module_MonitorValue+0x2b2>
    bbb6:	6e83      	ldr	r3, [r0, #104]	; 0x68
    bbb8:	4841      	ldr	r0, [pc, #260]	; (bcc0 <IziPlus_Module_MonitorValue+0x3a0>)
    bbba:	eb03 0383 	add.w	r3, r3, r3, lsl #2
    bbbe:	fba0 0101 	umull	r0, r1, r0, r1
    bbc2:	0949      	lsrs	r1, r1, #5
    bbc4:	005b      	lsls	r3, r3, #1
    bbc6:	fbb3 f3f1 	udiv	r3, r3, r1
    bbca:	b2d9      	uxtb	r1, r3
    bbcc:	f3c3 2307 	ubfx	r3, r3, #8, #8
    bbd0:	e7e1      	b.n	bb96 <IziPlus_Module_MonitorValue+0x276>
    bbd2:	2300      	movs	r3, #0
    bbd4:	4619      	mov	r1, r3
    bbd6:	e7de      	b.n	bb96 <IziPlus_Module_MonitorValue+0x276>
    bbd8:	2484      	movs	r4, #132	; 0x84
    bbda:	4b35      	ldr	r3, [pc, #212]	; (bcb0 <IziPlus_Module_MonitorValue+0x390>)
    bbdc:	4798      	blx	r3
    bbde:	e7a3      	b.n	bb28 <IziPlus_Module_MonitorValue+0x208>
    bbe0:	4b2d      	ldr	r3, [pc, #180]	; (bc98 <IziPlus_Module_MonitorValue+0x378>)
    bbe2:	7ed9      	ldrb	r1, [r3, #27]
    bbe4:	010a      	lsls	r2, r1, #4
    bbe6:	f001 0303 	and.w	r3, r1, #3
    bbea:	0889      	lsrs	r1, r1, #2
    bbec:	b2d2      	uxtb	r2, r2
    bbee:	d124      	bne.n	bc3a <IziPlus_Module_MonitorValue+0x31a>
    bbf0:	4830      	ldr	r0, [pc, #192]	; (bcb4 <IziPlus_Module_MonitorValue+0x394>)
    bbf2:	4931      	ldr	r1, [pc, #196]	; (bcb8 <IziPlus_Module_MonitorValue+0x398>)
    bbf4:	6800      	ldr	r0, [r0, #0]
    bbf6:	330a      	adds	r3, #10
    bbf8:	f850 3023 	ldr.w	r3, [r0, r3, lsl #2]
    bbfc:	fba1 1303 	umull	r1, r3, r1, r3
    bc00:	f3c3 33cf 	ubfx	r3, r3, #15, #16
    bc04:	eb02 2213 	add.w	r2, r2, r3, lsr #8
    bc08:	706a      	strb	r2, [r5, #1]
    bc0a:	702b      	strb	r3, [r5, #0]
    bc0c:	2402      	movs	r4, #2
    bc0e:	e6e0      	b.n	b9d2 <IziPlus_Module_MonitorValue+0xb2>
    bc10:	2488      	movs	r4, #136	; 0x88
    bc12:	e7e2      	b.n	bbda <IziPlus_Module_MonitorValue+0x2ba>
    bc14:	4b20      	ldr	r3, [pc, #128]	; (bc98 <IziPlus_Module_MonitorValue+0x378>)
    bc16:	f9b3 3002 	ldrsh.w	r3, [r3, #2]
    bc1a:	3302      	adds	r3, #2
    bc1c:	bf14      	ite	ne
    bc1e:	2498      	movne	r4, #152	; 0x98
    bc20:	2493      	moveq	r4, #147	; 0x93
    bc22:	e7da      	b.n	bbda <IziPlus_Module_MonitorValue+0x2ba>
    bc24:	4b1d      	ldr	r3, [pc, #116]	; (bc9c <IziPlus_Module_MonitorValue+0x37c>)
    bc26:	f8d3 3052 	ldr.w	r3, [r3, #82]	; 0x52
    bc2a:	700b      	strb	r3, [r1, #0]
    bc2c:	f3c3 2307 	ubfx	r3, r3, #8, #8
    bc30:	704b      	strb	r3, [r1, #1]
    bc32:	2402      	movs	r4, #2
    bc34:	e6cd      	b.n	b9d2 <IziPlus_Module_MonitorValue+0xb2>
    bc36:	2480      	movs	r4, #128	; 0x80
    bc38:	e776      	b.n	bb28 <IziPlus_Module_MonitorValue+0x208>
    bc3a:	2901      	cmp	r1, #1
    bc3c:	d050      	beq.n	bce0 <IziPlus_Module_MonitorValue+0x3c0>
    bc3e:	2902      	cmp	r1, #2
    bc40:	491c      	ldr	r1, [pc, #112]	; (bcb4 <IziPlus_Module_MonitorValue+0x394>)
    bc42:	bf0c      	ite	eq
    bc44:	3312      	addeq	r3, #18
    bc46:	3316      	addne	r3, #22
    bc48:	6808      	ldr	r0, [r1, #0]
    bc4a:	f64a 01c0 	movw	r1, #43200	; 0xa8c0
    bc4e:	f850 3023 	ldr.w	r3, [r0, r3, lsl #2]
    bc52:	fbb3 f3f1 	udiv	r3, r3, r1
    bc56:	b29b      	uxth	r3, r3
    bc58:	e7d4      	b.n	bc04 <IziPlus_Module_MonitorValue+0x2e4>
    bc5a:	2482      	movs	r4, #130	; 0x82
    bc5c:	e764      	b.n	bb28 <IziPlus_Module_MonitorValue+0x208>
    bc5e:	2499      	movs	r4, #153	; 0x99
    bc60:	e7bb      	b.n	bbda <IziPlus_Module_MonitorValue+0x2ba>
    bc62:	bf00      	nop
    bc64:	20002a10 	.word	0x20002a10
    bc68:	cccccccd 	.word	0xcccccccd
    bc6c:	0000d135 	.word	0x0000d135
    bc70:	2000ee30 	.word	0x2000ee30
    bc74:	2000f2b4 	.word	0x2000f2b4
    bc78:	f2b9d649 	.word	0xf2b9d649
    bc7c:	0000ceb9 	.word	0x0000ceb9
    bc80:	10624dd3 	.word	0x10624dd3
    bc84:	00004a65 	.word	0x00004a65
    bc88:	0000785d 	.word	0x0000785d
    bc8c:	51eb851f 	.word	0x51eb851f
    bc90:	0000ceed 	.word	0x0000ceed
    bc94:	0000cf39 	.word	0x0000cf39
    bc98:	200057ac 	.word	0x200057ac
    bc9c:	20002204 	.word	0x20002204
    bca0:	00100101 	.word	0x00100101
    bca4:	0000cf2d 	.word	0x0000cf2d
    bca8:	0000cf51 	.word	0x0000cf51
    bcac:	0000d0d1 	.word	0x0000d0d1
    bcb0:	0000d14d 	.word	0x0000d14d
    bcb4:	2000f038 	.word	0x2000f038
    bcb8:	c22e4507 	.word	0xc22e4507
    bcbc:	66666667 	.word	0x66666667
    bcc0:	88888889 	.word	0x88888889
    bcc4:	2485      	movs	r4, #133	; 0x85
    bcc6:	e72f      	b.n	bb28 <IziPlus_Module_MonitorValue+0x208>
    bcc8:	249e      	movs	r4, #158	; 0x9e
    bcca:	e786      	b.n	bbda <IziPlus_Module_MonitorValue+0x2ba>
    bccc:	2494      	movs	r4, #148	; 0x94
    bcce:	e72b      	b.n	bb28 <IziPlus_Module_MonitorValue+0x208>
    bcd0:	249f      	movs	r4, #159	; 0x9f
    bcd2:	e782      	b.n	bbda <IziPlus_Module_MonitorValue+0x2ba>
    bcd4:	2402      	movs	r4, #2
    bcd6:	e727      	b.n	bb28 <IziPlus_Module_MonitorValue+0x208>
    bcd8:	2497      	movs	r4, #151	; 0x97
    bcda:	e725      	b.n	bb28 <IziPlus_Module_MonitorValue+0x208>
    bcdc:	249c      	movs	r4, #156	; 0x9c
    bcde:	e723      	b.n	bb28 <IziPlus_Module_MonitorValue+0x208>
    bce0:	4902      	ldr	r1, [pc, #8]	; (bcec <IziPlus_Module_MonitorValue+0x3cc>)
    bce2:	330e      	adds	r3, #14
    bce4:	e7b0      	b.n	bc48 <IziPlus_Module_MonitorValue+0x328>
    bce6:	2400      	movs	r4, #0
    bce8:	e71e      	b.n	bb28 <IziPlus_Module_MonitorValue+0x208>
    bcea:	bf00      	nop
    bcec:	2000f038 	.word	0x2000f038

0000bcf0 <IziPlus_Module_GetMonitor>:
    bcf0:	e92d 41f0 	stmdb	sp!, {r4, r5, r6, r7, r8, lr}
    bcf4:	4a14      	ldr	r2, [pc, #80]	; (bd48 <IziPlus_Module_GetMonitor+0x58>)
    bcf6:	4915      	ldr	r1, [pc, #84]	; (bd4c <IziPlus_Module_GetMonitor+0x5c>)
    bcf8:	7e93      	ldrb	r3, [r2, #26]
    bcfa:	78c9      	ldrb	r1, [r1, #3]
    bcfc:	4e14      	ldr	r6, [pc, #80]	; (bd50 <IziPlus_Module_GetMonitor+0x60>)
    bcfe:	3301      	adds	r3, #1
    bd00:	b2db      	uxtb	r3, r3
    bd02:	428b      	cmp	r3, r1
    bd04:	7693      	strb	r3, [r2, #26]
    bd06:	bf24      	itt	cs
    bd08:	2300      	movcs	r3, #0
    bd0a:	7693      	strbcs	r3, [r2, #26]
    bd0c:	7ed3      	ldrb	r3, [r2, #27]
    bd0e:	3301      	adds	r3, #1
    bd10:	b2db      	uxtb	r3, r3
    bd12:	ebb3 0f81 	cmp.w	r3, r1, lsl #2
    bd16:	bfa8      	it	ge
    bd18:	2300      	movge	r3, #0
    bd1a:	76d3      	strb	r3, [r2, #27]
    bd1c:	78b3      	ldrb	r3, [r6, #2]
    bd1e:	b183      	cbz	r3, bd42 <IziPlus_Module_GetMonitor+0x52>
    bd20:	f8df 8034 	ldr.w	r8, [pc, #52]	; bd58 <IziPlus_Module_GetMonitor+0x68>
    bd24:	4f0b      	ldr	r7, [pc, #44]	; (bd54 <IziPlus_Module_GetMonitor+0x64>)
    bd26:	4634      	mov	r4, r6
    bd28:	2500      	movs	r5, #0
    bd2a:	f894 133a 	ldrb.w	r1, [r4, #826]	; 0x33a
    bd2e:	f894 0339 	ldrb.w	r0, [r4, #825]	; 0x339
    bd32:	4441      	add	r1, r8
    bd34:	47b8      	blx	r7
    bd36:	78b3      	ldrb	r3, [r6, #2]
    bd38:	3501      	adds	r5, #1
    bd3a:	42ab      	cmp	r3, r5
    bd3c:	f104 0416 	add.w	r4, r4, #22
    bd40:	dcf3      	bgt.n	bd2a <IziPlus_Module_GetMonitor+0x3a>
    bd42:	4805      	ldr	r0, [pc, #20]	; (bd58 <IziPlus_Module_GetMonitor+0x68>)
    bd44:	e8bd 81f0 	ldmia.w	sp!, {r4, r5, r6, r7, r8, pc}
    bd48:	200057ac 	.word	0x200057ac
    bd4c:	2000f8ac 	.word	0x2000f8ac
    bd50:	2000f340 	.word	0x2000f340
    bd54:	0000b921 	.word	0x0000b921
    bd58:	2000f2b4 	.word	0x2000f2b4

0000bd5c <IziPlus_Module_SetConfigByIndex>:
    bd5c:	e92d 4ff0 	stmdb	sp!, {r4, r5, r6, r7, r8, r9, sl, fp, lr}
    bd60:	f8df a074 	ldr.w	sl, [pc, #116]	; bdd8 <IziPlus_Module_SetConfigByIndex+0x7c>
    bd64:	f89a 3001 	ldrb.w	r3, [sl, #1]
    bd68:	b083      	sub	sp, #12
    bd6a:	b39b      	cbz	r3, bdd4 <IziPlus_Module_SetConfigByIndex+0x78>
    bd6c:	2500      	movs	r5, #0
    bd6e:	4606      	mov	r6, r0
    bd70:	4688      	mov	r8, r1
    bd72:	4617      	mov	r7, r2
    bd74:	f8df 9064 	ldr.w	r9, [pc, #100]	; bddc <IziPlus_Module_SetConfigByIndex+0x80>
    bd78:	46ab      	mov	fp, r5
    bd7a:	4654      	mov	r4, sl
    bd7c:	e005      	b.n	bd8a <IziPlus_Module_SetConfigByIndex+0x2e>
    bd7e:	f89a 3001 	ldrb.w	r3, [sl, #1]
    bd82:	42ab      	cmp	r3, r5
    bd84:	f104 0420 	add.w	r4, r4, #32
    bd88:	dd18      	ble.n	bdbc <IziPlus_Module_SetConfigByIndex+0x60>
    bd8a:	f894 31ba 	ldrb.w	r3, [r4, #442]	; 0x1ba
    bd8e:	42b3      	cmp	r3, r6
    bd90:	f105 0501 	add.w	r5, r5, #1
    bd94:	d1f3      	bne.n	bd7e <IziPlus_Module_SetConfigByIndex+0x22>
    bd96:	f894 31b8 	ldrb.w	r3, [r4, #440]	; 0x1b8
    bd9a:	42bb      	cmp	r3, r7
    bd9c:	d80e      	bhi.n	bdbc <IziPlus_Module_SetConfigByIndex+0x60>
    bd9e:	b98b      	cbnz	r3, bdc4 <IziPlus_Module_SetConfigByIndex+0x68>
    bda0:	1aff      	subs	r7, r7, r3
    bda2:	441e      	add	r6, r3
    bda4:	f89a 3001 	ldrb.w	r3, [sl, #1]
    bda8:	f10b 0b01 	add.w	fp, fp, #1
    bdac:	42ab      	cmp	r3, r5
    bdae:	b2ff      	uxtb	r7, r7
    bdb0:	fa5f fb8b 	uxtb.w	fp, fp
    bdb4:	b2f6      	uxtb	r6, r6
    bdb6:	f104 0420 	add.w	r4, r4, #32
    bdba:	dce6      	bgt.n	bd8a <IziPlus_Module_SetConfigByIndex+0x2e>
    bdbc:	4658      	mov	r0, fp
    bdbe:	b003      	add	sp, #12
    bdc0:	e8bd 8ff0 	ldmia.w	sp!, {r4, r5, r6, r7, r8, r9, sl, fp, pc}
    bdc4:	eb08 0106 	add.w	r1, r8, r6
    bdc8:	f894 01b9 	ldrb.w	r0, [r4, #441]	; 0x1b9
    bdcc:	9301      	str	r3, [sp, #4]
    bdce:	47c8      	blx	r9
    bdd0:	9b01      	ldr	r3, [sp, #4]
    bdd2:	e7e5      	b.n	bda0 <IziPlus_Module_SetConfigByIndex+0x44>
    bdd4:	469b      	mov	fp, r3
    bdd6:	e7f1      	b.n	bdbc <IziPlus_Module_SetConfigByIndex+0x60>
    bdd8:	2000f340 	.word	0x2000f340
    bddc:	0000ac35 	.word	0x0000ac35

0000bde0 <IziPlus_Module_ConfigValue>:
    bde0:	281a      	cmp	r0, #26
    bde2:	d018      	beq.n	be16 <IziPlus_Module_ConfigValue+0x36>
    bde4:	2822      	cmp	r0, #34	; 0x22
    bde6:	d01d      	beq.n	be24 <IziPlus_Module_ConfigValue+0x44>
    bde8:	2823      	cmp	r0, #35	; 0x23
    bdea:	d022      	beq.n	be32 <IziPlus_Module_ConfigValue+0x52>
    bdec:	282d      	cmp	r0, #45	; 0x2d
    bdee:	d00b      	beq.n	be08 <IziPlus_Module_ConfigValue+0x28>
    bdf0:	282e      	cmp	r0, #46	; 0x2e
    bdf2:	d025      	beq.n	be40 <IziPlus_Module_ConfigValue+0x60>
    bdf4:	282f      	cmp	r0, #47	; 0x2f
    bdf6:	d02a      	beq.n	be4e <IziPlus_Module_ConfigValue+0x6e>
    bdf8:	2830      	cmp	r0, #48	; 0x30
    bdfa:	d037      	beq.n	be6c <IziPlus_Module_ConfigValue+0x8c>
    bdfc:	2880      	cmp	r0, #128	; 0x80
    bdfe:	d03c      	beq.n	be7a <IziPlus_Module_ConfigValue+0x9a>
    be00:	2881      	cmp	r0, #129	; 0x81
    be02:	d02b      	beq.n	be5c <IziPlus_Module_ConfigValue+0x7c>
    be04:	2000      	movs	r0, #0
    be06:	4770      	bx	lr
    be08:	4b20      	ldr	r3, [pc, #128]	; (be8c <IziPlus_Module_ConfigValue+0xac>)
    be0a:	681b      	ldr	r3, [r3, #0]
    be0c:	f893 3042 	ldrb.w	r3, [r3, #66]	; 0x42
    be10:	700b      	strb	r3, [r1, #0]
    be12:	2001      	movs	r0, #1
    be14:	4770      	bx	lr
    be16:	4b1d      	ldr	r3, [pc, #116]	; (be8c <IziPlus_Module_ConfigValue+0xac>)
    be18:	681b      	ldr	r3, [r3, #0]
    be1a:	f893 3040 	ldrb.w	r3, [r3, #64]	; 0x40
    be1e:	700b      	strb	r3, [r1, #0]
    be20:	2001      	movs	r0, #1
    be22:	4770      	bx	lr
    be24:	4b19      	ldr	r3, [pc, #100]	; (be8c <IziPlus_Module_ConfigValue+0xac>)
    be26:	681b      	ldr	r3, [r3, #0]
    be28:	f893 3041 	ldrb.w	r3, [r3, #65]	; 0x41
    be2c:	700b      	strb	r3, [r1, #0]
    be2e:	2001      	movs	r0, #1
    be30:	4770      	bx	lr
    be32:	4b16      	ldr	r3, [pc, #88]	; (be8c <IziPlus_Module_ConfigValue+0xac>)
    be34:	681b      	ldr	r3, [r3, #0]
    be36:	f893 3046 	ldrb.w	r3, [r3, #70]	; 0x46
    be3a:	700b      	strb	r3, [r1, #0]
    be3c:	2001      	movs	r0, #1
    be3e:	4770      	bx	lr
    be40:	4b12      	ldr	r3, [pc, #72]	; (be8c <IziPlus_Module_ConfigValue+0xac>)
    be42:	681b      	ldr	r3, [r3, #0]
    be44:	f893 3043 	ldrb.w	r3, [r3, #67]	; 0x43
    be48:	700b      	strb	r3, [r1, #0]
    be4a:	2001      	movs	r0, #1
    be4c:	4770      	bx	lr
    be4e:	4b0f      	ldr	r3, [pc, #60]	; (be8c <IziPlus_Module_ConfigValue+0xac>)
    be50:	681b      	ldr	r3, [r3, #0]
    be52:	f893 3044 	ldrb.w	r3, [r3, #68]	; 0x44
    be56:	700b      	strb	r3, [r1, #0]
    be58:	2001      	movs	r0, #1
    be5a:	4770      	bx	lr
    be5c:	4b0b      	ldr	r3, [pc, #44]	; (be8c <IziPlus_Module_ConfigValue+0xac>)
    be5e:	681b      	ldr	r3, [r3, #0]
    be60:	f893 303d 	ldrb.w	r3, [r3, #61]	; 0x3d
    be64:	091b      	lsrs	r3, r3, #4
    be66:	700b      	strb	r3, [r1, #0]
    be68:	2001      	movs	r0, #1
    be6a:	4770      	bx	lr
    be6c:	4b07      	ldr	r3, [pc, #28]	; (be8c <IziPlus_Module_ConfigValue+0xac>)
    be6e:	681b      	ldr	r3, [r3, #0]
    be70:	f893 3045 	ldrb.w	r3, [r3, #69]	; 0x45
    be74:	700b      	strb	r3, [r1, #0]
    be76:	2001      	movs	r0, #1
    be78:	4770      	bx	lr
    be7a:	4b04      	ldr	r3, [pc, #16]	; (be8c <IziPlus_Module_ConfigValue+0xac>)
    be7c:	681b      	ldr	r3, [r3, #0]
    be7e:	f893 303d 	ldrb.w	r3, [r3, #61]	; 0x3d
    be82:	f003 030f 	and.w	r3, r3, #15
    be86:	700b      	strb	r3, [r1, #0]
    be88:	2001      	movs	r0, #1
    be8a:	4770      	bx	lr
    be8c:	2000ee34 	.word	0x2000ee34

0000be90 <IziPlus_Module_GetConfig>:
    be90:	b5f8      	push	{r3, r4, r5, r6, r7, lr}
    be92:	4d0a      	ldr	r5, [pc, #40]	; (bebc <IziPlus_Module_GetConfig+0x2c>)
    be94:	786b      	ldrb	r3, [r5, #1]
    be96:	b17b      	cbz	r3, beb8 <IziPlus_Module_GetConfig+0x28>
    be98:	4f09      	ldr	r7, [pc, #36]	; (bec0 <IziPlus_Module_GetConfig+0x30>)
    be9a:	4e0a      	ldr	r6, [pc, #40]	; (bec4 <IziPlus_Module_GetConfig+0x34>)
    be9c:	462a      	mov	r2, r5
    be9e:	2400      	movs	r4, #0
    bea0:	f892 11ba 	ldrb.w	r1, [r2, #442]	; 0x1ba
    bea4:	f892 01b9 	ldrb.w	r0, [r2, #441]	; 0x1b9
    bea8:	4439      	add	r1, r7
    beaa:	47b0      	blx	r6
    beac:	786b      	ldrb	r3, [r5, #1]
    beae:	3401      	adds	r4, #1
    beb0:	42a3      	cmp	r3, r4
    beb2:	f102 0220 	add.w	r2, r2, #32
    beb6:	dcf3      	bgt.n	bea0 <IziPlus_Module_GetConfig+0x10>
    beb8:	4801      	ldr	r0, [pc, #4]	; (bec0 <IziPlus_Module_GetConfig+0x30>)
    beba:	bdf8      	pop	{r3, r4, r5, r6, r7, pc}
    bebc:	2000f340 	.word	0x2000f340
    bec0:	2000f2d4 	.word	0x2000f2d4
    bec4:	0000bde1 	.word	0x0000bde1

0000bec8 <IziPlus_Module_SetIdentify>:
    bec8:	e92d 41f0 	stmdb	sp!, {r4, r5, r6, r7, r8, lr}
    becc:	460c      	mov	r4, r1
    bece:	b961      	cbnz	r1, beea <IziPlus_Module_SetIdentify+0x22>
    bed0:	4b18      	ldr	r3, [pc, #96]	; (bf34 <IziPlus_Module_SetIdentify+0x6c>)
    bed2:	4798      	blx	r3
    bed4:	4a18      	ldr	r2, [pc, #96]	; (bf38 <IziPlus_Module_SetIdentify+0x70>)
    bed6:	4b19      	ldr	r3, [pc, #100]	; (bf3c <IziPlus_Module_SetIdentify+0x74>)
    bed8:	7811      	ldrb	r1, [r2, #0]
    beda:	829c      	strh	r4, [r3, #20]
    bedc:	f364 1146 	bfi	r1, r4, #5, #2
    bee0:	2001      	movs	r0, #1
    bee2:	7011      	strb	r1, [r2, #0]
    bee4:	81d8      	strh	r0, [r3, #14]
    bee6:	e8bd 81f0 	ldmia.w	sp!, {r4, r5, r6, r7, r8, pc}
    beea:	b28d      	uxth	r5, r1
    beec:	ebc5 1205 	rsb	r2, r5, r5, lsl #4
    bef0:	2302      	movs	r3, #2
    bef2:	0092      	lsls	r2, r2, #2
    bef4:	4606      	mov	r6, r0
    bef6:	4619      	mov	r1, r3
    bef8:	b292      	uxth	r2, r2
    befa:	2004      	movs	r0, #4
    befc:	4f10      	ldr	r7, [pc, #64]	; (bf40 <IziPlus_Module_SetIdentify+0x78>)
    befe:	47b8      	blx	r7
    bf00:	4a0d      	ldr	r2, [pc, #52]	; (bf38 <IziPlus_Module_SetIdentify+0x70>)
    bf02:	4b0e      	ldr	r3, [pc, #56]	; (bf3c <IziPlus_Module_SetIdentify+0x74>)
    bf04:	7811      	ldrb	r1, [r2, #0]
    bf06:	821e      	strh	r6, [r3, #16]
    bf08:	2701      	movs	r7, #1
    bf0a:	eb05 0585 	add.w	r5, r5, r5, lsl #2
    bf0e:	f1a4 04df 	sub.w	r4, r4, #223	; 0xdf
    bf12:	f367 1146 	bfi	r1, r7, #5, #2
    bf16:	ebc5 1505 	rsb	r5, r5, r5, lsl #4
    bf1a:	fab4 f484 	clz	r4, r4
    bf1e:	00ed      	lsls	r5, r5, #3
    bf20:	0964      	lsrs	r4, r4, #5
    bf22:	2600      	movs	r6, #0
    bf24:	7011      	strb	r1, [r2, #0]
    bf26:	81dd      	strh	r5, [r3, #14]
    bf28:	829c      	strh	r4, [r3, #20]
    bf2a:	819e      	strh	r6, [r3, #12]
    bf2c:	4805      	ldr	r0, [pc, #20]	; (bf44 <IziPlus_Module_SetIdentify+0x7c>)
    bf2e:	e8bd 41f0 	ldmia.w	sp!, {r4, r5, r6, r7, r8, lr}
    bf32:	4700      	bx	r0
    bf34:	0000d1e9 	.word	0x0000d1e9
    bf38:	2000f334 	.word	0x2000f334
    bf3c:	200057ac 	.word	0x200057ac
    bf40:	0000d1c1 	.word	0x0000d1c1
    bf44:	0000d999 	.word	0x0000d999

0000bf48 <IziPlus_Module_GetDim>:
    bf48:	b570      	push	{r4, r5, r6, lr}
    bf4a:	4a29      	ldr	r2, [pc, #164]	; (bff0 <IziPlus_Module_GetDim+0xa8>)
    bf4c:	4b29      	ldr	r3, [pc, #164]	; (bff4 <IziPlus_Module_GetDim+0xac>)
    bf4e:	6812      	ldr	r2, [r2, #0]
    bf50:	f892 1044 	ldrb.w	r1, [r2, #68]	; 0x44
    bf54:	f892 203c 	ldrb.w	r2, [r2, #60]	; 0x3c
    bf58:	4418      	add	r0, r3
    bf5a:	eb00 0081 	add.w	r0, r0, r1, lsl #2
    bf5e:	2a01      	cmp	r2, #1
    bf60:	f890 0434 	ldrb.w	r0, [r0, #1076]	; 0x434
    bf64:	d00b      	beq.n	bf7e <IziPlus_Module_GetDim+0x36>
    bf66:	4b24      	ldr	r3, [pc, #144]	; (bff8 <IziPlus_Module_GetDim+0xb0>)
    bf68:	2a08      	cmp	r2, #8
    bf6a:	881b      	ldrh	r3, [r3, #0]
    bf6c:	d017      	beq.n	bf9e <IziPlus_Module_GetDim+0x56>
    bf6e:	b29b      	uxth	r3, r3
    bf70:	bb23      	cbnz	r3, bfbc <IziPlus_Module_GetDim+0x74>
    bf72:	4b22      	ldr	r3, [pc, #136]	; (bffc <IziPlus_Module_GetDim+0xb4>)
    bf74:	5c18      	ldrb	r0, [r3, r0]
    bf76:	ea40 2000 	orr.w	r0, r0, r0, lsl #8
    bf7a:	b280      	uxth	r0, r0
    bf7c:	bd70      	pop	{r4, r5, r6, pc}
    bf7e:	4d1e      	ldr	r5, [pc, #120]	; (bff8 <IziPlus_Module_GetDim+0xb0>)
    bf80:	882b      	ldrh	r3, [r5, #0]
    bf82:	b29b      	uxth	r3, r3
    bf84:	bb0b      	cbnz	r3, bfca <IziPlus_Module_GetDim+0x82>
    bf86:	4b1d      	ldr	r3, [pc, #116]	; (bffc <IziPlus_Module_GetDim+0xb4>)
    bf88:	5c1c      	ldrb	r4, [r3, r0]
    bf8a:	8828      	ldrh	r0, [r5, #0]
    bf8c:	b280      	uxth	r0, r0
    bf8e:	b348      	cbz	r0, bfe4 <IziPlus_Module_GetDim+0x9c>
    bf90:	2cff      	cmp	r4, #255	; 0xff
    bf92:	d024      	beq.n	bfde <IziPlus_Module_GetDim+0x96>
    bf94:	20ff      	movs	r0, #255	; 0xff
    bf96:	fb14 f000 	smulbb	r0, r4, r0
    bf9a:	b280      	uxth	r0, r0
    bf9c:	bd70      	pop	{r4, r5, r6, pc}
    bf9e:	b200      	sxth	r0, r0
    bfa0:	b29b      	uxth	r3, r3
    bfa2:	0046      	lsls	r6, r0, #1
    bfa4:	b9b3      	cbnz	r3, bfd4 <IziPlus_Module_GetDim+0x8c>
    bfa6:	4b15      	ldr	r3, [pc, #84]	; (bffc <IziPlus_Module_GetDim+0xb4>)
    bfa8:	4d15      	ldr	r5, [pc, #84]	; (c000 <IziPlus_Module_GetDim+0xb8>)
    bfaa:	f813 4010 	ldrb.w	r4, [r3, r0, lsl #1]
    bfae:	1c70      	adds	r0, r6, #1
    bfb0:	47a8      	blx	r5
    bfb2:	ea40 2004 	orr.w	r0, r0, r4, lsl #8
    bfb6:	47a8      	blx	r5
    bfb8:	b280      	uxth	r0, r0
    bfba:	bd70      	pop	{r4, r5, r6, pc}
    bfbc:	4b10      	ldr	r3, [pc, #64]	; (c000 <IziPlus_Module_GetDim+0xb8>)
    bfbe:	4798      	blx	r3
    bfc0:	b280      	uxth	r0, r0
    bfc2:	ea40 2000 	orr.w	r0, r0, r0, lsl #8
    bfc6:	b280      	uxth	r0, r0
    bfc8:	bd70      	pop	{r4, r5, r6, pc}
    bfca:	3001      	adds	r0, #1
    bfcc:	4b0c      	ldr	r3, [pc, #48]	; (c000 <IziPlus_Module_GetDim+0xb8>)
    bfce:	4798      	blx	r3
    bfd0:	b284      	uxth	r4, r0
    bfd2:	e7da      	b.n	bf8a <IziPlus_Module_GetDim+0x42>
    bfd4:	4630      	mov	r0, r6
    bfd6:	4d0a      	ldr	r5, [pc, #40]	; (c000 <IziPlus_Module_GetDim+0xb8>)
    bfd8:	47a8      	blx	r5
    bfda:	b284      	uxth	r4, r0
    bfdc:	e7e7      	b.n	bfae <IziPlus_Module_GetDim+0x66>
    bfde:	f64f 70ff 	movw	r0, #65535	; 0xffff
    bfe2:	bd70      	pop	{r4, r5, r6, pc}
    bfe4:	4b06      	ldr	r3, [pc, #24]	; (c000 <IziPlus_Module_GetDim+0xb8>)
    bfe6:	4798      	blx	r3
    bfe8:	b280      	uxth	r0, r0
    bfea:	28ff      	cmp	r0, #255	; 0xff
    bfec:	d1d3      	bne.n	bf96 <IziPlus_Module_GetDim+0x4e>
    bfee:	e7cf      	b.n	bf90 <IziPlus_Module_GetDim+0x48>
    bff0:	2000ee34 	.word	0x2000ee34
    bff4:	00011a74 	.word	0x00011a74
    bff8:	200057ac 	.word	0x200057ac
    bffc:	2000f2f8 	.word	0x2000f2f8
    c000:	00004725 	.word	0x00004725

0000c004 <IziPlus_Module_GetChannelAmount>:
    c004:	4b01      	ldr	r3, [pc, #4]	; (c00c <IziPlus_Module_GetChannelAmount+0x8>)
    c006:	7998      	ldrb	r0, [r3, #6]
    c008:	4770      	bx	lr
    c00a:	bf00      	nop
    c00c:	200057ac 	.word	0x200057ac

0000c010 <IziPlus_Module_GetChannelAmountTemp>:
    c010:	4b08      	ldr	r3, [pc, #32]	; (c034 <IziPlus_Module_GetChannelAmountTemp+0x24>)
    c012:	4a09      	ldr	r2, [pc, #36]	; (c038 <IziPlus_Module_GetChannelAmountTemp+0x28>)
    c014:	681b      	ldr	r3, [r3, #0]
    c016:	7811      	ldrb	r1, [r2, #0]
    c018:	f893 303c 	ldrb.w	r3, [r3, #60]	; 0x3c
    c01c:	4299      	cmp	r1, r3
    c01e:	d802      	bhi.n	c026 <IziPlus_Module_GetChannelAmountTemp+0x16>
    c020:	4b06      	ldr	r3, [pc, #24]	; (c03c <IziPlus_Module_GetChannelAmountTemp+0x2c>)
    c022:	7998      	ldrb	r0, [r3, #6]
    c024:	4770      	bx	lr
    c026:	eb03 03c3 	add.w	r3, r3, r3, lsl #3
    c02a:	eb02 0383 	add.w	r3, r2, r3, lsl #2
    c02e:	7a18      	ldrb	r0, [r3, #8]
    c030:	4770      	bx	lr
    c032:	bf00      	nop
    c034:	2000ee34 	.word	0x2000ee34
    c038:	2000f340 	.word	0x2000f340
    c03c:	200057ac 	.word	0x200057ac

0000c040 <IziPlus_Module_GetHwRevision>:
    c040:	4b00      	ldr	r3, [pc, #0]	; (c044 <IziPlus_Module_GetHwRevision+0x4>)
    c042:	4718      	bx	r3
    c044:	000085bd 	.word	0x000085bd

0000c048 <IziPlus_Module_GetVariant>:
    c048:	4b00      	ldr	r3, [pc, #0]	; (c04c <IziPlus_Module_GetVariant+0x4>)
    c04a:	4718      	bx	r3
    c04c:	00008685 	.word	0x00008685

0000c050 <IziPlus_Module_GetAppVersion>:
    c050:	4b05      	ldr	r3, [pc, #20]	; (c068 <IziPlus_Module_GetAppVersion+0x18>)
    c052:	8859      	ldrh	r1, [r3, #2]
    c054:	785a      	ldrb	r2, [r3, #1]
    c056:	781b      	ldrb	r3, [r3, #0]
    c058:	2000      	movs	r0, #0
    c05a:	f361 000f 	bfi	r0, r1, #0, #16
    c05e:	f362 4017 	bfi	r0, r2, #16, #8
    c062:	f363 601f 	bfi	r0, r3, #24, #8
    c066:	4770      	bx	lr
    c068:	0001ff00 	.word	0x0001ff00

0000c06c <IziPlus_Module_GetBootVersion>:
    c06c:	f643 73fc 	movw	r3, #16380	; 0x3ffc
    c070:	2000      	movs	r0, #0
    c072:	8859      	ldrh	r1, [r3, #2]
    c074:	785a      	ldrb	r2, [r3, #1]
    c076:	781b      	ldrb	r3, [r3, #0]
    c078:	f361 000f 	bfi	r0, r1, #0, #16
    c07c:	f362 4017 	bfi	r0, r2, #16, #8
    c080:	f363 601f 	bfi	r0, r3, #24, #8
    c084:	4770      	bx	lr
    c086:	bf00      	nop

0000c088 <IziPlus_Module_GetImageVersion>:
    c088:	4b05      	ldr	r3, [pc, #20]	; (c0a0 <IziPlus_Module_GetImageVersion+0x18>)
    c08a:	8859      	ldrh	r1, [r3, #2]
    c08c:	785a      	ldrb	r2, [r3, #1]
    c08e:	781b      	ldrb	r3, [r3, #0]
    c090:	2000      	movs	r0, #0
    c092:	f361 000f 	bfi	r0, r1, #0, #16
    c096:	f362 4017 	bfi	r0, r2, #16, #8
    c09a:	f363 601f 	bfi	r0, r3, #24, #8
    c09e:	4770      	bx	lr
    c0a0:	00037f00 	.word	0x00037f00

0000c0a4 <IziPlus_Module_GetTypedefVersion>:
    c0a4:	2314      	movs	r3, #20
    c0a6:	f04f 0000 	mov.w	r0, #0
    c0aa:	f363 0007 	bfi	r0, r3, #0, #8
    c0ae:	2302      	movs	r3, #2
    c0b0:	f363 200f 	bfi	r0, r3, #8, #8
    c0b4:	4770      	bx	lr
    c0b6:	bf00      	nop

0000c0b8 <IziPlus_Module_GetLedtableVersion>:
    c0b8:	4b05      	ldr	r3, [pc, #20]	; (c0d0 <IziPlus_Module_GetLedtableVersion+0x18>)
    c0ba:	785b      	ldrb	r3, [r3, #1]
    c0bc:	f04f 0000 	mov.w	r0, #0
    c0c0:	f003 021f 	and.w	r2, r3, #31
    c0c4:	f362 0007 	bfi	r0, r2, #0, #8
    c0c8:	095b      	lsrs	r3, r3, #5
    c0ca:	f363 200f 	bfi	r0, r3, #8, #8
    c0ce:	4770      	bx	lr
    c0d0:	2000f8ac 	.word	0x2000f8ac

0000c0d4 <IziPlus_Module_GetMemoryVersion>:
    c0d4:	2007      	movs	r0, #7
    c0d6:	4770      	bx	lr

0000c0d8 <IziPlus_Module_IsOverruled>:
    c0d8:	4b03      	ldr	r3, [pc, #12]	; (c0e8 <IziPlus_Module_IsOverruled+0x10>)
    c0da:	8818      	ldrh	r0, [r3, #0]
    c0dc:	b280      	uxth	r0, r0
    c0de:	3000      	adds	r0, #0
    c0e0:	bf18      	it	ne
    c0e2:	2001      	movne	r0, #1
    c0e4:	4770      	bx	lr
    c0e6:	bf00      	nop
    c0e8:	200057ac 	.word	0x200057ac

0000c0ec <IziPlus_Module_Test>:
    c0ec:	b570      	push	{r4, r5, r6, lr}
    c0ee:	4b11      	ldr	r3, [pc, #68]	; (c134 <IziPlus_Module_Test+0x48>)
    c0f0:	7c9d      	ldrb	r5, [r3, #18]
    c0f2:	42aa      	cmp	r2, r5
    c0f4:	4604      	mov	r4, r0
    c0f6:	4d10      	ldr	r5, [pc, #64]	; (c138 <IziPlus_Module_Test+0x4c>)
    c0f8:	d20e      	bcs.n	c118 <IziPlus_Module_Test+0x2c>
    c0fa:	8818      	ldrh	r0, [r3, #0]
    c0fc:	b280      	uxth	r0, r0
    c0fe:	b158      	cbz	r0, c118 <IziPlus_Module_Test+0x2c>
    c100:	3401      	adds	r4, #1
    c102:	78eb      	ldrb	r3, [r5, #3]
    c104:	b2e4      	uxtb	r4, r4
    c106:	42a3      	cmp	r3, r4
    c108:	d911      	bls.n	c12e <IziPlus_Module_Test+0x42>
    c10a:	3402      	adds	r4, #2
    c10c:	f855 0024 	ldr.w	r0, [r5, r4, lsl #2]
    c110:	fab0 f080 	clz	r0, r0
    c114:	0940      	lsrs	r0, r0, #5
    c116:	bd70      	pop	{r4, r5, r6, pc}
    c118:	749a      	strb	r2, [r3, #18]
    c11a:	1ca3      	adds	r3, r4, #2
    c11c:	4e07      	ldr	r6, [pc, #28]	; (c13c <IziPlus_Module_Test+0x50>)
    c11e:	f855 0023 	ldr.w	r0, [r5, r3, lsl #2]
    c122:	47b0      	blx	r6
    c124:	3401      	adds	r4, #1
    c126:	78eb      	ldrb	r3, [r5, #3]
    c128:	b2e4      	uxtb	r4, r4
    c12a:	42a3      	cmp	r3, r4
    c12c:	d8ed      	bhi.n	c10a <IziPlus_Module_Test+0x1e>
    c12e:	2001      	movs	r0, #1
    c130:	bd70      	pop	{r4, r5, r6, pc}
    c132:	bf00      	nop
    c134:	200057ac 	.word	0x200057ac
    c138:	2000f8ac 	.word	0x2000f8ac
    c13c:	0000ace1 	.word	0x0000ace1

0000c140 <IziPlus_Module_Overrule_Chx>:
    c140:	b470      	push	{r4, r5, r6}
    c142:	4c09      	ldr	r4, [pc, #36]	; (c168 <IziPlus_Module_Overrule_Chx+0x28>)
    c144:	7ca5      	ldrb	r5, [r4, #18]
    c146:	429d      	cmp	r5, r3
    c148:	d902      	bls.n	c150 <IziPlus_Module_Overrule_Chx+0x10>
    c14a:	8825      	ldrh	r5, [r4, #0]
    c14c:	b2ad      	uxth	r5, r5
    c14e:	b945      	cbnz	r5, c162 <IziPlus_Module_Overrule_Chx+0x22>
    c150:	4e06      	ldr	r6, [pc, #24]	; (c16c <IziPlus_Module_Overrule_Chx+0x2c>)
    c152:	74a3      	strb	r3, [r4, #18]
    c154:	4d06      	ldr	r5, [pc, #24]	; (c170 <IziPlus_Module_Overrule_Chx+0x30>)
    c156:	fba6 3202 	umull	r3, r2, r6, r2
    c15a:	f3c2 124f 	ubfx	r2, r2, #5, #16
    c15e:	5429      	strb	r1, [r5, r0]
    c160:	8022      	strh	r2, [r4, #0]
    c162:	bc70      	pop	{r4, r5, r6}
    c164:	4770      	bx	lr
    c166:	bf00      	nop
    c168:	200057ac 	.word	0x200057ac
    c16c:	51eb851f 	.word	0x51eb851f
    c170:	2000f2f8 	.word	0x2000f2f8

0000c174 <IziPlus_Module_Overrule_Ch1234>:
    c174:	b410      	push	{r4}
    c176:	4b08      	ldr	r3, [pc, #32]	; (c198 <IziPlus_Module_Overrule_Ch1234+0x24>)
    c178:	7c9c      	ldrb	r4, [r3, #18]
    c17a:	4294      	cmp	r4, r2
    c17c:	d902      	bls.n	c184 <IziPlus_Module_Overrule_Ch1234+0x10>
    c17e:	881c      	ldrh	r4, [r3, #0]
    c180:	b2a4      	uxth	r4, r4
    c182:	b92c      	cbnz	r4, c190 <IziPlus_Module_Overrule_Ch1234+0x1c>
    c184:	4c05      	ldr	r4, [pc, #20]	; (c19c <IziPlus_Module_Overrule_Ch1234+0x28>)
    c186:	749a      	strb	r2, [r3, #18]
    c188:	4623      	mov	r3, r4
    c18a:	f85d 4b04 	ldr.w	r4, [sp], #4
    c18e:	4718      	bx	r3
    c190:	f85d 4b04 	ldr.w	r4, [sp], #4
    c194:	4770      	bx	lr
    c196:	bf00      	nop
    c198:	200057ac 	.word	0x200057ac
    c19c:	0000ace1 	.word	0x0000ace1

0000c1a0 <IziPlus_NoComCheck>:
    c1a0:	b5f8      	push	{r3, r4, r5, r6, r7, lr}
    c1a2:	4b2c      	ldr	r3, [pc, #176]	; (c254 <IziPlus_NoComCheck+0xb4>)
    c1a4:	4798      	blx	r3
    c1a6:	b118      	cbz	r0, c1b0 <IziPlus_NoComCheck+0x10>
    c1a8:	4b2b      	ldr	r3, [pc, #172]	; (c258 <IziPlus_NoComCheck+0xb8>)
    c1aa:	2201      	movs	r2, #1
    c1ac:	771a      	strb	r2, [r3, #28]
    c1ae:	bdf8      	pop	{r3, r4, r5, r6, r7, pc}
    c1b0:	4b2a      	ldr	r3, [pc, #168]	; (c25c <IziPlus_NoComCheck+0xbc>)
    c1b2:	4798      	blx	r3
    c1b4:	f241 3387 	movw	r3, #4999	; 0x1387
    c1b8:	4298      	cmp	r0, r3
    c1ba:	d924      	bls.n	c206 <IziPlus_NoComCheck+0x66>
    c1bc:	4d26      	ldr	r5, [pc, #152]	; (c258 <IziPlus_NoComCheck+0xb8>)
    c1be:	7f2b      	ldrb	r3, [r5, #28]
    c1c0:	bb13      	cbnz	r3, c208 <IziPlus_NoComCheck+0x68>
    c1c2:	4b27      	ldr	r3, [pc, #156]	; (c260 <IziPlus_NoComCheck+0xc0>)
    c1c4:	681b      	ldr	r3, [r3, #0]
    c1c6:	f893 303d 	ldrb.w	r3, [r3, #61]	; 0x3d
    c1ca:	f003 030f 	and.w	r3, r3, #15
    c1ce:	2b02      	cmp	r3, #2
    c1d0:	d021      	beq.n	c216 <IziPlus_NoComCheck+0x76>
    c1d2:	2b00      	cmp	r3, #0
    c1d4:	d135      	bne.n	c242 <IziPlus_NoComCheck+0xa2>
    c1d6:	7f6c      	ldrb	r4, [r5, #29]
    c1d8:	2c00      	cmp	r4, #0
    c1da:	d133      	bne.n	c244 <IziPlus_NoComCheck+0xa4>
    c1dc:	79ab      	ldrb	r3, [r5, #6]
    c1de:	b183      	cbz	r3, c202 <IziPlus_NoComCheck+0x62>
    c1e0:	4e20      	ldr	r6, [pc, #128]	; (c264 <IziPlus_NoComCheck+0xc4>)
    c1e2:	4f21      	ldr	r7, [pc, #132]	; (c268 <IziPlus_NoComCheck+0xc8>)
    c1e4:	e003      	b.n	c1ee <IziPlus_NoComCheck+0x4e>
    c1e6:	79ab      	ldrb	r3, [r5, #6]
    c1e8:	3401      	adds	r4, #1
    c1ea:	42a3      	cmp	r3, r4
    c1ec:	dd29      	ble.n	c242 <IziPlus_NoComCheck+0xa2>
    c1ee:	4620      	mov	r0, r4
    c1f0:	47b0      	blx	r6
    c1f2:	2800      	cmp	r0, #0
    c1f4:	d0f7      	beq.n	c1e6 <IziPlus_NoComCheck+0x46>
    c1f6:	1e42      	subs	r2, r0, #1
    c1f8:	b2d2      	uxtb	r2, r2
    c1fa:	4621      	mov	r1, r4
    c1fc:	2000      	movs	r0, #0
    c1fe:	47b8      	blx	r7
    c200:	e7f1      	b.n	c1e6 <IziPlus_NoComCheck+0x46>
    c202:	2301      	movs	r3, #1
    c204:	776b      	strb	r3, [r5, #29]
    c206:	bdf8      	pop	{r3, r4, r5, r6, r7, pc}
    c208:	4b15      	ldr	r3, [pc, #84]	; (c260 <IziPlus_NoComCheck+0xc0>)
    c20a:	681b      	ldr	r3, [r3, #0]
    c20c:	f893 303d 	ldrb.w	r3, [r3, #61]	; 0x3d
    c210:	091b      	lsrs	r3, r3, #4
    c212:	2b02      	cmp	r3, #2
    c214:	d1dd      	bne.n	c1d2 <IziPlus_NoComCheck+0x32>
    c216:	7f6c      	ldrb	r4, [r5, #29]
    c218:	b9a4      	cbnz	r4, c244 <IziPlus_NoComCheck+0xa4>
    c21a:	79ab      	ldrb	r3, [r5, #6]
    c21c:	2b00      	cmp	r3, #0
    c21e:	d0f0      	beq.n	c202 <IziPlus_NoComCheck+0x62>
    c220:	4e10      	ldr	r6, [pc, #64]	; (c264 <IziPlus_NoComCheck+0xc4>)
    c222:	4f12      	ldr	r7, [pc, #72]	; (c26c <IziPlus_NoComCheck+0xcc>)
    c224:	4620      	mov	r0, r4
    c226:	47b0      	blx	r6
    c228:	1c42      	adds	r2, r0, #1
    c22a:	28ff      	cmp	r0, #255	; 0xff
    c22c:	4621      	mov	r1, r4
    c22e:	b2d2      	uxtb	r2, r2
    c230:	f104 0401 	add.w	r4, r4, #1
    c234:	f04f 0000 	mov.w	r0, #0
    c238:	d000      	beq.n	c23c <IziPlus_NoComCheck+0x9c>
    c23a:	47b8      	blx	r7
    c23c:	79ab      	ldrb	r3, [r5, #6]
    c23e:	42a3      	cmp	r3, r4
    c240:	dcf0      	bgt.n	c224 <IziPlus_NoComCheck+0x84>
    c242:	7f6c      	ldrb	r4, [r5, #29]
    c244:	3401      	adds	r4, #1
    c246:	b2e4      	uxtb	r4, r4
    c248:	2c01      	cmp	r4, #1
    c24a:	bf8a      	itet	hi
    c24c:	2300      	movhi	r3, #0
    c24e:	776c      	strbls	r4, [r5, #29]
    c250:	776b      	strbhi	r3, [r5, #29]
    c252:	bdf8      	pop	{r3, r4, r5, r6, r7, pc}
    c254:	0000a815 	.word	0x0000a815
    c258:	200057ac 	.word	0x200057ac
    c25c:	0000ece5 	.word	0x0000ece5
    c260:	2000ee34 	.word	0x2000ee34
    c264:	00004725 	.word	0x00004725
    c268:	0000467d 	.word	0x0000467d
    c26c:	00004639 	.word	0x00004639

0000c270 <IziInput_Init>:
    c270:	4770      	bx	lr
    c272:	bf00      	nop

0000c274 <IziInput_10ms>:
    c274:	b5f0      	push	{r4, r5, r6, r7, lr}
    c276:	4d8a      	ldr	r5, [pc, #552]	; (c4a0 <IziInput_10ms+0x22c>)
    c278:	782b      	ldrb	r3, [r5, #0]
    c27a:	b083      	sub	sp, #12
    c27c:	b10b      	cbz	r3, c282 <IziInput_10ms+0xe>
    c27e:	3b01      	subs	r3, #1
    c280:	702b      	strb	r3, [r5, #0]
    c282:	a801      	add	r0, sp, #4
    c284:	4b87      	ldr	r3, [pc, #540]	; (c4a4 <IziInput_10ms+0x230>)
    c286:	4798      	blx	r3
    c288:	4b87      	ldr	r3, [pc, #540]	; (c4a8 <IziInput_10ms+0x234>)
    c28a:	4988      	ldr	r1, [pc, #544]	; (c4ac <IziInput_10ms+0x238>)
    c28c:	f8d3 0080 	ldr.w	r0, [r3, #128]	; 0x80
    c290:	f8d3 20a0 	ldr.w	r2, [r3, #160]	; 0xa0
    c294:	f8d3 4090 	ldr.w	r4, [r3, #144]	; 0x90
    c298:	4054      	eors	r4, r2
    c29a:	4004      	ands	r4, r0
    c29c:	4054      	eors	r4, r2
    c29e:	a801      	add	r0, sp, #4
    c2a0:	4788      	blx	r1
    c2a2:	0563      	lsls	r3, r4, #21
    c2a4:	d411      	bmi.n	c2ca <IziInput_10ms+0x56>
    c2a6:	886b      	ldrh	r3, [r5, #2]
    c2a8:	f5b3 6f16 	cmp.w	r3, #2400	; 0x960
    c2ac:	d324      	bcc.n	c2f8 <IziInput_10ms+0x84>
    c2ae:	2b64      	cmp	r3, #100	; 0x64
    c2b0:	f000 8093 	beq.w	c3da <IziInput_10ms+0x166>
    c2b4:	f5b3 7f7a 	cmp.w	r3, #1000	; 0x3e8
    c2b8:	f000 80b0 	beq.w	c41c <IziInput_10ms+0x1a8>
    c2bc:	f5b3 7ffa 	cmp.w	r3, #500	; 0x1f4
    c2c0:	d075      	beq.n	c3ae <IziInput_10ms+0x13a>
    c2c2:	2300      	movs	r3, #0
    c2c4:	80eb      	strh	r3, [r5, #6]
    c2c6:	b003      	add	sp, #12
    c2c8:	bdf0      	pop	{r4, r5, r6, r7, pc}
    c2ca:	88ea      	ldrh	r2, [r5, #6]
    c2cc:	1c53      	adds	r3, r2, #1
    c2ce:	b29b      	uxth	r3, r3
    c2d0:	2b01      	cmp	r3, #1
    c2d2:	80eb      	strh	r3, [r5, #6]
    c2d4:	d948      	bls.n	c368 <IziInput_10ms+0xf4>
    c2d6:	7929      	ldrb	r1, [r5, #4]
    c2d8:	b1b1      	cbz	r1, c308 <IziInput_10ms+0x94>
    c2da:	886c      	ldrh	r4, [r5, #2]
    c2dc:	2c32      	cmp	r4, #50	; 0x32
    c2de:	d94d      	bls.n	c37c <IziInput_10ms+0x108>
    c2e0:	f5b4 6f16 	cmp.w	r4, #2400	; 0x960
    c2e4:	d86d      	bhi.n	c3c2 <IziInput_10ms+0x14e>
    c2e6:	eb04 0484 	add.w	r4, r4, r4, lsl #2
    c2ea:	0062      	lsls	r2, r4, #1
    c2ec:	4970      	ldr	r1, [pc, #448]	; (c4b0 <IziInput_10ms+0x23c>)
    c2ee:	4871      	ldr	r0, [pc, #452]	; (c4b4 <IziInput_10ms+0x240>)
    c2f0:	4b71      	ldr	r3, [pc, #452]	; (c4b8 <IziInput_10ms+0x244>)
    c2f2:	4798      	blx	r3
    c2f4:	886c      	ldrh	r4, [r5, #2]
    c2f6:	e044      	b.n	c382 <IziInput_10ms+0x10e>
    c2f8:	3301      	adds	r3, #1
    c2fa:	b29b      	uxth	r3, r3
    c2fc:	2b0a      	cmp	r3, #10
    c2fe:	806b      	strh	r3, [r5, #2]
    c300:	d1d5      	bne.n	c2ae <IziInput_10ms+0x3a>
    c302:	2301      	movs	r3, #1
    c304:	712b      	strb	r3, [r5, #4]
    c306:	e7dc      	b.n	c2c2 <IziInput_10ms+0x4e>
    c308:	f241 706f 	movw	r0, #5999	; 0x176f
    c30c:	4283      	cmp	r3, r0
    c30e:	8069      	strh	r1, [r5, #2]
    c310:	d92e      	bls.n	c370 <IziInput_10ms+0xfc>
    c312:	8f2b      	ldrh	r3, [r5, #56]	; 0x38
    c314:	2b00      	cmp	r3, #0
    c316:	d0d6      	beq.n	c2c6 <IziInput_10ms+0x52>
    c318:	4b68      	ldr	r3, [pc, #416]	; (c4bc <IziInput_10ms+0x248>)
    c31a:	4798      	blx	r3
    c31c:	8f2c      	ldrh	r4, [r5, #56]	; 0x38
    c31e:	2c03      	cmp	r4, #3
    c320:	f000 8097 	beq.w	c452 <IziInput_10ms+0x1de>
    c324:	2c02      	cmp	r4, #2
    c326:	d071      	beq.n	c40c <IziInput_10ms+0x198>
    c328:	7829      	ldrb	r1, [r5, #0]
    c32a:	2900      	cmp	r1, #0
    c32c:	f040 808c 	bne.w	c448 <IziInput_10ms+0x1d4>
    c330:	f895 403a 	ldrb.w	r4, [r5, #58]	; 0x3a
    c334:	2c00      	cmp	r4, #0
    c336:	d057      	beq.n	c3e8 <IziInput_10ms+0x174>
    c338:	f895 303b 	ldrb.w	r3, [r5, #59]	; 0x3b
    c33c:	2bff      	cmp	r3, #255	; 0xff
    c33e:	d004      	beq.n	c34a <IziInput_10ms+0xd6>
    c340:	3319      	adds	r3, #25
    c342:	b2d9      	uxtb	r1, r3
    c344:	29fa      	cmp	r1, #250	; 0xfa
    c346:	bf08      	it	eq
    c348:	21ff      	moveq	r1, #255	; 0xff
    c34a:	4f5d      	ldr	r7, [pc, #372]	; (c4c0 <IziInput_10ms+0x24c>)
    c34c:	4e5d      	ldr	r6, [pc, #372]	; (c4c4 <IziInput_10ms+0x250>)
    c34e:	f885 103b 	strb.w	r1, [r5, #59]	; 0x3b
    c352:	2400      	movs	r4, #0
    c354:	b2e0      	uxtb	r0, r4
    c356:	2304      	movs	r3, #4
    c358:	4632      	mov	r2, r6
    c35a:	3401      	adds	r4, #1
    c35c:	47b8      	blx	r7
    c35e:	2c04      	cmp	r4, #4
    c360:	d069      	beq.n	c436 <IziInput_10ms+0x1c2>
    c362:	f895 103b 	ldrb.w	r1, [r5, #59]	; 0x3b
    c366:	e7f5      	b.n	c354 <IziInput_10ms+0xe0>
    c368:	792b      	ldrb	r3, [r5, #4]
    c36a:	2b00      	cmp	r3, #0
    c36c:	d1ab      	bne.n	c2c6 <IziInput_10ms+0x52>
    c36e:	806b      	strh	r3, [r5, #2]
    c370:	3202      	adds	r2, #2
    c372:	b292      	uxth	r2, r2
    c374:	2a32      	cmp	r2, #50	; 0x32
    c376:	80ea      	strh	r2, [r5, #6]
    c378:	d9a5      	bls.n	c2c6 <IziInput_10ms+0x52>
    c37a:	e7ca      	b.n	c312 <IziInput_10ms+0x9e>
    c37c:	8f2b      	ldrh	r3, [r5, #56]	; 0x38
    c37e:	3301      	adds	r3, #1
    c380:	872b      	strh	r3, [r5, #56]	; 0x38
    c382:	f1a4 0364 	sub.w	r3, r4, #100	; 0x64
    c386:	2bc8      	cmp	r3, #200	; 0xc8
    c388:	d918      	bls.n	c3bc <IziInput_10ms+0x148>
    c38a:	f5a4 73fa 	sub.w	r3, r4, #500	; 0x1f4
    c38e:	2bc8      	cmp	r3, #200	; 0xc8
    c390:	d94b      	bls.n	c42a <IziInput_10ms+0x1b6>
    c392:	f5a4 747a 	sub.w	r4, r4, #1000	; 0x3e8
    c396:	2cc8      	cmp	r4, #200	; 0xc8
    c398:	d804      	bhi.n	c3a4 <IziInput_10ms+0x130>
    c39a:	4b4b      	ldr	r3, [pc, #300]	; (c4c8 <IziInput_10ms+0x254>)
    c39c:	4798      	blx	r3
    c39e:	2000      	movs	r0, #0
    c3a0:	4b4a      	ldr	r3, [pc, #296]	; (c4cc <IziInput_10ms+0x258>)
    c3a2:	4798      	blx	r3
    c3a4:	2300      	movs	r3, #0
    c3a6:	712b      	strb	r3, [r5, #4]
    c3a8:	806b      	strh	r3, [r5, #2]
    c3aa:	b003      	add	sp, #12
    c3ac:	bdf0      	pop	{r4, r5, r6, r7, pc}
    c3ae:	2302      	movs	r3, #2
    c3b0:	461a      	mov	r2, r3
    c3b2:	2104      	movs	r1, #4
    c3b4:	2001      	movs	r0, #1
    c3b6:	4c46      	ldr	r4, [pc, #280]	; (c4d0 <IziInput_10ms+0x25c>)
    c3b8:	47a0      	blx	r4
    c3ba:	e782      	b.n	c2c2 <IziInput_10ms+0x4e>
    c3bc:	4b45      	ldr	r3, [pc, #276]	; (c4d4 <IziInput_10ms+0x260>)
    c3be:	4798      	blx	r3
    c3c0:	e7f0      	b.n	c3a4 <IziInput_10ms+0x130>
    c3c2:	4f45      	ldr	r7, [pc, #276]	; (c4d8 <IziInput_10ms+0x264>)
    c3c4:	4e3b      	ldr	r6, [pc, #236]	; (c4b4 <IziInput_10ms+0x240>)
    c3c6:	cf0f      	ldmia	r7!, {r0, r1, r2, r3}
    c3c8:	c60f      	stmia	r6!, {r0, r1, r2, r3}
    c3ca:	cf0f      	ldmia	r7!, {r0, r1, r2, r3}
    c3cc:	c60f      	stmia	r6!, {r0, r1, r2, r3}
    c3ce:	683b      	ldr	r3, [r7, #0]
    c3d0:	f826 3b02 	strh.w	r3, [r6], #2
    c3d4:	0c1b      	lsrs	r3, r3, #16
    c3d6:	7033      	strb	r3, [r6, #0]
    c3d8:	e7d3      	b.n	c382 <IziInput_10ms+0x10e>
    c3da:	2302      	movs	r3, #2
    c3dc:	461a      	mov	r2, r3
    c3de:	4619      	mov	r1, r3
    c3e0:	2004      	movs	r0, #4
    c3e2:	4c3b      	ldr	r4, [pc, #236]	; (c4d0 <IziInput_10ms+0x25c>)
    c3e4:	47a0      	blx	r4
    c3e6:	e76c      	b.n	c2c2 <IziInput_10ms+0x4e>
    c3e8:	4b3c      	ldr	r3, [pc, #240]	; (c4dc <IziInput_10ms+0x268>)
    c3ea:	4798      	blx	r3
    c3ec:	2800      	cmp	r0, #0
    c3ee:	d04d      	beq.n	c48c <IziInput_10ms+0x218>
    c3f0:	f895 403c 	ldrb.w	r4, [r5, #60]	; 0x3c
    c3f4:	4b3a      	ldr	r3, [pc, #232]	; (c4e0 <IziInput_10ms+0x26c>)
    c3f6:	4620      	mov	r0, r4
    c3f8:	2204      	movs	r2, #4
    c3fa:	f241 3188 	movw	r1, #5000	; 0x1388
    c3fe:	4798      	blx	r3
    c400:	2800      	cmp	r0, #0
    c402:	d046      	beq.n	c492 <IziInput_10ms+0x21e>
    c404:	2300      	movs	r3, #0
    c406:	8f2c      	ldrh	r4, [r5, #56]	; 0x38
    c408:	f885 303c 	strb.w	r3, [r5, #60]	; 0x3c
    c40c:	4b2a      	ldr	r3, [pc, #168]	; (c4b8 <IziInput_10ms+0x244>)
    c40e:	4935      	ldr	r1, [pc, #212]	; (c4e4 <IziInput_10ms+0x270>)
    c410:	4828      	ldr	r0, [pc, #160]	; (c4b4 <IziInput_10ms+0x240>)
    c412:	4622      	mov	r2, r4
    c414:	4798      	blx	r3
    c416:	2300      	movs	r3, #0
    c418:	872b      	strh	r3, [r5, #56]	; 0x38
    c41a:	e754      	b.n	c2c6 <IziInput_10ms+0x52>
    c41c:	2302      	movs	r3, #2
    c41e:	461a      	mov	r2, r3
    c420:	2100      	movs	r1, #0
    c422:	2006      	movs	r0, #6
    c424:	4c2a      	ldr	r4, [pc, #168]	; (c4d0 <IziInput_10ms+0x25c>)
    c426:	47a0      	blx	r4
    c428:	e74b      	b.n	c2c2 <IziInput_10ms+0x4e>
    c42a:	4b28      	ldr	r3, [pc, #160]	; (c4cc <IziInput_10ms+0x258>)
    c42c:	2000      	movs	r0, #0
    c42e:	4798      	blx	r3
    c430:	2396      	movs	r3, #150	; 0x96
    c432:	702b      	strb	r3, [r5, #0]
    c434:	e7b6      	b.n	c3a4 <IziInput_10ms+0x130>
    c436:	4c26      	ldr	r4, [pc, #152]	; (c4d0 <IziInput_10ms+0x25c>)
    c438:	2302      	movs	r3, #2
    c43a:	f44f 7216 	mov.w	r2, #600	; 0x258
    c43e:	2103      	movs	r1, #3
    c440:	2006      	movs	r0, #6
    c442:	47a0      	blx	r4
    c444:	8f2c      	ldrh	r4, [r5, #56]	; 0x38
    c446:	e7e1      	b.n	c40c <IziInput_10ms+0x198>
    c448:	2001      	movs	r0, #1
    c44a:	4b20      	ldr	r3, [pc, #128]	; (c4cc <IziInput_10ms+0x258>)
    c44c:	4798      	blx	r3
    c44e:	8f2c      	ldrh	r4, [r5, #56]	; 0x38
    c450:	e7dc      	b.n	c40c <IziInput_10ms+0x198>
    c452:	f895 603a 	ldrb.w	r6, [r5, #58]	; 0x3a
    c456:	4f1e      	ldr	r7, [pc, #120]	; (c4d0 <IziInput_10ms+0x25c>)
    c458:	fab6 f686 	clz	r6, r6
    c45c:	4621      	mov	r1, r4
    c45e:	0976      	lsrs	r6, r6, #5
    c460:	2302      	movs	r3, #2
    c462:	2204      	movs	r2, #4
    c464:	2006      	movs	r0, #6
    c466:	f885 603a 	strb.w	r6, [r5, #58]	; 0x3a
    c46a:	47b8      	blx	r7
    c46c:	2300      	movs	r3, #0
    c46e:	4618      	mov	r0, r3
    c470:	2204      	movs	r2, #4
    c472:	4914      	ldr	r1, [pc, #80]	; (c4c4 <IziInput_10ms+0x250>)
    c474:	4e1c      	ldr	r6, [pc, #112]	; (c4e8 <IziInput_10ms+0x274>)
    c476:	f885 303b 	strb.w	r3, [r5, #59]	; 0x3b
    c47a:	47b0      	blx	r6
    c47c:	4621      	mov	r1, r4
    c47e:	2302      	movs	r3, #2
    c480:	f44f 7216 	mov.w	r2, #600	; 0x258
    c484:	2006      	movs	r0, #6
    c486:	47b8      	blx	r7
    c488:	8f2c      	ldrh	r4, [r5, #56]	; 0x38
    c48a:	e7bf      	b.n	c40c <IziInput_10ms+0x198>
    c48c:	f885 403c 	strb.w	r4, [r5, #60]	; 0x3c
    c490:	e7b0      	b.n	c3f4 <IziInput_10ms+0x180>
    c492:	f895 303c 	ldrb.w	r3, [r5, #60]	; 0x3c
    c496:	8f2c      	ldrh	r4, [r5, #56]	; 0x38
    c498:	3301      	adds	r3, #1
    c49a:	f885 303c 	strb.w	r3, [r5, #60]	; 0x3c
    c49e:	e7b5      	b.n	c40c <IziInput_10ms+0x198>
    c4a0:	200057d0 	.word	0x200057d0
    c4a4:	000089e9 	.word	0x000089e9
    c4a8:	41008000 	.word	0x41008000
    c4ac:	000089f9 	.word	0x000089f9
    c4b0:	00011f18 	.word	0x00011f18
    c4b4:	200057d8 	.word	0x200057d8
    c4b8:	00010a91 	.word	0x00010a91
    c4bc:	0000d999 	.word	0x0000d999
    c4c0:	0000c141 	.word	0x0000c141
    c4c4:	000927c0 	.word	0x000927c0
    c4c8:	00005f29 	.word	0x00005f29
    c4cc:	000060fd 	.word	0x000060fd
    c4d0:	0000d1c1 	.word	0x0000d1c1
    c4d4:	0000a831 	.word	0x0000a831
    c4d8:	00011f3c 	.word	0x00011f3c
    c4dc:	0000c0d9 	.word	0x0000c0d9
    c4e0:	0000c0ed 	.word	0x0000c0ed
    c4e4:	00011f60 	.word	0x00011f60
    c4e8:	0000c175 	.word	0x0000c175

0000c4ec <__NVIC_SystemReset>:
    c4ec:	f3bf 8f4f 	dsb	sy
    c4f0:	4905      	ldr	r1, [pc, #20]	; (c508 <__NVIC_SystemReset+0x1c>)
    c4f2:	4b06      	ldr	r3, [pc, #24]	; (c50c <__NVIC_SystemReset+0x20>)
    c4f4:	68ca      	ldr	r2, [r1, #12]
    c4f6:	f402 62e0 	and.w	r2, r2, #1792	; 0x700
    c4fa:	4313      	orrs	r3, r2
    c4fc:	60cb      	str	r3, [r1, #12]
    c4fe:	f3bf 8f4f 	dsb	sy
    c502:	bf00      	nop
    c504:	e7fd      	b.n	c502 <__NVIC_SystemReset+0x16>
    c506:	bf00      	nop
    c508:	e000ed00 	.word	0xe000ed00
    c50c:	05fa0004 	.word	0x05fa0004

0000c510 <vApplicationStackOverflowHook>:
    c510:	4b01      	ldr	r3, [pc, #4]	; (c518 <vApplicationStackOverflowHook+0x8>)
    c512:	222a      	movs	r2, #42	; 0x2a
    c514:	745a      	strb	r2, [r3, #17]
    c516:	e7fe      	b.n	c516 <vApplicationStackOverflowHook+0x6>
    c518:	2001ff00 	.word	0x2001ff00

0000c51c <vApplicationIdleHook>:
    c51c:	b538      	push	{r3, r4, r5, lr}
    c51e:	4b10      	ldr	r3, [pc, #64]	; (c560 <vApplicationIdleHook+0x44>)
    c520:	4c10      	ldr	r4, [pc, #64]	; (c564 <vApplicationIdleHook+0x48>)
    c522:	4798      	blx	r3
    c524:	2249      	movs	r2, #73	; 0x49
    c526:	4b10      	ldr	r3, [pc, #64]	; (c568 <vApplicationIdleHook+0x4c>)
    c528:	7462      	strb	r2, [r4, #17]
    c52a:	4605      	mov	r5, r0
    c52c:	4798      	blx	r3
    c52e:	4b0f      	ldr	r3, [pc, #60]	; (c56c <vApplicationIdleHook+0x50>)
    c530:	781a      	ldrb	r2, [r3, #0]
    c532:	b182      	cbz	r2, c556 <vApplicationIdleHook+0x3a>
    c534:	f241 3288 	movw	r2, #5000	; 0x1388
    c538:	4295      	cmp	r5, r2
    c53a:	d90c      	bls.n	c556 <vApplicationIdleHook+0x3a>
    c53c:	2200      	movs	r2, #0
    c53e:	701a      	strb	r2, [r3, #0]
    c540:	4b0b      	ldr	r3, [pc, #44]	; (c570 <vApplicationIdleHook+0x54>)
    c542:	60e2      	str	r2, [r4, #12]
    c544:	4c0b      	ldr	r4, [pc, #44]	; (c574 <vApplicationIdleHook+0x58>)
    c546:	490c      	ldr	r1, [pc, #48]	; (c578 <vApplicationIdleHook+0x5c>)
    c548:	250f      	movs	r5, #15
    c54a:	2001      	movs	r0, #1
    c54c:	2200      	movs	r2, #0
    c54e:	6025      	str	r5, [r4, #0]
    c550:	7008      	strb	r0, [r1, #0]
    c552:	701a      	strb	r2, [r3, #0]
    c554:	bd38      	pop	{r3, r4, r5, pc}
    c556:	4b06      	ldr	r3, [pc, #24]	; (c570 <vApplicationIdleHook+0x54>)
    c558:	781a      	ldrb	r2, [r3, #0]
    c55a:	2a00      	cmp	r2, #0
    c55c:	d1f2      	bne.n	c544 <vApplicationIdleHook+0x28>
    c55e:	bd38      	pop	{r3, r4, r5, pc}
    c560:	0000ece5 	.word	0x0000ece5
    c564:	2001ff00 	.word	0x2001ff00
    c568:	0000855d 	.word	0x0000855d
    c56c:	20002a16 	.word	0x20002a16
    c570:	20005814 	.word	0x20005814
    c574:	2000f9b4 	.word	0x2000f9b4
    c578:	2000f9b8 	.word	0x2000f9b8

0000c57c <print_resetcause>:
    c57c:	b5f0      	push	{r4, r5, r6, r7, lr}
    c57e:	4c27      	ldr	r4, [pc, #156]	; (c61c <print_resetcause+0xa0>)
    c580:	4b27      	ldr	r3, [pc, #156]	; (c620 <print_resetcause+0xa4>)
    c582:	6822      	ldr	r2, [r4, #0]
    c584:	429a      	cmp	r2, r3
    c586:	b085      	sub	sp, #20
    c588:	d01e      	beq.n	c5c8 <print_resetcause+0x4c>
    c58a:	4d26      	ldr	r5, [pc, #152]	; (c624 <print_resetcause+0xa8>)
    c58c:	4c26      	ldr	r4, [pc, #152]	; (c628 <print_resetcause+0xac>)
    c58e:	4f27      	ldr	r7, [pc, #156]	; (c62c <print_resetcause+0xb0>)
    c590:	4e27      	ldr	r6, [pc, #156]	; (c630 <print_resetcause+0xb4>)
    c592:	cd0f      	ldmia	r5!, {r0, r1, r2, r3}
    c594:	c40f      	stmia	r4!, {r0, r1, r2, r3}
    c596:	e895 0003 	ldmia.w	r5, {r0, r1}
    c59a:	f844 0b04 	str.w	r0, [r4], #4
    c59e:	2304      	movs	r3, #4
    c5a0:	7021      	strb	r1, [r4, #0]
    c5a2:	703b      	strb	r3, [r7, #0]
    c5a4:	f643 70fc 	movw	r0, #16380	; 0x3ffc
    c5a8:	4922      	ldr	r1, [pc, #136]	; (c634 <print_resetcause+0xb8>)
    c5aa:	8843      	ldrh	r3, [r0, #2]
    c5ac:	9303      	str	r3, [sp, #12]
    c5ae:	7843      	ldrb	r3, [r0, #1]
    c5b0:	9302      	str	r3, [sp, #8]
    c5b2:	7800      	ldrb	r0, [r0, #0]
    c5b4:	784b      	ldrb	r3, [r1, #1]
    c5b6:	780a      	ldrb	r2, [r1, #0]
    c5b8:	8849      	ldrh	r1, [r1, #2]
    c5ba:	9001      	str	r0, [sp, #4]
    c5bc:	9100      	str	r1, [sp, #0]
    c5be:	481a      	ldr	r0, [pc, #104]	; (c628 <print_resetcause+0xac>)
    c5c0:	491d      	ldr	r1, [pc, #116]	; (c638 <print_resetcause+0xbc>)
    c5c2:	47b0      	blx	r6
    c5c4:	b005      	add	sp, #20
    c5c6:	bdf0      	pop	{r4, r5, r6, r7, pc}
    c5c8:	7c23      	ldrb	r3, [r4, #16]
    c5ca:	2b01      	cmp	r3, #1
    c5cc:	d010      	beq.n	c5f0 <print_resetcause+0x74>
    c5ce:	2b02      	cmp	r3, #2
    c5d0:	d015      	beq.n	c5fe <print_resetcause+0x82>
    c5d2:	2b05      	cmp	r3, #5
    c5d4:	d01a      	beq.n	c60c <print_resetcause+0x90>
    c5d6:	2b03      	cmp	r3, #3
    c5d8:	68a2      	ldr	r2, [r4, #8]
    c5da:	68e3      	ldr	r3, [r4, #12]
    c5dc:	bf0c      	ite	eq
    c5de:	4917      	ldreq	r1, [pc, #92]	; (c63c <print_resetcause+0xc0>)
    c5e0:	4917      	ldrne	r1, [pc, #92]	; (c640 <print_resetcause+0xc4>)
    c5e2:	4811      	ldr	r0, [pc, #68]	; (c628 <print_resetcause+0xac>)
    c5e4:	4e12      	ldr	r6, [pc, #72]	; (c630 <print_resetcause+0xb4>)
    c5e6:	47b0      	blx	r6
    c5e8:	4b10      	ldr	r3, [pc, #64]	; (c62c <print_resetcause+0xb0>)
    c5ea:	7c22      	ldrb	r2, [r4, #16]
    c5ec:	701a      	strb	r2, [r3, #0]
    c5ee:	e7d9      	b.n	c5a4 <print_resetcause+0x28>
    c5f0:	68e3      	ldr	r3, [r4, #12]
    c5f2:	68a2      	ldr	r2, [r4, #8]
    c5f4:	4913      	ldr	r1, [pc, #76]	; (c644 <print_resetcause+0xc8>)
    c5f6:	4e0e      	ldr	r6, [pc, #56]	; (c630 <print_resetcause+0xb4>)
    c5f8:	480b      	ldr	r0, [pc, #44]	; (c628 <print_resetcause+0xac>)
    c5fa:	47b0      	blx	r6
    c5fc:	e7f4      	b.n	c5e8 <print_resetcause+0x6c>
    c5fe:	68e3      	ldr	r3, [r4, #12]
    c600:	68a2      	ldr	r2, [r4, #8]
    c602:	4911      	ldr	r1, [pc, #68]	; (c648 <print_resetcause+0xcc>)
    c604:	4e0a      	ldr	r6, [pc, #40]	; (c630 <print_resetcause+0xb4>)
    c606:	4808      	ldr	r0, [pc, #32]	; (c628 <print_resetcause+0xac>)
    c608:	47b0      	blx	r6
    c60a:	e7ed      	b.n	c5e8 <print_resetcause+0x6c>
    c60c:	68e3      	ldr	r3, [r4, #12]
    c60e:	68a2      	ldr	r2, [r4, #8]
    c610:	490e      	ldr	r1, [pc, #56]	; (c64c <print_resetcause+0xd0>)
    c612:	4e07      	ldr	r6, [pc, #28]	; (c630 <print_resetcause+0xb4>)
    c614:	4804      	ldr	r0, [pc, #16]	; (c628 <print_resetcause+0xac>)
    c616:	47b0      	blx	r6
    c618:	e7e6      	b.n	c5e8 <print_resetcause+0x6c>
    c61a:	bf00      	nop
    c61c:	2001ff00 	.word	0x2001ff00
    c620:	abbaacdc 	.word	0xabbaacdc
    c624:	00012008 	.word	0x00012008
    c628:	20005818 	.word	0x20005818
    c62c:	2000f9b0 	.word	0x2000f9b0
    c630:	00010a91 	.word	0x00010a91
    c634:	0001ff00 	.word	0x0001ff00
    c638:	00012020 	.word	0x00012020
    c63c:	00011fd0 	.word	0x00011fd0
    c640:	00011fec 	.word	0x00011fec
    c644:	00011f78 	.word	0x00011f78
    c648:	00011f94 	.word	0x00011f94
    c64c:	00011fb4 	.word	0x00011fb4

0000c650 <ReportStackSize>:
    c650:	b510      	push	{r4, lr}
    c652:	4c08      	ldr	r4, [pc, #32]	; (c674 <ReportStackSize+0x24>)
    c654:	7823      	ldrb	r3, [r4, #0]
    c656:	b08a      	sub	sp, #40	; 0x28
    c658:	b11b      	cbz	r3, c662 <ReportStackSize+0x12>
    c65a:	4b07      	ldr	r3, [pc, #28]	; (c678 <ReportStackSize+0x28>)
    c65c:	4798      	blx	r3
    c65e:	2300      	movs	r3, #0
    c660:	7023      	strb	r3, [r4, #0]
    c662:	2305      	movs	r3, #5
    c664:	2201      	movs	r2, #1
    c666:	a901      	add	r1, sp, #4
    c668:	2000      	movs	r0, #0
    c66a:	4c04      	ldr	r4, [pc, #16]	; (c67c <ReportStackSize+0x2c>)
    c66c:	47a0      	blx	r4
    c66e:	b00a      	add	sp, #40	; 0x28
    c670:	bd10      	pop	{r4, pc}
    c672:	bf00      	nop
    c674:	2000f9b8 	.word	0x2000f9b8
    c678:	0000df35 	.word	0x0000df35
    c67c:	0000f1dd 	.word	0x0000f1dd

0000c680 <main>:
    c680:	b500      	push	{lr}
    c682:	4b20      	ldr	r3, [pc, #128]	; (c704 <main+0x84>)
    c684:	4a20      	ldr	r2, [pc, #128]	; (c708 <main+0x88>)
    c686:	8e19      	ldrh	r1, [r3, #48]	; 0x30
    c688:	8d98      	ldrh	r0, [r3, #44]	; 0x2c
    c68a:	7c5c      	ldrb	r4, [r3, #17]
    c68c:	8659      	strh	r1, [r3, #50]	; 0x32
    c68e:	b083      	sub	sp, #12
    c690:	85d8      	strh	r0, [r3, #46]	; 0x2e
    c692:	749c      	strb	r4, [r3, #18]
    c694:	4790      	blx	r2
    c696:	4b1d      	ldr	r3, [pc, #116]	; (c70c <main+0x8c>)
    c698:	4798      	blx	r3
    c69a:	2201      	movs	r2, #1
    c69c:	4611      	mov	r1, r2
    c69e:	b120      	cbz	r0, c6aa <main+0x2a>
    c6a0:	4b1b      	ldr	r3, [pc, #108]	; (c710 <main+0x90>)
    c6a2:	20d9      	movs	r0, #217	; 0xd9
    c6a4:	4798      	blx	r3
    c6a6:	4b1b      	ldr	r3, [pc, #108]	; (c714 <main+0x94>)
    c6a8:	4798      	blx	r3
    c6aa:	20d9      	movs	r0, #217	; 0xd9
    c6ac:	4b18      	ldr	r3, [pc, #96]	; (c710 <main+0x90>)
    c6ae:	4798      	blx	r3
    c6b0:	4604      	mov	r4, r0
    c6b2:	b9a0      	cbnz	r0, c6de <main+0x5e>
    c6b4:	4b18      	ldr	r3, [pc, #96]	; (c718 <main+0x98>)
    c6b6:	4798      	blx	r3
    c6b8:	4b18      	ldr	r3, [pc, #96]	; (c71c <main+0x9c>)
    c6ba:	681b      	ldr	r3, [r3, #0]
    c6bc:	3301      	adds	r3, #1
    c6be:	d010      	beq.n	c6e2 <main+0x62>
    c6c0:	4b17      	ldr	r3, [pc, #92]	; (c720 <main+0xa0>)
    c6c2:	4798      	blx	r3
    c6c4:	4b17      	ldr	r3, [pc, #92]	; (c724 <main+0xa4>)
    c6c6:	4798      	blx	r3
    c6c8:	4b17      	ldr	r3, [pc, #92]	; (c728 <main+0xa8>)
    c6ca:	4798      	blx	r3
    c6cc:	4b17      	ldr	r3, [pc, #92]	; (c72c <main+0xac>)
    c6ce:	4798      	blx	r3
    c6d0:	4b17      	ldr	r3, [pc, #92]	; (c730 <main+0xb0>)
    c6d2:	4798      	blx	r3
    c6d4:	4b17      	ldr	r3, [pc, #92]	; (c734 <main+0xb4>)
    c6d6:	4798      	blx	r3
    c6d8:	4b17      	ldr	r3, [pc, #92]	; (c738 <main+0xb8>)
    c6da:	4798      	blx	r3
    c6dc:	e7fe      	b.n	c6dc <main+0x5c>
    c6de:	4b0d      	ldr	r3, [pc, #52]	; (c714 <main+0x94>)
    c6e0:	4798      	blx	r3
    c6e2:	4b16      	ldr	r3, [pc, #88]	; (c73c <main+0xbc>)
    c6e4:	4816      	ldr	r0, [pc, #88]	; (c740 <main+0xc0>)
    c6e6:	4798      	blx	r3
    c6e8:	b280      	uxth	r0, r0
    c6ea:	4b16      	ldr	r3, [pc, #88]	; (c744 <main+0xc4>)
    c6ec:	9300      	str	r3, [sp, #0]
    c6ee:	f100 603c 	add.w	r0, r0, #197132288	; 0xbc00000
    c6f2:	4623      	mov	r3, r4
    c6f4:	2254      	movs	r2, #84	; 0x54
    c6f6:	4914      	ldr	r1, [pc, #80]	; (c748 <main+0xc8>)
    c6f8:	4c14      	ldr	r4, [pc, #80]	; (c74c <main+0xcc>)
    c6fa:	f500 2050 	add.w	r0, r0, #851968	; 0xd0000
    c6fe:	47a0      	blx	r4
    c700:	e7de      	b.n	c6c0 <main+0x40>
    c702:	bf00      	nop
    c704:	2001ff00 	.word	0x2001ff00
    c708:	000063f5 	.word	0x000063f5
    c70c:	000052c5 	.word	0x000052c5
    c710:	000051f1 	.word	0x000051f1
    c714:	0000c4ed 	.word	0x0000c4ed
    c718:	00006261 	.word	0x00006261
    c71c:	00804020 	.word	0x00804020
    c720:	000042d1 	.word	0x000042d1
    c724:	0000da11 	.word	0x0000da11
    c728:	0000d7f9 	.word	0x0000d7f9
    c72c:	0000c271 	.word	0x0000c271
    c730:	0000a759 	.word	0x0000a759
    c734:	000077d1 	.word	0x000077d1
    c738:	0000ec4d 	.word	0x0000ec4d
    c73c:	00008c31 	.word	0x00008c31
    c740:	2000f15c 	.word	0x2000f15c
    c744:	00012054 	.word	0x00012054
    c748:	00012048 	.word	0x00012048
    c74c:	00005a19 	.word	0x00005a19

0000c750 <Analog_125ms>:
    c750:	b5f8      	push	{r3, r4, r5, r6, r7, lr}
    c752:	4b31      	ldr	r3, [pc, #196]	; (c818 <Analog_125ms+0xc8>)
    c754:	4c31      	ldr	r4, [pc, #196]	; (c81c <Analog_125ms+0xcc>)
    c756:	4798      	blx	r3
    c758:	f5b0 7f7a 	cmp.w	r0, #1000	; 0x3e8
    c75c:	d942      	bls.n	c7e4 <Analog_125ms+0x94>
    c75e:	2201      	movs	r2, #1
    c760:	4e2f      	ldr	r6, [pc, #188]	; (c820 <Analog_125ms+0xd0>)
    c762:	7022      	strb	r2, [r4, #0]
    c764:	4b2f      	ldr	r3, [pc, #188]	; (c824 <Analog_125ms+0xd4>)
    c766:	8832      	ldrh	r2, [r6, #0]
    c768:	492f      	ldr	r1, [pc, #188]	; (c828 <Analog_125ms+0xd8>)
    c76a:	681b      	ldr	r3, [r3, #0]
    c76c:	f3c2 02c8 	ubfx	r2, r2, #3, #9
    c770:	8ad8      	ldrh	r0, [r3, #22]
    c772:	5c8a      	ldrb	r2, [r1, r2]
    c774:	4290      	cmp	r0, r2
    c776:	d23f      	bcs.n	c7f8 <Analog_125ms+0xa8>
    c778:	4d2c      	ldr	r5, [pc, #176]	; (c82c <Analog_125ms+0xdc>)
    c77a:	8b58      	ldrh	r0, [r3, #26]
    c77c:	682d      	ldr	r5, [r5, #0]
    c77e:	82da      	strh	r2, [r3, #22]
    c780:	3001      	adds	r0, #1
    c782:	82aa      	strh	r2, [r5, #20]
    c784:	8358      	strh	r0, [r3, #26]
    c786:	4a2a      	ldr	r2, [pc, #168]	; (c830 <Analog_125ms+0xe0>)
    c788:	f8b3 e014 	ldrh.w	lr, [r3, #20]
    c78c:	8910      	ldrh	r0, [r2, #8]
    c78e:	8952      	ldrh	r2, [r2, #10]
    c790:	f3c0 00c8 	ubfx	r0, r0, #3, #9
    c794:	f3c2 02c8 	ubfx	r2, r2, #3, #9
    c798:	5c0d      	ldrb	r5, [r1, r0]
    c79a:	5c8f      	ldrb	r7, [r1, r2]
    c79c:	42af      	cmp	r7, r5
    c79e:	463a      	mov	r2, r7
    c7a0:	bf38      	it	cc
    c7a2:	462a      	movcc	r2, r5
    c7a4:	4596      	cmp	lr, r2
    c7a6:	d32f      	bcc.n	c808 <Analog_125ms+0xb8>
    c7a8:	f1be 0fff 	cmp.w	lr, #255	; 0xff
    c7ac:	d02c      	beq.n	c808 <Analog_125ms+0xb8>
    c7ae:	8871      	ldrh	r1, [r6, #2]
    c7b0:	4a20      	ldr	r2, [pc, #128]	; (c834 <Analog_125ms+0xe4>)
    c7b2:	8b1e      	ldrh	r6, [r3, #24]
    c7b4:	b288      	uxth	r0, r1
    c7b6:	f24d 414c 	movw	r1, #54348	; 0xd44c
    c7ba:	fb01 f100 	mul.w	r1, r1, r0
    c7be:	fba2 0201 	umull	r0, r2, r2, r1
    c7c2:	1a89      	subs	r1, r1, r2
    c7c4:	eb02 0251 	add.w	r2, r2, r1, lsr #1
    c7c8:	f3c2 22cf 	ubfx	r2, r2, #11, #16
    c7cc:	42b2      	cmp	r2, r6
    c7ce:	d316      	bcc.n	c7fe <Analog_125ms+0xae>
    c7d0:	2eff      	cmp	r6, #255	; 0xff
    c7d2:	d014      	beq.n	c7fe <Analog_125ms+0xae>
    c7d4:	2dff      	cmp	r5, #255	; 0xff
    c7d6:	f04f 0006 	mov.w	r0, #6
    c7da:	d01a      	beq.n	c812 <Analog_125ms+0xc2>
    c7dc:	2fff      	cmp	r7, #255	; 0xff
    c7de:	d018      	beq.n	c812 <Analog_125ms+0xc2>
    c7e0:	4b15      	ldr	r3, [pc, #84]	; (c838 <Analog_125ms+0xe8>)
    c7e2:	4798      	blx	r3
    c7e4:	7863      	ldrb	r3, [r4, #1]
    c7e6:	b133      	cbz	r3, c7f6 <Analog_125ms+0xa6>
    c7e8:	4a14      	ldr	r2, [pc, #80]	; (c83c <Analog_125ms+0xec>)
    c7ea:	7813      	ldrb	r3, [r2, #0]
    c7ec:	b11b      	cbz	r3, c7f6 <Analog_125ms+0xa6>
    c7ee:	7813      	ldrb	r3, [r2, #0]
    c7f0:	3b01      	subs	r3, #1
    c7f2:	b2db      	uxtb	r3, r3
    c7f4:	7013      	strb	r3, [r2, #0]
    c7f6:	bdf8      	pop	{r3, r4, r5, r6, r7, pc}
    c7f8:	28ff      	cmp	r0, #255	; 0xff
    c7fa:	d1c4      	bne.n	c786 <Analog_125ms+0x36>
    c7fc:	e7bc      	b.n	c778 <Analog_125ms+0x28>
    c7fe:	8b59      	ldrh	r1, [r3, #26]
    c800:	831a      	strh	r2, [r3, #24]
    c802:	1c4a      	adds	r2, r1, #1
    c804:	835a      	strh	r2, [r3, #26]
    c806:	e7e5      	b.n	c7d4 <Analog_125ms+0x84>
    c808:	8b59      	ldrh	r1, [r3, #26]
    c80a:	829a      	strh	r2, [r3, #20]
    c80c:	1c4a      	adds	r2, r1, #1
    c80e:	835a      	strh	r2, [r3, #26]
    c810:	e7cd      	b.n	c7ae <Analog_125ms+0x5e>
    c812:	4b0b      	ldr	r3, [pc, #44]	; (c840 <Analog_125ms+0xf0>)
    c814:	4798      	blx	r3
    c816:	e7e5      	b.n	c7e4 <Analog_125ms+0x94>
    c818:	0000ece5 	.word	0x0000ece5
    c81c:	20005848 	.word	0x20005848
    c820:	2000f9ec 	.word	0x2000f9ec
    c824:	2000ee30 	.word	0x2000ee30
    c828:	00012058 	.word	0x00012058
    c82c:	2000f038 	.word	0x2000f038
    c830:	2000f9dc 	.word	0x2000f9dc
    c834:	00100101 	.word	0x00100101
    c838:	0000d0b5 	.word	0x0000d0b5
    c83c:	20002a18 	.word	0x20002a18
    c840:	0000d0a5 	.word	0x0000d0a5

0000c844 <Analog_Apply_Gain_Correction.part.0>:
    c844:	0843      	lsrs	r3, r0, #1
    c846:	f640 71ff 	movw	r1, #4095	; 0xfff
    c84a:	f503 03d3 	add.w	r3, r3, #6914048	; 0x698000
    c84e:	f503 53c0 	add.w	r3, r3, #6144	; 0x1800
    c852:	fbb3 f3f0 	udiv	r3, r3, r0
    c856:	428b      	cmp	r3, r1
    c858:	4a05      	ldr	r2, [pc, #20]	; (c870 <Analog_Apply_Gain_Correction.part.0+0x2c>)
    c85a:	bf28      	it	cs
    c85c:	460b      	movcs	r3, r1
    c85e:	b29b      	uxth	r3, r3
    c860:	2100      	movs	r1, #0
    c862:	8213      	strh	r3, [r2, #16]
    c864:	8251      	strh	r1, [r2, #18]
    c866:	88d3      	ldrh	r3, [r2, #6]
    c868:	f043 0304 	orr.w	r3, r3, #4
    c86c:	80d3      	strh	r3, [r2, #6]
    c86e:	4770      	bx	lr
    c870:	43002000 	.word	0x43002000

0000c874 <Analog_Init>:
    c874:	e92d 43f0 	stmdb	sp!, {r4, r5, r6, r7, r8, r9, lr}
    c878:	4ad3      	ldr	r2, [pc, #844]	; (cbc8 <Analog_Init+0x354>)
    c87a:	49d4      	ldr	r1, [pc, #848]	; (cbcc <Analog_Init+0x358>)
    c87c:	6a13      	ldr	r3, [r2, #32]
    c87e:	4ed4      	ldr	r6, [pc, #848]	; (cbd0 <Analog_Init+0x35c>)
    c880:	f443 7380 	orr.w	r3, r3, #256	; 0x100
    c884:	2041      	movs	r0, #65	; 0x41
    c886:	6213      	str	r3, [r2, #32]
    c888:	f8c1 0124 	str.w	r0, [r1, #292]	; 0x124
    c88c:	8833      	ldrh	r3, [r6, #0]
    c88e:	f043 0301 	orr.w	r3, r3, #1
    c892:	b083      	sub	sp, #12
    c894:	8033      	strh	r3, [r6, #0]
    c896:	6b34      	ldr	r4, [r6, #48]	; 0x30
    c898:	f014 0401 	ands.w	r4, r4, #1
    c89c:	d1fb      	bne.n	c896 <Analog_Init+0x22>
    c89e:	4bcd      	ldr	r3, [pc, #820]	; (cbd4 <Analog_Init+0x360>)
    c8a0:	4fcd      	ldr	r7, [pc, #820]	; (cbd8 <Analog_Init+0x364>)
    c8a2:	681a      	ldr	r2, [r3, #0]
    c8a4:	49cd      	ldr	r1, [pc, #820]	; (cbdc <Analog_Init+0x368>)
    c8a6:	0153      	lsls	r3, r2, #5
    c8a8:	0190      	lsls	r0, r2, #6
    c8aa:	f400 40e0 	and.w	r0, r0, #28672	; 0x7000
    c8ae:	f403 63e0 	and.w	r3, r3, #1792	; 0x700
    c8b2:	4303      	orrs	r3, r0
    c8b4:	f002 0207 	and.w	r2, r2, #7
    c8b8:	f04f 0801 	mov.w	r8, #1
    c8bc:	4313      	orrs	r3, r2
    c8be:	2280      	movs	r2, #128	; 0x80
    c8c0:	f886 802d 	strb.w	r8, [r6, #45]	; 0x2d
    c8c4:	f44f 7500 	mov.w	r5, #512	; 0x200
    c8c8:	f8a6 8004 	strh.w	r8, [r6, #4]
    c8cc:	2026      	movs	r0, #38	; 0x26
    c8ce:	80f4      	strh	r4, [r6, #6]
    c8d0:	7232      	strb	r2, [r6, #8]
    c8d2:	2222      	movs	r2, #34	; 0x22
    c8d4:	61fc      	str	r4, [r7, #28]
    c8d6:	8035      	strh	r5, [r6, #0]
    c8d8:	72f0      	strb	r0, [r6, #11]
    c8da:	72b2      	strb	r2, [r6, #10]
    c8dc:	f8a6 3048 	strh.w	r3, [r6, #72]	; 0x48
    c8e0:	8833      	ldrh	r3, [r6, #0]
    c8e2:	f04f 7000 	mov.w	r0, #33554432	; 0x2000000
    c8e6:	f043 0302 	orr.w	r3, r3, #2
    c8ea:	8033      	strh	r3, [r6, #0]
    c8ec:	f8c1 008c 	str.w	r0, [r1, #140]	; 0x8c
    c8f0:	f3bf 8f4f 	dsb	sy
    c8f4:	f3bf 8f6f 	isb	sy
    c8f8:	4bb9      	ldr	r3, [pc, #740]	; (cbe0 <Analog_Init+0x36c>)
    c8fa:	f8c1 018c 	str.w	r0, [r1, #396]	; 0x18c
    c8fe:	22c0      	movs	r2, #192	; 0xc0
    c900:	f881 2379 	strb.w	r2, [r1, #889]	; 0x379
    c904:	f5a7 57b0 	sub.w	r7, r7, #5632	; 0x1600
    c908:	f04f 4240 	mov.w	r2, #3221225472	; 0xc0000000
    c90c:	60c8      	str	r0, [r1, #12]
    c90e:	f8c3 5084 	str.w	r5, [r3, #132]	; 0x84
    c912:	f8c3 70a8 	str.w	r7, [r3, #168]	; 0xa8
    c916:	f8c3 20a8 	str.w	r2, [r3, #168]	; 0xa8
    c91a:	f893 10c9 	ldrb.w	r1, [r3, #201]	; 0xc9
    c91e:	48b1      	ldr	r0, [pc, #708]	; (cbe4 <Analog_Init+0x370>)
    c920:	f001 01fe 	and.w	r1, r1, #254	; 0xfe
    c924:	ea41 0108 	orr.w	r1, r1, r8
    c928:	f883 10c9 	strb.w	r1, [r3, #201]	; 0xc9
    c92c:	f893 10b4 	ldrb.w	r1, [r3, #180]	; 0xb4
    c930:	f001 010f 	and.w	r1, r1, #15
    c934:	f041 0110 	orr.w	r1, r1, #16
    c938:	f883 10b4 	strb.w	r1, [r3, #180]	; 0xb4
    c93c:	605d      	str	r5, [r3, #4]
    c93e:	629f      	str	r7, [r3, #40]	; 0x28
    c940:	629a      	str	r2, [r3, #40]	; 0x28
    c942:	f893 1049 	ldrb.w	r1, [r3, #73]	; 0x49
    c946:	4da8      	ldr	r5, [pc, #672]	; (cbe8 <Analog_Init+0x374>)
    c948:	f001 01fe 	and.w	r1, r1, #254	; 0xfe
    c94c:	ea41 0108 	orr.w	r1, r1, r8
    c950:	f883 1049 	strb.w	r1, [r3, #73]	; 0x49
    c954:	f893 1034 	ldrb.w	r1, [r3, #52]	; 0x34
    c958:	f001 010f 	and.w	r1, r1, #15
    c95c:	f44f 7780 	mov.w	r7, #256	; 0x100
    c960:	f041 0110 	orr.w	r1, r1, #16
    c964:	f883 1034 	strb.w	r1, [r3, #52]	; 0x34
    c968:	605f      	str	r7, [r3, #4]
    c96a:	6298      	str	r0, [r3, #40]	; 0x28
    c96c:	629a      	str	r2, [r3, #40]	; 0x28
    c96e:	f893 1048 	ldrb.w	r1, [r3, #72]	; 0x48
    c972:	f001 01fe 	and.w	r1, r1, #254	; 0xfe
    c976:	ea41 0108 	orr.w	r1, r1, r8
    c97a:	f883 1048 	strb.w	r1, [r3, #72]	; 0x48
    c97e:	f893 1034 	ldrb.w	r1, [r3, #52]	; 0x34
    c982:	f001 01f0 	and.w	r1, r1, #240	; 0xf0
    c986:	ea41 0108 	orr.w	r1, r1, r8
    c98a:	f883 1034 	strb.w	r1, [r3, #52]	; 0x34
    c98e:	f44f 6180 	mov.w	r1, #1024	; 0x400
    c992:	6059      	str	r1, [r3, #4]
    c994:	629d      	str	r5, [r3, #40]	; 0x28
    c996:	629a      	str	r2, [r3, #40]	; 0x28
    c998:	f893 104a 	ldrb.w	r1, [r3, #74]	; 0x4a
    c99c:	f001 01fe 	and.w	r1, r1, #254	; 0xfe
    c9a0:	ea41 0108 	orr.w	r1, r1, r8
    c9a4:	f883 104a 	strb.w	r1, [r3, #74]	; 0x4a
    c9a8:	f893 1035 	ldrb.w	r1, [r3, #53]	; 0x35
    c9ac:	f001 01f0 	and.w	r1, r1, #240	; 0xf0
    c9b0:	ea41 0108 	orr.w	r1, r1, r8
    c9b4:	f883 1035 	strb.w	r1, [r3, #53]	; 0x35
    c9b8:	f8c3 7084 	str.w	r7, [r3, #132]	; 0x84
    c9bc:	f8c3 00a8 	str.w	r0, [r3, #168]	; 0xa8
    c9c0:	f8c3 20a8 	str.w	r2, [r3, #168]	; 0xa8
    c9c4:	f893 10c8 	ldrb.w	r1, [r3, #200]	; 0xc8
    c9c8:	4f88      	ldr	r7, [pc, #544]	; (cbec <Analog_Init+0x378>)
    c9ca:	f001 01fe 	and.w	r1, r1, #254	; 0xfe
    c9ce:	ea41 0108 	orr.w	r1, r1, r8
    c9d2:	f883 10c8 	strb.w	r1, [r3, #200]	; 0xc8
    c9d6:	f893 10b4 	ldrb.w	r1, [r3, #180]	; 0xb4
    c9da:	f001 01f0 	and.w	r1, r1, #240	; 0xf0
    c9de:	ea41 0108 	orr.w	r1, r1, r8
    c9e2:	f883 10b4 	strb.w	r1, [r3, #180]	; 0xb4
    c9e6:	f5a5 7570 	sub.w	r5, r5, #960	; 0x3c0
    c9ea:	2140      	movs	r1, #64	; 0x40
    c9ec:	f8c3 1084 	str.w	r1, [r3, #132]	; 0x84
    c9f0:	f8c3 50a8 	str.w	r5, [r3, #168]	; 0xa8
    c9f4:	f8c3 20a8 	str.w	r2, [r3, #168]	; 0xa8
    c9f8:	f893 10c6 	ldrb.w	r1, [r3, #198]	; 0xc6
    c9fc:	4d7c      	ldr	r5, [pc, #496]	; (cbf0 <Analog_Init+0x37c>)
    c9fe:	f001 01fe 	and.w	r1, r1, #254	; 0xfe
    ca02:	ea41 0108 	orr.w	r1, r1, r8
    ca06:	f883 10c6 	strb.w	r1, [r3, #198]	; 0xc6
    ca0a:	f893 10b3 	ldrb.w	r1, [r3, #179]	; 0xb3
    ca0e:	f001 01f0 	and.w	r1, r1, #240	; 0xf0
    ca12:	f04f 0910 	mov.w	r9, #16
    ca16:	ea41 0108 	orr.w	r1, r1, r8
    ca1a:	f883 10b3 	strb.w	r1, [r3, #179]	; 0xb3
    ca1e:	f8c3 9084 	str.w	r9, [r3, #132]	; 0x84
    ca22:	f8c3 70a8 	str.w	r7, [r3, #168]	; 0xa8
    ca26:	f8c3 20a8 	str.w	r2, [r3, #168]	; 0xa8
    ca2a:	f893 10c4 	ldrb.w	r1, [r3, #196]	; 0xc4
    ca2e:	4f71      	ldr	r7, [pc, #452]	; (cbf4 <Analog_Init+0x380>)
    ca30:	f001 01fe 	and.w	r1, r1, #254	; 0xfe
    ca34:	ea41 0108 	orr.w	r1, r1, r8
    ca38:	f883 10c4 	strb.w	r1, [r3, #196]	; 0xc4
    ca3c:	f893 10b2 	ldrb.w	r1, [r3, #178]	; 0xb2
    ca40:	f001 01f0 	and.w	r1, r1, #240	; 0xf0
    ca44:	ea41 0108 	orr.w	r1, r1, r8
    ca48:	f883 10b2 	strb.w	r1, [r3, #178]	; 0xb2
    ca4c:	38e0      	subs	r0, #224	; 0xe0
    ca4e:	2120      	movs	r1, #32
    ca50:	f8c3 1084 	str.w	r1, [r3, #132]	; 0x84
    ca54:	f8c3 00a8 	str.w	r0, [r3, #168]	; 0xa8
    ca58:	f8c3 20a8 	str.w	r2, [r3, #168]	; 0xa8
    ca5c:	f893 20c5 	ldrb.w	r2, [r3, #197]	; 0xc5
    ca60:	f002 02fe 	and.w	r2, r2, #254	; 0xfe
    ca64:	ea42 0208 	orr.w	r2, r2, r8
    ca68:	f883 20c5 	strb.w	r2, [r3, #197]	; 0xc5
    ca6c:	f893 20b2 	ldrb.w	r2, [r3, #178]	; 0xb2
    ca70:	f002 020f 	and.w	r2, r2, #15
    ca74:	ea42 0209 	orr.w	r2, r2, r9
    ca78:	f883 20b2 	strb.w	r2, [r3, #178]	; 0xb2
    ca7c:	2002      	movs	r0, #2
    ca7e:	47b8      	blx	r7
    ca80:	606c      	str	r4, [r5, #4]
    ca82:	f885 9008 	strb.w	r9, [r5, #8]
    ca86:	f885 8009 	strb.w	r8, [r5, #9]
    ca8a:	7d33      	ldrb	r3, [r6, #20]
    ca8c:	f043 0302 	orr.w	r3, r3, #2
    ca90:	7533      	strb	r3, [r6, #20]
    ca92:	7a2b      	ldrb	r3, [r5, #8]
    ca94:	b123      	cbz	r3, caa0 <Analog_Init+0x22c>
    ca96:	2002      	movs	r0, #2
    ca98:	47b8      	blx	r7
    ca9a:	7a2b      	ldrb	r3, [r5, #8]
    ca9c:	2b00      	cmp	r3, #0
    ca9e:	d1fa      	bne.n	ca96 <Analog_Init+0x222>
    caa0:	686b      	ldr	r3, [r5, #4]
    caa2:	4a49      	ldr	r2, [pc, #292]	; (cbc8 <Analog_Init+0x354>)
    caa4:	4849      	ldr	r0, [pc, #292]	; (cbcc <Analog_Init+0x358>)
    caa6:	4e54      	ldr	r6, [pc, #336]	; (cbf8 <Analog_Init+0x384>)
    caa8:	2100      	movs	r1, #0
    caaa:	091b      	lsrs	r3, r3, #4
    caac:	60eb      	str	r3, [r5, #12]
    caae:	6069      	str	r1, [r5, #4]
    cab0:	7269      	strb	r1, [r5, #9]
    cab2:	6a13      	ldr	r3, [r2, #32]
    cab4:	2141      	movs	r1, #65	; 0x41
    cab6:	f043 0380 	orr.w	r3, r3, #128	; 0x80
    caba:	6213      	str	r3, [r2, #32]
    cabc:	f8c0 1120 	str.w	r1, [r0, #288]	; 0x120
    cac0:	8833      	ldrh	r3, [r6, #0]
    cac2:	f043 0301 	orr.w	r3, r3, #1
    cac6:	8033      	strh	r3, [r6, #0]
    cac8:	6b34      	ldr	r4, [r6, #48]	; 0x30
    caca:	f014 0401 	ands.w	r4, r4, #1
    cace:	d1fb      	bne.n	cac8 <Analog_Init+0x254>
    cad0:	4b4a      	ldr	r3, [pc, #296]	; (cbfc <Analog_Init+0x388>)
    cad2:	4942      	ldr	r1, [pc, #264]	; (cbdc <Analog_Init+0x368>)
    cad4:	681a      	ldr	r2, [r3, #0]
    cad6:	0153      	lsls	r3, r2, #5
    cad8:	0190      	lsls	r0, r2, #6
    cada:	f400 40e0 	and.w	r0, r0, #28672	; 0x7000
    cade:	f403 63e0 	and.w	r3, r3, #1792	; 0x700
    cae2:	4303      	orrs	r3, r0
    cae4:	f002 0207 	and.w	r2, r2, #7
    cae8:	4313      	orrs	r3, r2
    caea:	f04f 0801 	mov.w	r8, #1
    caee:	f04f 0e03 	mov.w	lr, #3
    caf2:	2080      	movs	r0, #128	; 0x80
    caf4:	f44f 62a0 	mov.w	r2, #1280	; 0x500
    caf8:	f886 802d 	strb.w	r8, [r6, #45]	; 0x2d
    cafc:	f8a6 e004 	strh.w	lr, [r6, #4]
    cb00:	80f4      	strh	r4, [r6, #6]
    cb02:	7230      	strb	r0, [r6, #8]
    cb04:	8032      	strh	r2, [r6, #0]
    cb06:	2026      	movs	r0, #38	; 0x26
    cb08:	2222      	movs	r2, #34	; 0x22
    cb0a:	72f0      	strb	r0, [r6, #11]
    cb0c:	72b2      	strb	r2, [r6, #10]
    cb0e:	f8a6 3048 	strh.w	r3, [r6, #72]	; 0x48
    cb12:	8833      	ldrh	r3, [r6, #0]
    cb14:	f44f 0200 	mov.w	r2, #8388608	; 0x800000
    cb18:	f043 0302 	orr.w	r3, r3, #2
    cb1c:	8033      	strh	r3, [r6, #0]
    cb1e:	f8c1 208c 	str.w	r2, [r1, #140]	; 0x8c
    cb22:	f3bf 8f4f 	dsb	sy
    cb26:	f3bf 8f6f 	isb	sy
    cb2a:	4b2d      	ldr	r3, [pc, #180]	; (cbe0 <Analog_Init+0x36c>)
    cb2c:	f8c1 218c 	str.w	r2, [r1, #396]	; 0x18c
    cb30:	20c0      	movs	r0, #192	; 0xc0
    cb32:	f881 0377 	strb.w	r0, [r1, #887]	; 0x377
    cb36:	60ca      	str	r2, [r1, #12]
    cb38:	f44f 7000 	mov.w	r0, #512	; 0x200
    cb3c:	f04f 4140 	mov.w	r1, #3221225472	; 0xc0000000
    cb40:	4a2f      	ldr	r2, [pc, #188]	; (cc00 <Analog_Init+0x38c>)
    cb42:	f8c3 0084 	str.w	r0, [r3, #132]	; 0x84
    cb46:	f8c3 20a8 	str.w	r2, [r3, #168]	; 0xa8
    cb4a:	f8c3 10a8 	str.w	r1, [r3, #168]	; 0xa8
    cb4e:	f893 20c9 	ldrb.w	r2, [r3, #201]	; 0xc9
    cb52:	482c      	ldr	r0, [pc, #176]	; (cc04 <Analog_Init+0x390>)
    cb54:	f002 02fe 	and.w	r2, r2, #254	; 0xfe
    cb58:	ea42 0208 	orr.w	r2, r2, r8
    cb5c:	f883 20c9 	strb.w	r2, [r3, #201]	; 0xc9
    cb60:	f893 20b4 	ldrb.w	r2, [r3, #180]	; 0xb4
    cb64:	f002 020f 	and.w	r2, r2, #15
    cb68:	f042 0210 	orr.w	r2, r2, #16
    cb6c:	f883 20b4 	strb.w	r2, [r3, #180]	; 0xb4
    cb70:	2208      	movs	r2, #8
    cb72:	f8c3 2084 	str.w	r2, [r3, #132]	; 0x84
    cb76:	f8c3 00a8 	str.w	r0, [r3, #168]	; 0xa8
    cb7a:	f8c3 10a8 	str.w	r1, [r3, #168]	; 0xa8
    cb7e:	f893 20c3 	ldrb.w	r2, [r3, #195]	; 0xc3
    cb82:	f002 02fe 	and.w	r2, r2, #254	; 0xfe
    cb86:	ea42 0208 	orr.w	r2, r2, r8
    cb8a:	f883 20c3 	strb.w	r2, [r3, #195]	; 0xc3
    cb8e:	f893 20b1 	ldrb.w	r2, [r3, #177]	; 0xb1
    cb92:	f002 020f 	and.w	r2, r2, #15
    cb96:	f042 0210 	orr.w	r2, r2, #16
    cb9a:	f883 20b1 	strb.w	r2, [r3, #177]	; 0xb1
    cb9e:	2002      	movs	r0, #2
    cba0:	47b8      	blx	r7
    cba2:	2310      	movs	r3, #16
    cba4:	612c      	str	r4, [r5, #16]
    cba6:	752b      	strb	r3, [r5, #20]
    cba8:	f885 8009 	strb.w	r8, [r5, #9]
    cbac:	7d33      	ldrb	r3, [r6, #20]
    cbae:	f043 0302 	orr.w	r3, r3, #2
    cbb2:	7533      	strb	r3, [r6, #20]
    cbb4:	7d2b      	ldrb	r3, [r5, #20]
    cbb6:	b123      	cbz	r3, cbc2 <Analog_Init+0x34e>
    cbb8:	2002      	movs	r0, #2
    cbba:	47b8      	blx	r7
    cbbc:	7d2b      	ldrb	r3, [r5, #20]
    cbbe:	2b00      	cmp	r3, #0
    cbc0:	d1fa      	bne.n	cbb8 <Analog_Init+0x344>
    cbc2:	692a      	ldr	r2, [r5, #16]
    cbc4:	4902      	ldr	r1, [pc, #8]	; (cbd0 <Analog_Init+0x35c>)
    cbc6:	e01f      	b.n	cc08 <Analog_Init+0x394>
    cbc8:	40000800 	.word	0x40000800
    cbcc:	40001c00 	.word	0x40001c00
    cbd0:	43002000 	.word	0x43002000
    cbd4:	00800088 	.word	0x00800088
    cbd8:	40001800 	.word	0x40001800
    cbdc:	e000e100 	.word	0xe000e100
    cbe0:	41008000 	.word	0x41008000
    cbe4:	40000100 	.word	0x40000100
    cbe8:	40000400 	.word	0x40000400
    cbec:	40000010 	.word	0x40000010
    cbf0:	20005848 	.word	0x20005848
    cbf4:	0000ef31 	.word	0x0000ef31
    cbf8:	43001c00 	.word	0x43001c00
    cbfc:	00800084 	.word	0x00800084
    cc00:	40000200 	.word	0x40000200
    cc04:	40000008 	.word	0x40000008
    cc08:	4b15      	ldr	r3, [pc, #84]	; (cc60 <Analog_Init+0x3ec>)
    cc0a:	69ec      	ldr	r4, [r5, #28]
    cc0c:	0912      	lsrs	r2, r2, #4
    cc0e:	2000      	movs	r0, #0
    cc10:	61aa      	str	r2, [r5, #24]
    cc12:	6128      	str	r0, [r5, #16]
    cc14:	7268      	strb	r0, [r5, #9]
    cc16:	7d0a      	ldrb	r2, [r1, #20]
    cc18:	f042 0202 	orr.w	r2, r2, #2
    cc1c:	750a      	strb	r2, [r1, #20]
    cc1e:	7d1a      	ldrb	r2, [r3, #20]
    cc20:	f042 0202 	orr.w	r2, r2, #2
    cc24:	751a      	strb	r2, [r3, #20]
    cc26:	b16c      	cbz	r4, cc44 <Analog_Init+0x3d0>
    cc28:	4b0e      	ldr	r3, [pc, #56]	; (cc64 <Analog_Init+0x3f0>)
    cc2a:	4798      	blx	r3
    cc2c:	2300      	movs	r3, #0
    cc2e:	4602      	mov	r2, r0
    cc30:	9300      	str	r3, [sp, #0]
    cc32:	4620      	mov	r0, r4
    cc34:	2101      	movs	r1, #1
    cc36:	4c0c      	ldr	r4, [pc, #48]	; (cc68 <Analog_Init+0x3f4>)
    cc38:	47a0      	blx	r4
    cc3a:	2301      	movs	r3, #1
    cc3c:	706b      	strb	r3, [r5, #1]
    cc3e:	b003      	add	sp, #12
    cc40:	e8bd 83f0 	ldmia.w	sp!, {r4, r5, r6, r7, r8, r9, pc}
    cc44:	4b09      	ldr	r3, [pc, #36]	; (cc6c <Analog_Init+0x3f8>)
    cc46:	9300      	str	r3, [sp, #0]
    cc48:	2201      	movs	r2, #1
    cc4a:	4623      	mov	r3, r4
    cc4c:	217d      	movs	r1, #125	; 0x7d
    cc4e:	4c08      	ldr	r4, [pc, #32]	; (cc70 <Analog_Init+0x3fc>)
    cc50:	4808      	ldr	r0, [pc, #32]	; (cc74 <Analog_Init+0x400>)
    cc52:	47a0      	blx	r4
    cc54:	4604      	mov	r4, r0
    cc56:	61e8      	str	r0, [r5, #28]
    cc58:	2800      	cmp	r0, #0
    cc5a:	d0ee      	beq.n	cc3a <Analog_Init+0x3c6>
    cc5c:	e7e4      	b.n	cc28 <Analog_Init+0x3b4>
    cc5e:	bf00      	nop
    cc60:	43001c00 	.word	0x43001c00
    cc64:	0000ece5 	.word	0x0000ece5
    cc68:	0000f5b1 	.word	0x0000f5b1
    cc6c:	0000c751 	.word	0x0000c751
    cc70:	0000f55d 	.word	0x0000f55d
    cc74:	00012274 	.word	0x00012274

0000cc78 <Analog_Ready>:
    cc78:	4b02      	ldr	r3, [pc, #8]	; (cc84 <Analog_Ready+0xc>)
    cc7a:	7818      	ldrb	r0, [r3, #0]
    cc7c:	fab0 f080 	clz	r0, r0
    cc80:	0940      	lsrs	r0, r0, #5
    cc82:	4770      	bx	lr
    cc84:	20002a18 	.word	0x20002a18

0000cc88 <ADC1_1_Handler>:
    cc88:	b570      	push	{r4, r5, r6, lr}
    cc8a:	4c44      	ldr	r4, [pc, #272]	; (cd9c <ADC1_1_Handler+0x114>)
    cc8c:	7a62      	ldrb	r2, [r4, #9]
    cc8e:	2a00      	cmp	r2, #0
    cc90:	d145      	bne.n	cd1e <ADC1_1_Handler+0x96>
    cc92:	8c21      	ldrh	r1, [r4, #32]
    cc94:	4d42      	ldr	r5, [pc, #264]	; (cda0 <ADC1_1_Handler+0x118>)
    cc96:	b289      	uxth	r1, r1
    cc98:	f002 03ff 	and.w	r3, r2, #255	; 0xff
    cc9c:	4a41      	ldr	r2, [pc, #260]	; (cda4 <ADC1_1_Handler+0x11c>)
    cc9e:	f832 0011 	ldrh.w	r0, [r2, r1, lsl #1]
    cca2:	f8b5 1040 	ldrh.w	r1, [r5, #64]	; 0x40
    cca6:	68e5      	ldr	r5, [r4, #12]
    cca8:	b289      	uxth	r1, r1
    ccaa:	42a9      	cmp	r1, r5
    ccac:	b280      	uxth	r0, r0
    ccae:	d34f      	bcc.n	cd50 <ADC1_1_Handler+0xc8>
    ccb0:	68e3      	ldr	r3, [r4, #12]
    ccb2:	1ac9      	subs	r1, r1, r3
    ccb4:	b289      	uxth	r1, r1
    ccb6:	4288      	cmp	r0, r1
    ccb8:	d05c      	beq.n	cd74 <ADC1_1_Handler+0xec>
    ccba:	d26d      	bcs.n	cd98 <ADC1_1_Handler+0x110>
    ccbc:	8c26      	ldrh	r6, [r4, #32]
    ccbe:	4d3a      	ldr	r5, [pc, #232]	; (cda8 <ADC1_1_Handler+0x120>)
    ccc0:	fa15 f686 	uxtah	r6, r5, r6
    ccc4:	1a0b      	subs	r3, r1, r0
    ccc6:	f896 6200 	ldrb.w	r6, [r6, #512]	; 0x200
    ccca:	4133      	asrs	r3, r6
    cccc:	4403      	add	r3, r0
    ccce:	b29b      	uxth	r3, r3
    ccd0:	4298      	cmp	r0, r3
    ccd2:	d05e      	beq.n	cd92 <ADC1_1_Handler+0x10a>
    ccd4:	8c20      	ldrh	r0, [r4, #32]
    ccd6:	4e35      	ldr	r6, [pc, #212]	; (cdac <ADC1_1_Handler+0x124>)
    ccd8:	b280      	uxth	r0, r0
    ccda:	f822 3010 	strh.w	r3, [r2, r0, lsl #1]
    ccde:	8c23      	ldrh	r3, [r4, #32]
    cce0:	b29b      	uxth	r3, r3
    cce2:	f826 1013 	strh.w	r1, [r6, r3, lsl #1]
    cce6:	8c23      	ldrh	r3, [r4, #32]
    cce8:	b29b      	uxth	r3, r3
    ccea:	2b06      	cmp	r3, #6
    ccec:	d047      	beq.n	cd7e <ADC1_1_Handler+0xf6>
    ccee:	8c23      	ldrh	r3, [r4, #32]
    ccf0:	3301      	adds	r3, #1
    ccf2:	b29b      	uxth	r3, r3
    ccf4:	2b06      	cmp	r3, #6
    ccf6:	8423      	strh	r3, [r4, #32]
    ccf8:	bf84      	itt	hi
    ccfa:	2300      	movhi	r3, #0
    ccfc:	8423      	strhhi	r3, [r4, #32]
    ccfe:	8c22      	ldrh	r2, [r4, #32]
    cd00:	4b27      	ldr	r3, [pc, #156]	; (cda0 <ADC1_1_Handler+0x118>)
    cd02:	fa15 f582 	uxtah	r5, r5, r2
    cd06:	f895 2208 	ldrb.w	r2, [r5, #520]	; 0x208
    cd0a:	809a      	strh	r2, [r3, #4]
    cd0c:	7d1a      	ldrb	r2, [r3, #20]
    cd0e:	f042 0202 	orr.w	r2, r2, #2
    cd12:	751a      	strb	r2, [r3, #20]
    cd14:	4b22      	ldr	r3, [pc, #136]	; (cda0 <ADC1_1_Handler+0x118>)
    cd16:	2201      	movs	r2, #1
    cd18:	f883 202e 	strb.w	r2, [r3, #46]	; 0x2e
    cd1c:	bd70      	pop	{r4, r5, r6, pc}
    cd1e:	7a23      	ldrb	r3, [r4, #8]
    cd20:	2b00      	cmp	r3, #0
    cd22:	d0f7      	beq.n	cd14 <ADC1_1_Handler+0x8c>
    cd24:	4a1e      	ldr	r2, [pc, #120]	; (cda0 <ADC1_1_Handler+0x118>)
    cd26:	f8b2 3040 	ldrh.w	r3, [r2, #64]	; 0x40
    cd2a:	6861      	ldr	r1, [r4, #4]
    cd2c:	fa11 f383 	uxtah	r3, r1, r3
    cd30:	6063      	str	r3, [r4, #4]
    cd32:	7a23      	ldrb	r3, [r4, #8]
    cd34:	3b01      	subs	r3, #1
    cd36:	b2db      	uxtb	r3, r3
    cd38:	7223      	strb	r3, [r4, #8]
    cd3a:	2b00      	cmp	r3, #0
    cd3c:	d0ea      	beq.n	cd14 <ADC1_1_Handler+0x8c>
    cd3e:	7d13      	ldrb	r3, [r2, #20]
    cd40:	f043 0302 	orr.w	r3, r3, #2
    cd44:	7513      	strb	r3, [r2, #20]
    cd46:	4b16      	ldr	r3, [pc, #88]	; (cda0 <ADC1_1_Handler+0x118>)
    cd48:	2201      	movs	r2, #1
    cd4a:	f883 202e 	strb.w	r2, [r3, #46]	; 0x2e
    cd4e:	bd70      	pop	{r4, r5, r6, pc}
    cd50:	b180      	cbz	r0, cd74 <ADC1_1_Handler+0xec>
    cd52:	4619      	mov	r1, r3
    cd54:	8c26      	ldrh	r6, [r4, #32]
    cd56:	4d14      	ldr	r5, [pc, #80]	; (cda8 <ADC1_1_Handler+0x120>)
    cd58:	fa15 f686 	uxtah	r6, r5, r6
    cd5c:	1ac3      	subs	r3, r0, r3
    cd5e:	f896 6200 	ldrb.w	r6, [r6, #512]	; 0x200
    cd62:	4133      	asrs	r3, r6
    cd64:	1ac3      	subs	r3, r0, r3
    cd66:	b29b      	uxth	r3, r3
    cd68:	4298      	cmp	r0, r3
    cd6a:	bf04      	itt	eq
    cd6c:	f103 33ff 	addeq.w	r3, r3, #4294967295
    cd70:	b29b      	uxtheq	r3, r3
    cd72:	e7af      	b.n	ccd4 <ADC1_1_Handler+0x4c>
    cd74:	8c23      	ldrh	r3, [r4, #32]
    cd76:	4d0c      	ldr	r5, [pc, #48]	; (cda8 <ADC1_1_Handler+0x120>)
    cd78:	b29b      	uxth	r3, r3
    cd7a:	2b06      	cmp	r3, #6
    cd7c:	d1b7      	bne.n	ccee <ADC1_1_Handler+0x66>
    cd7e:	7823      	ldrb	r3, [r4, #0]
    cd80:	2b00      	cmp	r3, #0
    cd82:	d0b4      	beq.n	ccee <ADC1_1_Handler+0x66>
    cd84:	8990      	ldrh	r0, [r2, #12]
    cd86:	b280      	uxth	r0, r0
    cd88:	2800      	cmp	r0, #0
    cd8a:	d0b0      	beq.n	ccee <ADC1_1_Handler+0x66>
    cd8c:	4b08      	ldr	r3, [pc, #32]	; (cdb0 <ADC1_1_Handler+0x128>)
    cd8e:	4798      	blx	r3
    cd90:	e7ad      	b.n	ccee <ADC1_1_Handler+0x66>
    cd92:	3301      	adds	r3, #1
    cd94:	b29b      	uxth	r3, r3
    cd96:	e79d      	b.n	ccd4 <ADC1_1_Handler+0x4c>
    cd98:	460b      	mov	r3, r1
    cd9a:	e7db      	b.n	cd54 <ADC1_1_Handler+0xcc>
    cd9c:	20005848 	.word	0x20005848
    cda0:	43002000 	.word	0x43002000
    cda4:	2000f9dc 	.word	0x2000f9dc
    cda8:	00012058 	.word	0x00012058
    cdac:	2000f9f0 	.word	0x2000f9f0
    cdb0:	0000c845 	.word	0x0000c845

0000cdb4 <ADC0_1_Handler>:
    cdb4:	4b3b      	ldr	r3, [pc, #236]	; (cea4 <ADC0_1_Handler+0xf0>)
    cdb6:	7a59      	ldrb	r1, [r3, #9]
    cdb8:	2900      	cmp	r1, #0
    cdba:	d143      	bne.n	ce44 <ADC0_1_Handler+0x90>
    cdbc:	b470      	push	{r4, r5, r6}
    cdbe:	f001 02ff 	and.w	r2, r1, #255	; 0xff
    cdc2:	8c59      	ldrh	r1, [r3, #34]	; 0x22
    cdc4:	4c38      	ldr	r4, [pc, #224]	; (cea8 <ADC0_1_Handler+0xf4>)
    cdc6:	4839      	ldr	r0, [pc, #228]	; (ceac <ADC0_1_Handler+0xf8>)
    cdc8:	b289      	uxth	r1, r1
    cdca:	f830 5011 	ldrh.w	r5, [r0, r1, lsl #1]
    cdce:	f8b4 1040 	ldrh.w	r1, [r4, #64]	; 0x40
    cdd2:	699c      	ldr	r4, [r3, #24]
    cdd4:	b289      	uxth	r1, r1
    cdd6:	42a1      	cmp	r1, r4
    cdd8:	b2ad      	uxth	r5, r5
    cdda:	d34a      	bcc.n	ce72 <ADC0_1_Handler+0xbe>
    cddc:	699a      	ldr	r2, [r3, #24]
    cdde:	1a89      	subs	r1, r1, r2
    cde0:	b289      	uxth	r1, r1
    cde2:	428d      	cmp	r5, r1
    cde4:	d057      	beq.n	ce96 <ADC0_1_Handler+0xe2>
    cde6:	d25b      	bcs.n	cea0 <ADC0_1_Handler+0xec>
    cde8:	8c5e      	ldrh	r6, [r3, #34]	; 0x22
    cdea:	4c31      	ldr	r4, [pc, #196]	; (ceb0 <ADC0_1_Handler+0xfc>)
    cdec:	fa14 f686 	uxtah	r6, r4, r6
    cdf0:	1b4a      	subs	r2, r1, r5
    cdf2:	f896 6210 	ldrb.w	r6, [r6, #528]	; 0x210
    cdf6:	4132      	asrs	r2, r6
    cdf8:	442a      	add	r2, r5
    cdfa:	b292      	uxth	r2, r2
    cdfc:	4295      	cmp	r5, r2
    cdfe:	d04c      	beq.n	ce9a <ADC0_1_Handler+0xe6>
    ce00:	8c5d      	ldrh	r5, [r3, #34]	; 0x22
    ce02:	4e2c      	ldr	r6, [pc, #176]	; (ceb4 <ADC0_1_Handler+0x100>)
    ce04:	b2ad      	uxth	r5, r5
    ce06:	f820 2015 	strh.w	r2, [r0, r5, lsl #1]
    ce0a:	8c5a      	ldrh	r2, [r3, #34]	; 0x22
    ce0c:	b292      	uxth	r2, r2
    ce0e:	f826 1012 	strh.w	r1, [r6, r2, lsl #1]
    ce12:	8c5a      	ldrh	r2, [r3, #34]	; 0x22
    ce14:	3201      	adds	r2, #1
    ce16:	b292      	uxth	r2, r2
    ce18:	2a01      	cmp	r2, #1
    ce1a:	845a      	strh	r2, [r3, #34]	; 0x22
    ce1c:	bf84      	itt	hi
    ce1e:	2200      	movhi	r2, #0
    ce20:	845a      	strhhi	r2, [r3, #34]	; 0x22
    ce22:	8c5a      	ldrh	r2, [r3, #34]	; 0x22
    ce24:	4b20      	ldr	r3, [pc, #128]	; (cea8 <ADC0_1_Handler+0xf4>)
    ce26:	fa14 f482 	uxtah	r4, r4, r2
    ce2a:	f894 2214 	ldrb.w	r2, [r4, #532]	; 0x214
    ce2e:	809a      	strh	r2, [r3, #4]
    ce30:	7d1a      	ldrb	r2, [r3, #20]
    ce32:	f042 0202 	orr.w	r2, r2, #2
    ce36:	751a      	strb	r2, [r3, #20]
    ce38:	4b1b      	ldr	r3, [pc, #108]	; (cea8 <ADC0_1_Handler+0xf4>)
    ce3a:	2201      	movs	r2, #1
    ce3c:	f883 202e 	strb.w	r2, [r3, #46]	; 0x2e
    ce40:	bc70      	pop	{r4, r5, r6}
    ce42:	4770      	bx	lr
    ce44:	7d1a      	ldrb	r2, [r3, #20]
    ce46:	b17a      	cbz	r2, ce68 <ADC0_1_Handler+0xb4>
    ce48:	4917      	ldr	r1, [pc, #92]	; (cea8 <ADC0_1_Handler+0xf4>)
    ce4a:	f8b1 2040 	ldrh.w	r2, [r1, #64]	; 0x40
    ce4e:	6918      	ldr	r0, [r3, #16]
    ce50:	fa10 f282 	uxtah	r2, r0, r2
    ce54:	611a      	str	r2, [r3, #16]
    ce56:	7d1a      	ldrb	r2, [r3, #20]
    ce58:	3a01      	subs	r2, #1
    ce5a:	b2d2      	uxtb	r2, r2
    ce5c:	751a      	strb	r2, [r3, #20]
    ce5e:	b11a      	cbz	r2, ce68 <ADC0_1_Handler+0xb4>
    ce60:	7d0b      	ldrb	r3, [r1, #20]
    ce62:	f043 0302 	orr.w	r3, r3, #2
    ce66:	750b      	strb	r3, [r1, #20]
    ce68:	4b0f      	ldr	r3, [pc, #60]	; (cea8 <ADC0_1_Handler+0xf4>)
    ce6a:	2201      	movs	r2, #1
    ce6c:	f883 202e 	strb.w	r2, [r3, #46]	; 0x2e
    ce70:	4770      	bx	lr
    ce72:	b185      	cbz	r5, ce96 <ADC0_1_Handler+0xe2>
    ce74:	4611      	mov	r1, r2
    ce76:	8c5e      	ldrh	r6, [r3, #34]	; 0x22
    ce78:	4c0d      	ldr	r4, [pc, #52]	; (ceb0 <ADC0_1_Handler+0xfc>)
    ce7a:	fa14 f686 	uxtah	r6, r4, r6
    ce7e:	1aaa      	subs	r2, r5, r2
    ce80:	f896 6210 	ldrb.w	r6, [r6, #528]	; 0x210
    ce84:	4132      	asrs	r2, r6
    ce86:	1aaa      	subs	r2, r5, r2
    ce88:	b292      	uxth	r2, r2
    ce8a:	4295      	cmp	r5, r2
    ce8c:	bf04      	itt	eq
    ce8e:	f102 32ff 	addeq.w	r2, r2, #4294967295
    ce92:	b292      	uxtheq	r2, r2
    ce94:	e7b4      	b.n	ce00 <ADC0_1_Handler+0x4c>
    ce96:	4c06      	ldr	r4, [pc, #24]	; (ceb0 <ADC0_1_Handler+0xfc>)
    ce98:	e7bb      	b.n	ce12 <ADC0_1_Handler+0x5e>
    ce9a:	3201      	adds	r2, #1
    ce9c:	b292      	uxth	r2, r2
    ce9e:	e7af      	b.n	ce00 <ADC0_1_Handler+0x4c>
    cea0:	460a      	mov	r2, r1
    cea2:	e7e8      	b.n	ce76 <ADC0_1_Handler+0xc2>
    cea4:	20005848 	.word	0x20005848
    cea8:	43001c00 	.word	0x43001c00
    ceac:	2000f9ec 	.word	0x2000f9ec
    ceb0:	00012058 	.word	0x00012058
    ceb4:	2000f9d4 	.word	0x2000f9d4

0000ceb8 <Analog_GetSupplyVoltage>:
    ceb8:	4b07      	ldr	r3, [pc, #28]	; (ced8 <Analog_GetSupplyVoltage+0x20>)
    ceba:	4808      	ldr	r0, [pc, #32]	; (cedc <Analog_GetSupplyVoltage+0x24>)
    cebc:	885a      	ldrh	r2, [r3, #2]
    cebe:	f24d 434c 	movw	r3, #54348	; 0xd44c
    cec2:	b292      	uxth	r2, r2
    cec4:	fb03 f302 	mul.w	r3, r3, r2
    cec8:	fba0 2003 	umull	r2, r0, r0, r3
    cecc:	1a1b      	subs	r3, r3, r0
    cece:	eb00 0053 	add.w	r0, r0, r3, lsr #1
    ced2:	0ac0      	lsrs	r0, r0, #11
    ced4:	4770      	bx	lr
    ced6:	bf00      	nop
    ced8:	2000f9ec 	.word	0x2000f9ec
    cedc:	00100101 	.word	0x00100101

0000cee0 <Analog_GetSupplyVoltageRaw>:
    cee0:	4b01      	ldr	r3, [pc, #4]	; (cee8 <Analog_GetSupplyVoltageRaw+0x8>)
    cee2:	8858      	ldrh	r0, [r3, #2]
    cee4:	b280      	uxth	r0, r0
    cee6:	4770      	bx	lr
    cee8:	2000f9ec 	.word	0x2000f9ec

0000ceec <Adc_GetTemperature>:
    ceec:	4b06      	ldr	r3, [pc, #24]	; (cf08 <Adc_GetTemperature+0x1c>)
    ceee:	4907      	ldr	r1, [pc, #28]	; (cf0c <Adc_GetTemperature+0x20>)
    cef0:	891a      	ldrh	r2, [r3, #8]
    cef2:	895b      	ldrh	r3, [r3, #10]
    cef4:	f3c2 02c8 	ubfx	r2, r2, #3, #9
    cef8:	f3c3 03c8 	ubfx	r3, r3, #3, #9
    cefc:	5c8a      	ldrb	r2, [r1, r2]
    cefe:	5cc8      	ldrb	r0, [r1, r3]
    cf00:	4290      	cmp	r0, r2
    cf02:	bf38      	it	cc
    cf04:	4610      	movcc	r0, r2
    cf06:	4770      	bx	lr
    cf08:	2000f9dc 	.word	0x2000f9dc
    cf0c:	00012058 	.word	0x00012058

0000cf10 <Adc_GetTemperatureRaw>:
    cf10:	4b05      	ldr	r3, [pc, #20]	; (cf28 <Adc_GetTemperatureRaw+0x18>)
    cf12:	8919      	ldrh	r1, [r3, #8]
    cf14:	895a      	ldrh	r2, [r3, #10]
    cf16:	b289      	uxth	r1, r1
    cf18:	b292      	uxth	r2, r2
    cf1a:	4291      	cmp	r1, r2
    cf1c:	bf34      	ite	cc
    cf1e:	8918      	ldrhcc	r0, [r3, #8]
    cf20:	8958      	ldrhcs	r0, [r3, #10]
    cf22:	b280      	uxth	r0, r0
    cf24:	4770      	bx	lr
    cf26:	bf00      	nop
    cf28:	2000f9dc 	.word	0x2000f9dc

0000cf2c <Adc_GetTemperatureMax>:
    cf2c:	4b01      	ldr	r3, [pc, #4]	; (cf34 <Adc_GetTemperatureMax+0x8>)
    cf2e:	681b      	ldr	r3, [r3, #0]
    cf30:	7d18      	ldrb	r0, [r3, #20]
    cf32:	4770      	bx	lr
    cf34:	2000ee30 	.word	0x2000ee30

0000cf38 <Adc_GetNtc>:
    cf38:	4b03      	ldr	r3, [pc, #12]	; (cf48 <Adc_GetNtc+0x10>)
    cf3a:	4a04      	ldr	r2, [pc, #16]	; (cf4c <Adc_GetNtc+0x14>)
    cf3c:	881b      	ldrh	r3, [r3, #0]
    cf3e:	f3c3 03c8 	ubfx	r3, r3, #3, #9
    cf42:	5cd0      	ldrb	r0, [r2, r3]
    cf44:	4770      	bx	lr
    cf46:	bf00      	nop
    cf48:	2000f9ec 	.word	0x2000f9ec
    cf4c:	00012058 	.word	0x00012058

0000cf50 <Adc_GetNtcMax>:
    cf50:	4b01      	ldr	r3, [pc, #4]	; (cf58 <Adc_GetNtcMax+0x8>)
    cf52:	681b      	ldr	r3, [r3, #0]
    cf54:	7d98      	ldrb	r0, [r3, #22]
    cf56:	4770      	bx	lr
    cf58:	2000ee30 	.word	0x2000ee30

0000cf5c <Adc_GetNtcRaw>:
    cf5c:	4b01      	ldr	r3, [pc, #4]	; (cf64 <Adc_GetNtcRaw+0x8>)
    cf5e:	8818      	ldrh	r0, [r3, #0]
    cf60:	b280      	uxth	r0, r0
    cf62:	4770      	bx	lr
    cf64:	2000f9ec 	.word	0x2000f9ec

0000cf68 <Adc_GetVled1Raw>:
    cf68:	4b01      	ldr	r3, [pc, #4]	; (cf70 <Adc_GetVled1Raw+0x8>)
    cf6a:	8818      	ldrh	r0, [r3, #0]
    cf6c:	b280      	uxth	r0, r0
    cf6e:	4770      	bx	lr
    cf70:	2000f9dc 	.word	0x2000f9dc

0000cf74 <Adc_GetVled1>:
    cf74:	4b07      	ldr	r3, [pc, #28]	; (cf94 <Adc_GetVled1+0x20>)
    cf76:	4808      	ldr	r0, [pc, #32]	; (cf98 <Adc_GetVled1+0x24>)
    cf78:	881a      	ldrh	r2, [r3, #0]
    cf7a:	f24d 434c 	movw	r3, #54348	; 0xd44c
    cf7e:	b292      	uxth	r2, r2
    cf80:	fb03 f302 	mul.w	r3, r3, r2
    cf84:	fba0 2003 	umull	r2, r0, r0, r3
    cf88:	1a1b      	subs	r3, r3, r0
    cf8a:	eb00 0053 	add.w	r0, r0, r3, lsr #1
    cf8e:	f3c0 20cf 	ubfx	r0, r0, #11, #16
    cf92:	4770      	bx	lr
    cf94:	2000f9dc 	.word	0x2000f9dc
    cf98:	00100101 	.word	0x00100101

0000cf9c <Adc_GetVled1LastRaw>:
    cf9c:	4b01      	ldr	r3, [pc, #4]	; (cfa4 <Adc_GetVled1LastRaw+0x8>)
    cf9e:	8818      	ldrh	r0, [r3, #0]
    cfa0:	b280      	uxth	r0, r0
    cfa2:	4770      	bx	lr
    cfa4:	2000f9f0 	.word	0x2000f9f0

0000cfa8 <Adc_GetVled2Raw>:
    cfa8:	4b01      	ldr	r3, [pc, #4]	; (cfb0 <Adc_GetVled2Raw+0x8>)
    cfaa:	8858      	ldrh	r0, [r3, #2]
    cfac:	b280      	uxth	r0, r0
    cfae:	4770      	bx	lr
    cfb0:	2000f9dc 	.word	0x2000f9dc

0000cfb4 <Adc_GetVled2>:
    cfb4:	4b07      	ldr	r3, [pc, #28]	; (cfd4 <Adc_GetVled2+0x20>)
    cfb6:	4808      	ldr	r0, [pc, #32]	; (cfd8 <Adc_GetVled2+0x24>)
    cfb8:	885a      	ldrh	r2, [r3, #2]
    cfba:	f24d 434c 	movw	r3, #54348	; 0xd44c
    cfbe:	b292      	uxth	r2, r2
    cfc0:	fb03 f302 	mul.w	r3, r3, r2
    cfc4:	fba0 2003 	umull	r2, r0, r0, r3
    cfc8:	1a1b      	subs	r3, r3, r0
    cfca:	eb00 0053 	add.w	r0, r0, r3, lsr #1
    cfce:	f3c0 20cf 	ubfx	r0, r0, #11, #16
    cfd2:	4770      	bx	lr
    cfd4:	2000f9dc 	.word	0x2000f9dc
    cfd8:	00100101 	.word	0x00100101

0000cfdc <Adc_GetVled2LastRaw>:
    cfdc:	4b01      	ldr	r3, [pc, #4]	; (cfe4 <Adc_GetVled2LastRaw+0x8>)
    cfde:	8858      	ldrh	r0, [r3, #2]
    cfe0:	b280      	uxth	r0, r0
    cfe2:	4770      	bx	lr
    cfe4:	2000f9f0 	.word	0x2000f9f0

0000cfe8 <Adc_GetVled3Raw>:
    cfe8:	4b01      	ldr	r3, [pc, #4]	; (cff0 <Adc_GetVled3Raw+0x8>)
    cfea:	8898      	ldrh	r0, [r3, #4]
    cfec:	b280      	uxth	r0, r0
    cfee:	4770      	bx	lr
    cff0:	2000f9dc 	.word	0x2000f9dc

0000cff4 <Adc_GetVled3>:
    cff4:	4b07      	ldr	r3, [pc, #28]	; (d014 <Adc_GetVled3+0x20>)
    cff6:	4808      	ldr	r0, [pc, #32]	; (d018 <Adc_GetVled3+0x24>)
    cff8:	889a      	ldrh	r2, [r3, #4]
    cffa:	f24d 434c 	movw	r3, #54348	; 0xd44c
    cffe:	b292      	uxth	r2, r2
    d000:	fb03 f302 	mul.w	r3, r3, r2
    d004:	fba0 2003 	umull	r2, r0, r0, r3
    d008:	1a1b      	subs	r3, r3, r0
    d00a:	eb00 0053 	add.w	r0, r0, r3, lsr #1
    d00e:	f3c0 20cf 	ubfx	r0, r0, #11, #16
    d012:	4770      	bx	lr
    d014:	2000f9dc 	.word	0x2000f9dc
    d018:	00100101 	.word	0x00100101

0000d01c <Adc_GetVled3LastRaw>:
    d01c:	4b01      	ldr	r3, [pc, #4]	; (d024 <Adc_GetVled3LastRaw+0x8>)
    d01e:	8898      	ldrh	r0, [r3, #4]
    d020:	b280      	uxth	r0, r0
    d022:	4770      	bx	lr
    d024:	2000f9f0 	.word	0x2000f9f0

0000d028 <Adc_GetVled4Raw>:
    d028:	4b01      	ldr	r3, [pc, #4]	; (d030 <Adc_GetVled4Raw+0x8>)
    d02a:	88d8      	ldrh	r0, [r3, #6]
    d02c:	b280      	uxth	r0, r0
    d02e:	4770      	bx	lr
    d030:	2000f9dc 	.word	0x2000f9dc

0000d034 <Adc_GetVled4>:
    d034:	4b07      	ldr	r3, [pc, #28]	; (d054 <Adc_GetVled4+0x20>)
    d036:	4808      	ldr	r0, [pc, #32]	; (d058 <Adc_GetVled4+0x24>)
    d038:	88da      	ldrh	r2, [r3, #6]
    d03a:	f24d 434c 	movw	r3, #54348	; 0xd44c
    d03e:	b292      	uxth	r2, r2
    d040:	fb03 f302 	mul.w	r3, r3, r2
    d044:	fba0 2003 	umull	r2, r0, r0, r3
    d048:	1a1b      	subs	r3, r3, r0
    d04a:	eb00 0053 	add.w	r0, r0, r3, lsr #1
    d04e:	f3c0 20cf 	ubfx	r0, r0, #11, #16
    d052:	4770      	bx	lr
    d054:	2000f9dc 	.word	0x2000f9dc
    d058:	00100101 	.word	0x00100101

0000d05c <Adc_GetVled4LastRaw>:
    d05c:	4b01      	ldr	r3, [pc, #4]	; (d064 <Adc_GetVled4LastRaw+0x8>)
    d05e:	88d8      	ldrh	r0, [r3, #6]
    d060:	b280      	uxth	r0, r0
    d062:	4770      	bx	lr
    d064:	2000f9f0 	.word	0x2000f9f0

0000d068 <State_SetError.part.0>:
    d068:	4a05      	ldr	r2, [pc, #20]	; (d080 <State_SetError.part.0+0x18>)
    d06a:	6813      	ldr	r3, [r2, #0]
    d06c:	b903      	cbnz	r3, d070 <State_SetError.part.0+0x8>
    d06e:	8093      	strh	r3, [r2, #4]
    d070:	6811      	ldr	r1, [r2, #0]
    d072:	2301      	movs	r3, #1
    d074:	fa03 f000 	lsl.w	r0, r3, r0
    d078:	4308      	orrs	r0, r1
    d07a:	6010      	str	r0, [r2, #0]
    d07c:	4770      	bx	lr
    d07e:	bf00      	nop
    d080:	2000587c 	.word	0x2000587c

0000d084 <State_SetWarning.part.2>:
    d084:	4a06      	ldr	r2, [pc, #24]	; (d0a0 <State_SetWarning.part.2+0x1c>)
    d086:	6813      	ldr	r3, [r2, #0]
    d088:	b91b      	cbnz	r3, d092 <State_SetWarning.part.2+0xe>
    d08a:	6893      	ldr	r3, [r2, #8]
    d08c:	b90b      	cbnz	r3, d092 <State_SetWarning.part.2+0xe>
    d08e:	8093      	strh	r3, [r2, #4]
    d090:	8193      	strh	r3, [r2, #12]
    d092:	6891      	ldr	r1, [r2, #8]
    d094:	2301      	movs	r3, #1
    d096:	fa03 f000 	lsl.w	r0, r3, r0
    d09a:	4308      	orrs	r0, r1
    d09c:	6090      	str	r0, [r2, #8]
    d09e:	4770      	bx	lr
    d0a0:	2000587c 	.word	0x2000587c

0000d0a4 <State_SetError>:
    d0a4:	281f      	cmp	r0, #31
    d0a6:	d801      	bhi.n	d0ac <State_SetError+0x8>
    d0a8:	4b01      	ldr	r3, [pc, #4]	; (d0b0 <State_SetError+0xc>)
    d0aa:	4718      	bx	r3
    d0ac:	4770      	bx	lr
    d0ae:	bf00      	nop
    d0b0:	0000d069 	.word	0x0000d069

0000d0b4 <State_ClearError>:
    d0b4:	281f      	cmp	r0, #31
    d0b6:	d807      	bhi.n	d0c8 <State_ClearError+0x14>
    d0b8:	4904      	ldr	r1, [pc, #16]	; (d0cc <State_ClearError+0x18>)
    d0ba:	2201      	movs	r2, #1
    d0bc:	680b      	ldr	r3, [r1, #0]
    d0be:	fa02 f000 	lsl.w	r0, r2, r0
    d0c2:	ea23 0000 	bic.w	r0, r3, r0
    d0c6:	6008      	str	r0, [r1, #0]
    d0c8:	4770      	bx	lr
    d0ca:	bf00      	nop
    d0cc:	2000587c 	.word	0x2000587c

0000d0d0 <State_GetHighestError>:
    d0d0:	b410      	push	{r4}
    d0d2:	2300      	movs	r3, #0
    d0d4:	4c07      	ldr	r4, [pc, #28]	; (d0f4 <State_GetHighestError+0x24>)
    d0d6:	2101      	movs	r1, #1
    d0d8:	e002      	b.n	d0e0 <State_GetHighestError+0x10>
    d0da:	3301      	adds	r3, #1
    d0dc:	2b20      	cmp	r3, #32
    d0de:	d005      	beq.n	d0ec <State_GetHighestError+0x1c>
    d0e0:	6822      	ldr	r2, [r4, #0]
    d0e2:	fa01 f003 	lsl.w	r0, r1, r3
    d0e6:	4010      	ands	r0, r2
    d0e8:	d0f7      	beq.n	d0da <State_GetHighestError+0xa>
    d0ea:	b258      	sxtb	r0, r3
    d0ec:	f85d 4b04 	ldr.w	r4, [sp], #4
    d0f0:	4770      	bx	lr
    d0f2:	bf00      	nop
    d0f4:	2000587c 	.word	0x2000587c

0000d0f8 <State_SetWarning>:
    d0f8:	281f      	cmp	r0, #31
    d0fa:	d801      	bhi.n	d100 <State_SetWarning+0x8>
    d0fc:	4b01      	ldr	r3, [pc, #4]	; (d104 <State_SetWarning+0xc>)
    d0fe:	4718      	bx	r3
    d100:	4770      	bx	lr
    d102:	bf00      	nop
    d104:	0000d085 	.word	0x0000d085

0000d108 <State_ClearWarning>:
    d108:	281f      	cmp	r0, #31
    d10a:	d810      	bhi.n	d12e <State_ClearWarning+0x26>
    d10c:	4b08      	ldr	r3, [pc, #32]	; (d130 <State_ClearWarning+0x28>)
    d10e:	b410      	push	{r4}
    d110:	2101      	movs	r1, #1
    d112:	689c      	ldr	r4, [r3, #8]
    d114:	689a      	ldr	r2, [r3, #8]
    d116:	fa01 f000 	lsl.w	r0, r1, r0
    d11a:	ea22 0000 	bic.w	r0, r2, r0
    d11e:	6098      	str	r0, [r3, #8]
    d120:	b11c      	cbz	r4, d12a <State_ClearWarning+0x22>
    d122:	689a      	ldr	r2, [r3, #8]
    d124:	b90a      	cbnz	r2, d12a <State_ClearWarning+0x22>
    d126:	2219      	movs	r2, #25
    d128:	81da      	strh	r2, [r3, #14]
    d12a:	f85d 4b04 	ldr.w	r4, [sp], #4
    d12e:	4770      	bx	lr
    d130:	2000587c 	.word	0x2000587c

0000d134 <State_IsWarningActive>:
    d134:	4a04      	ldr	r2, [pc, #16]	; (d148 <State_IsWarningActive+0x14>)
    d136:	2301      	movs	r3, #1
    d138:	6892      	ldr	r2, [r2, #8]
    d13a:	fa03 f000 	lsl.w	r0, r3, r0
    d13e:	4210      	tst	r0, r2
    d140:	bf14      	ite	ne
    d142:	4618      	movne	r0, r3
    d144:	2000      	moveq	r0, #0
    d146:	4770      	bx	lr
    d148:	2000587c 	.word	0x2000587c

0000d14c <State_GetHighestWarning>:
    d14c:	b410      	push	{r4}
    d14e:	2000      	movs	r0, #0
    d150:	4c09      	ldr	r4, [pc, #36]	; (d178 <State_GetHighestWarning+0x2c>)
    d152:	2101      	movs	r1, #1
    d154:	e002      	b.n	d15c <State_GetHighestWarning+0x10>
    d156:	3001      	adds	r0, #1
    d158:	2820      	cmp	r0, #32
    d15a:	d008      	beq.n	d16e <State_GetHighestWarning+0x22>
    d15c:	68a3      	ldr	r3, [r4, #8]
    d15e:	fa01 f200 	lsl.w	r2, r1, r0
    d162:	421a      	tst	r2, r3
    d164:	d0f7      	beq.n	d156 <State_GetHighestWarning+0xa>
    d166:	b240      	sxtb	r0, r0
    d168:	f85d 4b04 	ldr.w	r4, [sp], #4
    d16c:	4770      	bx	lr
    d16e:	f04f 30ff 	mov.w	r0, #4294967295
    d172:	f85d 4b04 	ldr.w	r4, [sp], #4
    d176:	4770      	bx	lr
    d178:	2000587c 	.word	0x2000587c

0000d17c <State_SetStartInfo>:
    d17c:	281f      	cmp	r0, #31
    d17e:	d806      	bhi.n	d18e <State_SetStartInfo+0x12>
    d180:	4a03      	ldr	r2, [pc, #12]	; (d190 <State_SetStartInfo+0x14>)
    d182:	2301      	movs	r3, #1
    d184:	6911      	ldr	r1, [r2, #16]
    d186:	fa03 f000 	lsl.w	r0, r3, r0
    d18a:	4308      	orrs	r0, r1
    d18c:	6110      	str	r0, [r2, #16]
    d18e:	4770      	bx	lr
    d190:	2000587c 	.word	0x2000587c

0000d194 <State_ClearStartInfo>:
    d194:	281f      	cmp	r0, #31
    d196:	d810      	bhi.n	d1ba <State_ClearStartInfo+0x26>
    d198:	4b08      	ldr	r3, [pc, #32]	; (d1bc <State_ClearStartInfo+0x28>)
    d19a:	b410      	push	{r4}
    d19c:	2101      	movs	r1, #1
    d19e:	691c      	ldr	r4, [r3, #16]
    d1a0:	691a      	ldr	r2, [r3, #16]
    d1a2:	fa01 f000 	lsl.w	r0, r1, r0
    d1a6:	ea22 0000 	bic.w	r0, r2, r0
    d1aa:	6118      	str	r0, [r3, #16]
    d1ac:	b11c      	cbz	r4, d1b6 <State_ClearStartInfo+0x22>
    d1ae:	691a      	ldr	r2, [r3, #16]
    d1b0:	b90a      	cbnz	r2, d1b6 <State_ClearStartInfo+0x22>
    d1b2:	2219      	movs	r2, #25
    d1b4:	81da      	strh	r2, [r3, #14]
    d1b6:	f85d 4b04 	ldr.w	r4, [sp], #4
    d1ba:	4770      	bx	lr
    d1bc:	2000587c 	.word	0x2000587c

0000d1c0 <State_SetAttentionInfo>:
    d1c0:	b410      	push	{r4}
    d1c2:	eb02 0282 	add.w	r2, r2, r2, lsl #2
    d1c6:	4c07      	ldr	r4, [pc, #28]	; (d1e4 <State_SetAttentionInfo+0x24>)
    d1c8:	b292      	uxth	r2, r2
    d1ca:	7620      	strb	r0, [r4, #24]
    d1cc:	7661      	strb	r1, [r4, #25]
    d1ce:	8362      	strh	r2, [r4, #26]
    d1d0:	7723      	strb	r3, [r4, #28]
    d1d2:	8b63      	ldrh	r3, [r4, #26]
    d1d4:	b29b      	uxth	r3, r3
    d1d6:	b913      	cbnz	r3, d1de <State_SetAttentionInfo+0x1e>
    d1d8:	83e3      	strh	r3, [r4, #30]
    d1da:	f884 3020 	strb.w	r3, [r4, #32]
    d1de:	f85d 4b04 	ldr.w	r4, [sp], #4
    d1e2:	4770      	bx	lr
    d1e4:	2000587c 	.word	0x2000587c

0000d1e8 <State_ClearAttentionInfo>:
    d1e8:	4b01      	ldr	r3, [pc, #4]	; (d1f0 <State_ClearAttentionInfo+0x8>)
    d1ea:	2200      	movs	r2, #0
    d1ec:	835a      	strh	r2, [r3, #26]
    d1ee:	4770      	bx	lr
    d1f0:	2000587c 	.word	0x2000587c

0000d1f4 <State_SetLed>:
    d1f4:	b5f0      	push	{r4, r5, r6, r7, lr}
    d1f6:	2900      	cmp	r1, #0
    d1f8:	d06b      	beq.n	d2d2 <State_SetLed+0xde>
    d1fa:	ea4f 0e40 	mov.w	lr, r0, lsl #1
    d1fe:	eb0e 0300 	add.w	r3, lr, r0
    d202:	4f3c      	ldr	r7, [pc, #240]	; (d2f4 <State_SetLed+0x100>)
    d204:	4d3c      	ldr	r5, [pc, #240]	; (d2f8 <State_SetLed+0x104>)
    d206:	5cfc      	ldrb	r4, [r7, r3]
    d208:	8cab      	ldrh	r3, [r5, #36]	; 0x24
    d20a:	4e3c      	ldr	r6, [pc, #240]	; (d2fc <State_SetLed+0x108>)
    d20c:	eb04 0284 	add.w	r2, r4, r4, lsl #2
    d210:	eb02 0282 	add.w	r2, r2, r2, lsl #2
    d214:	b21b      	sxth	r3, r3
    d216:	ebc3 0382 	rsb	r3, r3, r2, lsl #2
    d21a:	2b00      	cmp	r3, #0
    d21c:	ea4f 0151 	mov.w	r1, r1, lsr #1
    d220:	bfb8      	it	lt
    d222:	425b      	neglt	r3, r3
    d224:	fb93 f3f1 	sdiv	r3, r3, r1
    d228:	b29b      	uxth	r3, r3
    d22a:	f8a6 305c 	strh.w	r3, [r6, #92]	; 0x5c
    d22e:	f8b6 305c 	ldrh.w	r3, [r6, #92]	; 0x5c
    d232:	b29b      	uxth	r3, r3
    d234:	b913      	cbnz	r3, d23c <State_SetLed+0x48>
    d236:	2301      	movs	r3, #1
    d238:	f8a6 305c 	strh.w	r3, [r6, #92]	; 0x5c
    d23c:	eb0e 0200 	add.w	r2, lr, r0
    d240:	443a      	add	r2, r7
    d242:	8ceb      	ldrh	r3, [r5, #38]	; 0x26
    d244:	7852      	ldrb	r2, [r2, #1]
    d246:	eb02 0c82 	add.w	ip, r2, r2, lsl #2
    d24a:	eb0c 0c8c 	add.w	ip, ip, ip, lsl #2
    d24e:	b21b      	sxth	r3, r3
    d250:	ebc3 038c 	rsb	r3, r3, ip, lsl #2
    d254:	2b00      	cmp	r3, #0
    d256:	bfb8      	it	lt
    d258:	425b      	neglt	r3, r3
    d25a:	fb93 f3f1 	sdiv	r3, r3, r1
    d25e:	b29b      	uxth	r3, r3
    d260:	f8a6 305e 	strh.w	r3, [r6, #94]	; 0x5e
    d264:	f8b6 305e 	ldrh.w	r3, [r6, #94]	; 0x5e
    d268:	b29b      	uxth	r3, r3
    d26a:	b913      	cbnz	r3, d272 <State_SetLed+0x7e>
    d26c:	2301      	movs	r3, #1
    d26e:	f8a6 305e 	strh.w	r3, [r6, #94]	; 0x5e
    d272:	4470      	add	r0, lr
    d274:	4407      	add	r7, r0
    d276:	8d28      	ldrh	r0, [r5, #40]	; 0x28
    d278:	78bb      	ldrb	r3, [r7, #2]
    d27a:	eb03 0783 	add.w	r7, r3, r3, lsl #2
    d27e:	eb07 0787 	add.w	r7, r7, r7, lsl #2
    d282:	b200      	sxth	r0, r0
    d284:	ebc0 0087 	rsb	r0, r0, r7, lsl #2
    d288:	2800      	cmp	r0, #0
    d28a:	bfb8      	it	lt
    d28c:	4240      	neglt	r0, r0
    d28e:	fb90 f1f1 	sdiv	r1, r0, r1
    d292:	b289      	uxth	r1, r1
    d294:	f8a6 1060 	strh.w	r1, [r6, #96]	; 0x60
    d298:	f8b6 1060 	ldrh.w	r1, [r6, #96]	; 0x60
    d29c:	b289      	uxth	r1, r1
    d29e:	b911      	cbnz	r1, d2a6 <State_SetLed+0xb2>
    d2a0:	2101      	movs	r1, #1
    d2a2:	f8a6 1060 	strh.w	r1, [r6, #96]	; 0x60
    d2a6:	eb04 0484 	add.w	r4, r4, r4, lsl #2
    d2aa:	eb02 0282 	add.w	r2, r2, r2, lsl #2
    d2ae:	eb03 0383 	add.w	r3, r3, r3, lsl #2
    d2b2:	eb04 0484 	add.w	r4, r4, r4, lsl #2
    d2b6:	eb02 0282 	add.w	r2, r2, r2, lsl #2
    d2ba:	eb03 0383 	add.w	r3, r3, r3, lsl #2
    d2be:	00a4      	lsls	r4, r4, #2
    d2c0:	0092      	lsls	r2, r2, #2
    d2c2:	009b      	lsls	r3, r3, #2
    d2c4:	b2a4      	uxth	r4, r4
    d2c6:	b292      	uxth	r2, r2
    d2c8:	b29b      	uxth	r3, r3
    d2ca:	85ac      	strh	r4, [r5, #44]	; 0x2c
    d2cc:	85ea      	strh	r2, [r5, #46]	; 0x2e
    d2ce:	862b      	strh	r3, [r5, #48]	; 0x30
    d2d0:	bdf0      	pop	{r4, r5, r6, r7, pc}
    d2d2:	4a08      	ldr	r2, [pc, #32]	; (d2f4 <State_SetLed+0x100>)
    d2d4:	4e09      	ldr	r6, [pc, #36]	; (d2fc <State_SetLed+0x108>)
    d2d6:	4d08      	ldr	r5, [pc, #32]	; (d2f8 <State_SetLed+0x104>)
    d2d8:	f8a6 105c 	strh.w	r1, [r6, #92]	; 0x5c
    d2dc:	eb00 0040 	add.w	r0, r0, r0, lsl #1
    d2e0:	1813      	adds	r3, r2, r0
    d2e2:	5c14      	ldrb	r4, [r2, r0]
    d2e4:	f8a6 105e 	strh.w	r1, [r6, #94]	; 0x5e
    d2e8:	785a      	ldrb	r2, [r3, #1]
    d2ea:	f8a6 1060 	strh.w	r1, [r6, #96]	; 0x60
    d2ee:	789b      	ldrb	r3, [r3, #2]
    d2f0:	e7d9      	b.n	d2a6 <State_SetLed+0xb2>
    d2f2:	bf00      	nop
    d2f4:	00012284 	.word	0x00012284
    d2f8:	2000587c 	.word	0x2000587c
    d2fc:	20002a20 	.word	0x20002a20

0000d300 <State_Blink>:
    d300:	b570      	push	{r4, r5, r6, lr}
    d302:	4d2b      	ldr	r5, [pc, #172]	; (d3b0 <State_Blink+0xb0>)
    d304:	88ab      	ldrh	r3, [r5, #4]
    d306:	b29b      	uxth	r3, r3
    d308:	b9bb      	cbnz	r3, d33a <State_Blink+0x3a>
    d30a:	2401      	movs	r4, #1
    d30c:	e001      	b.n	d312 <State_Blink+0x12>
    d30e:	2b20      	cmp	r3, #32
    d310:	d008      	beq.n	d324 <State_Blink+0x24>
    d312:	fa04 f203 	lsl.w	r2, r4, r3
    d316:	420a      	tst	r2, r1
    d318:	b2d8      	uxtb	r0, r3
    d31a:	f103 0301 	add.w	r3, r3, #1
    d31e:	d0f6      	beq.n	d30e <State_Blink+0xe>
    d320:	3001      	adds	r0, #1
    d322:	8668      	strh	r0, [r5, #50]	; 0x32
    d324:	2401      	movs	r4, #1
    d326:	2300      	movs	r3, #0
    d328:	80ac      	strh	r4, [r5, #4]
    d32a:	2132      	movs	r1, #50	; 0x32
    d32c:	86ab      	strh	r3, [r5, #52]	; 0x34
    d32e:	2009      	movs	r0, #9
    d330:	86eb      	strh	r3, [r5, #54]	; 0x36
    d332:	4a20      	ldr	r2, [pc, #128]	; (d3b4 <State_Blink+0xb4>)
    d334:	e8bd 4070 	ldmia.w	sp!, {r4, r5, r6, lr}
    d338:	4710      	bx	r2
    d33a:	88ab      	ldrh	r3, [r5, #4]
    d33c:	b29b      	uxth	r3, r3
    d33e:	2b01      	cmp	r3, #1
    d340:	d00a      	beq.n	d358 <State_Blink+0x58>
    d342:	88ab      	ldrh	r3, [r5, #4]
    d344:	b29b      	uxth	r3, r3
    d346:	2b02      	cmp	r3, #2
    d348:	d009      	beq.n	d35e <State_Blink+0x5e>
    d34a:	88ab      	ldrh	r3, [r5, #4]
    d34c:	b29b      	uxth	r3, r3
    d34e:	2b04      	cmp	r3, #4
    d350:	d022      	beq.n	d398 <State_Blink+0x98>
    d352:	2300      	movs	r3, #0
    d354:	80ab      	strh	r3, [r5, #4]
    d356:	bd70      	pop	{r4, r5, r6, pc}
    d358:	2302      	movs	r3, #2
    d35a:	80ab      	strh	r3, [r5, #4]
    d35c:	bd70      	pop	{r4, r5, r6, pc}
    d35e:	8eab      	ldrh	r3, [r5, #52]	; 0x34
    d360:	3301      	adds	r3, #1
    d362:	b29b      	uxth	r3, r3
    d364:	86ab      	strh	r3, [r5, #52]	; 0x34
    d366:	07db      	lsls	r3, r3, #31
    d368:	f04f 0132 	mov.w	r1, #50	; 0x32
    d36c:	d510      	bpl.n	d390 <State_Blink+0x90>
    d36e:	4b11      	ldr	r3, [pc, #68]	; (d3b4 <State_Blink+0xb4>)
    d370:	2009      	movs	r0, #9
    d372:	4798      	blx	r3
    d374:	8eeb      	ldrh	r3, [r5, #54]	; 0x36
    d376:	b29b      	uxth	r3, r3
    d378:	1c5a      	adds	r2, r3, #1
    d37a:	b292      	uxth	r2, r2
    d37c:	86ea      	strh	r2, [r5, #54]	; 0x36
    d37e:	8e6a      	ldrh	r2, [r5, #50]	; 0x32
    d380:	b292      	uxth	r2, r2
    d382:	4293      	cmp	r3, r2
    d384:	d3e7      	bcc.n	d356 <State_Blink+0x56>
    d386:	2203      	movs	r2, #3
    d388:	2300      	movs	r3, #0
    d38a:	80aa      	strh	r2, [r5, #4]
    d38c:	86ab      	strh	r3, [r5, #52]	; 0x34
    d38e:	bd70      	pop	{r4, r5, r6, pc}
    d390:	4b08      	ldr	r3, [pc, #32]	; (d3b4 <State_Blink+0xb4>)
    d392:	e8bd 4070 	ldmia.w	sp!, {r4, r5, r6, lr}
    d396:	4718      	bx	r3
    d398:	4b06      	ldr	r3, [pc, #24]	; (d3b4 <State_Blink+0xb4>)
    d39a:	2132      	movs	r1, #50	; 0x32
    d39c:	2009      	movs	r0, #9
    d39e:	4798      	blx	r3
    d3a0:	8eab      	ldrh	r3, [r5, #52]	; 0x34
    d3a2:	3301      	adds	r3, #1
    d3a4:	b29b      	uxth	r3, r3
    d3a6:	2b03      	cmp	r3, #3
    d3a8:	86ab      	strh	r3, [r5, #52]	; 0x34
    d3aa:	d9d4      	bls.n	d356 <State_Blink+0x56>
    d3ac:	e7d1      	b.n	d352 <State_Blink+0x52>
    d3ae:	bf00      	nop
    d3b0:	2000587c 	.word	0x2000587c
    d3b4:	0000d1f5 	.word	0x0000d1f5

0000d3b8 <State_Timer200ms>:
    d3b8:	b510      	push	{r4, lr}
    d3ba:	4c89      	ldr	r4, [pc, #548]	; (d5e0 <State_Timer200ms+0x228>)
    d3bc:	8f23      	ldrh	r3, [r4, #56]	; 0x38
    d3be:	3301      	adds	r3, #1
    d3c0:	b29b      	uxth	r3, r3
    d3c2:	2b13      	cmp	r3, #19
    d3c4:	8723      	strh	r3, [r4, #56]	; 0x38
    d3c6:	bf84      	itt	hi
    d3c8:	2300      	movhi	r3, #0
    d3ca:	8723      	strhhi	r3, [r4, #56]	; 0x38
    d3cc:	8f23      	ldrh	r3, [r4, #56]	; 0x38
    d3ce:	b29b      	uxth	r3, r3
    d3d0:	b92b      	cbnz	r3, d3de <State_Timer200ms+0x26>
    d3d2:	89a2      	ldrh	r2, [r4, #12]
    d3d4:	b292      	uxth	r2, r2
    d3d6:	2a01      	cmp	r2, #1
    d3d8:	bf04      	itt	eq
    d3da:	81a3      	strheq	r3, [r4, #12]
    d3dc:	80a3      	strheq	r3, [r4, #4]
    d3de:	4a81      	ldr	r2, [pc, #516]	; (d5e4 <State_Timer200ms+0x22c>)
    d3e0:	f8b2 3064 	ldrh.w	r3, [r2, #100]	; 0x64
    d3e4:	b29b      	uxth	r3, r3
    d3e6:	b143      	cbz	r3, d3fa <State_Timer200ms+0x42>
    d3e8:	f8b2 3064 	ldrh.w	r3, [r2, #100]	; 0x64
    d3ec:	3b01      	subs	r3, #1
    d3ee:	b29b      	uxth	r3, r3
    d3f0:	f8a2 3064 	strh.w	r3, [r2, #100]	; 0x64
    d3f4:	2b00      	cmp	r3, #0
    d3f6:	f000 8087 	beq.w	d508 <State_Timer200ms+0x150>
    d3fa:	2300      	movs	r3, #0
    d3fc:	f884 303a 	strb.w	r3, [r4, #58]	; 0x3a
    d400:	8b63      	ldrh	r3, [r4, #26]
    d402:	b29b      	uxth	r3, r3
    d404:	2b00      	cmp	r3, #0
    d406:	d02b      	beq.n	d460 <State_Timer200ms+0xa8>
    d408:	68a3      	ldr	r3, [r4, #8]
    d40a:	bb2b      	cbnz	r3, d458 <State_Timer200ms+0xa0>
    d40c:	6823      	ldr	r3, [r4, #0]
    d40e:	bb1b      	cbnz	r3, d458 <State_Timer200ms+0xa0>
    d410:	8be3      	ldrh	r3, [r4, #30]
    d412:	3301      	adds	r3, #1
    d414:	b29b      	uxth	r3, r3
    d416:	83e3      	strh	r3, [r4, #30]
    d418:	7f22      	ldrb	r2, [r4, #28]
    d41a:	4293      	cmp	r3, r2
    d41c:	d30d      	bcc.n	d43a <State_Timer200ms+0x82>
    d41e:	f894 3020 	ldrb.w	r3, [r4, #32]
    d422:	2b00      	cmp	r3, #0
    d424:	f040 80d4 	bne.w	d5d0 <State_Timer200ms+0x218>
    d428:	4b6f      	ldr	r3, [pc, #444]	; (d5e8 <State_Timer200ms+0x230>)
    d42a:	7e20      	ldrb	r0, [r4, #24]
    d42c:	2132      	movs	r1, #50	; 0x32
    d42e:	4798      	blx	r3
    d430:	2301      	movs	r3, #1
    d432:	f884 3020 	strb.w	r3, [r4, #32]
    d436:	2300      	movs	r3, #0
    d438:	83e3      	strh	r3, [r4, #30]
    d43a:	8b63      	ldrh	r3, [r4, #26]
    d43c:	3b01      	subs	r3, #1
    d43e:	b29b      	uxth	r3, r3
    d440:	2200      	movs	r2, #0
    d442:	8363      	strh	r3, [r4, #26]
    d444:	80a2      	strh	r2, [r4, #4]
    d446:	89a3      	ldrh	r3, [r4, #12]
    d448:	b29b      	uxth	r3, r3
    d44a:	2b01      	cmp	r3, #1
    d44c:	d93f      	bls.n	d4ce <State_Timer200ms+0x116>
    d44e:	89a3      	ldrh	r3, [r4, #12]
    d450:	3b01      	subs	r3, #1
    d452:	b29b      	uxth	r3, r3
    d454:	81a3      	strh	r3, [r4, #12]
    d456:	bd10      	pop	{r4, pc}
    d458:	89a3      	ldrh	r3, [r4, #12]
    d45a:	b29b      	uxth	r3, r3
    d45c:	2b00      	cmp	r3, #0
    d45e:	d1d7      	bne.n	d410 <State_Timer200ms+0x58>
    d460:	6823      	ldr	r3, [r4, #0]
    d462:	2b00      	cmp	r3, #0
    d464:	d034      	beq.n	d4d0 <State_Timer200ms+0x118>
    d466:	89a3      	ldrh	r3, [r4, #12]
    d468:	b29b      	uxth	r3, r3
    d46a:	2b00      	cmp	r3, #0
    d46c:	d037      	beq.n	d4de <State_Timer200ms+0x126>
    d46e:	68a3      	ldr	r3, [r4, #8]
    d470:	b913      	cbnz	r3, d478 <State_Timer200ms+0xc0>
    d472:	6c23      	ldr	r3, [r4, #64]	; 0x40
    d474:	2b00      	cmp	r3, #0
    d476:	d056      	beq.n	d526 <State_Timer200ms+0x16e>
    d478:	89a3      	ldrh	r3, [r4, #12]
    d47a:	b29b      	uxth	r3, r3
    d47c:	2b00      	cmp	r3, #0
    d47e:	d152      	bne.n	d526 <State_Timer200ms+0x16e>
    d480:	6c23      	ldr	r3, [r4, #64]	; 0x40
    d482:	b90b      	cbnz	r3, d488 <State_Timer200ms+0xd0>
    d484:	68a3      	ldr	r3, [r4, #8]
    d486:	6423      	str	r3, [r4, #64]	; 0x40
    d488:	4b58      	ldr	r3, [pc, #352]	; (d5ec <State_Timer200ms+0x234>)
    d48a:	6c21      	ldr	r1, [r4, #64]	; 0x40
    d48c:	2003      	movs	r0, #3
    d48e:	4798      	blx	r3
    d490:	88a3      	ldrh	r3, [r4, #4]
    d492:	b29b      	uxth	r3, r3
    d494:	b93b      	cbnz	r3, d4a6 <State_Timer200ms+0xee>
    d496:	8b62      	ldrh	r2, [r4, #26]
    d498:	b292      	uxth	r2, r2
    d49a:	2a0a      	cmp	r2, #10
    d49c:	bf8c      	ite	hi
    d49e:	2215      	movhi	r2, #21
    d4a0:	2201      	movls	r2, #1
    d4a2:	81a2      	strh	r2, [r4, #12]
    d4a4:	6423      	str	r3, [r4, #64]	; 0x40
    d4a6:	89a3      	ldrh	r3, [r4, #12]
    d4a8:	b29b      	uxth	r3, r3
    d4aa:	2b01      	cmp	r3, #1
    d4ac:	d903      	bls.n	d4b6 <State_Timer200ms+0xfe>
    d4ae:	89a3      	ldrh	r3, [r4, #12]
    d4b0:	3b01      	subs	r3, #1
    d4b2:	b29b      	uxth	r3, r3
    d4b4:	81a3      	strh	r3, [r4, #12]
    d4b6:	f8b4 3044 	ldrh.w	r3, [r4, #68]	; 0x44
    d4ba:	b29b      	uxth	r3, r3
    d4bc:	b13b      	cbz	r3, d4ce <State_Timer200ms+0x116>
    d4be:	f8b4 3044 	ldrh.w	r3, [r4, #68]	; 0x44
    d4c2:	3b01      	subs	r3, #1
    d4c4:	b29b      	uxth	r3, r3
    d4c6:	f8a4 3044 	strh.w	r3, [r4, #68]	; 0x44
    d4ca:	2b00      	cmp	r3, #0
    d4cc:	d07a      	beq.n	d5c4 <State_Timer200ms+0x20c>
    d4ce:	bd10      	pop	{r4, pc}
    d4d0:	6be3      	ldr	r3, [r4, #60]	; 0x3c
    d4d2:	2b00      	cmp	r3, #0
    d4d4:	d0cb      	beq.n	d46e <State_Timer200ms+0xb6>
    d4d6:	89a3      	ldrh	r3, [r4, #12]
    d4d8:	b29b      	uxth	r3, r3
    d4da:	2b00      	cmp	r3, #0
    d4dc:	d1c7      	bne.n	d46e <State_Timer200ms+0xb6>
    d4de:	6be3      	ldr	r3, [r4, #60]	; 0x3c
    d4e0:	b90b      	cbnz	r3, d4e6 <State_Timer200ms+0x12e>
    d4e2:	6823      	ldr	r3, [r4, #0]
    d4e4:	63e3      	str	r3, [r4, #60]	; 0x3c
    d4e6:	4b41      	ldr	r3, [pc, #260]	; (d5ec <State_Timer200ms+0x234>)
    d4e8:	6be1      	ldr	r1, [r4, #60]	; 0x3c
    d4ea:	2000      	movs	r0, #0
    d4ec:	4798      	blx	r3
    d4ee:	88a3      	ldrh	r3, [r4, #4]
    d4f0:	b29b      	uxth	r3, r3
    d4f2:	2b00      	cmp	r3, #0
    d4f4:	d1d7      	bne.n	d4a6 <State_Timer200ms+0xee>
    d4f6:	8b62      	ldrh	r2, [r4, #26]
    d4f8:	b292      	uxth	r2, r2
    d4fa:	2a0a      	cmp	r2, #10
    d4fc:	bf8c      	ite	hi
    d4fe:	2215      	movhi	r2, #21
    d500:	2201      	movls	r2, #1
    d502:	81a2      	strh	r2, [r4, #12]
    d504:	63e3      	str	r3, [r4, #60]	; 0x3c
    d506:	e7ce      	b.n	d4a6 <State_Timer200ms+0xee>
    d508:	f894 103a 	ldrb.w	r1, [r4, #58]	; 0x3a
    d50c:	2900      	cmp	r1, #0
    d50e:	f43f af74 	beq.w	d3fa <State_Timer200ms+0x42>
    d512:	f8a2 305c 	strh.w	r3, [r2, #92]	; 0x5c
    d516:	f8a2 305e 	strh.w	r3, [r2, #94]	; 0x5e
    d51a:	f8a2 3060 	strh.w	r3, [r2, #96]	; 0x60
    d51e:	85a3      	strh	r3, [r4, #44]	; 0x2c
    d520:	85e3      	strh	r3, [r4, #46]	; 0x2e
    d522:	8623      	strh	r3, [r4, #48]	; 0x30
    d524:	e769      	b.n	d3fa <State_Timer200ms+0x42>
    d526:	6923      	ldr	r3, [r4, #16]
    d528:	2b00      	cmp	r3, #0
    d52a:	d131      	bne.n	d590 <State_Timer200ms+0x1d8>
    d52c:	89e3      	ldrh	r3, [r4, #14]
    d52e:	b29b      	uxth	r3, r3
    d530:	2b00      	cmp	r3, #0
    d532:	d12d      	bne.n	d590 <State_Timer200ms+0x1d8>
    d534:	6963      	ldr	r3, [r4, #20]
    d536:	2b00      	cmp	r3, #0
    d538:	d05a      	beq.n	d5f0 <State_Timer200ms+0x238>
    d53a:	88a3      	ldrh	r3, [r4, #4]
    d53c:	b29b      	uxth	r3, r3
    d53e:	2b01      	cmp	r3, #1
    d540:	d067      	beq.n	d612 <State_Timer200ms+0x25a>
    d542:	88a3      	ldrh	r3, [r4, #4]
    d544:	b29b      	uxth	r3, r3
    d546:	2b02      	cmp	r3, #2
    d548:	d063      	beq.n	d612 <State_Timer200ms+0x25a>
    d54a:	88a3      	ldrh	r3, [r4, #4]
    d54c:	b29b      	uxth	r3, r3
    d54e:	2b04      	cmp	r3, #4
    d550:	d05f      	beq.n	d612 <State_Timer200ms+0x25a>
    d552:	88a3      	ldrh	r3, [r4, #4]
    d554:	b29b      	uxth	r3, r3
    d556:	2b05      	cmp	r3, #5
    d558:	d05b      	beq.n	d612 <State_Timer200ms+0x25a>
    d55a:	88a3      	ldrh	r3, [r4, #4]
    d55c:	b29b      	uxth	r3, r3
    d55e:	2b07      	cmp	r3, #7
    d560:	d060      	beq.n	d624 <State_Timer200ms+0x26c>
    d562:	88a3      	ldrh	r3, [r4, #4]
    d564:	b29b      	uxth	r3, r3
    d566:	2b08      	cmp	r3, #8
    d568:	d05c      	beq.n	d624 <State_Timer200ms+0x26c>
    d56a:	88a3      	ldrh	r3, [r4, #4]
    d56c:	b29b      	uxth	r3, r3
    d56e:	2b0a      	cmp	r3, #10
    d570:	d058      	beq.n	d624 <State_Timer200ms+0x26c>
    d572:	88a3      	ldrh	r3, [r4, #4]
    d574:	b29b      	uxth	r3, r3
    d576:	2b0b      	cmp	r3, #11
    d578:	d054      	beq.n	d624 <State_Timer200ms+0x26c>
    d57a:	21c8      	movs	r1, #200	; 0xc8
    d57c:	200c      	movs	r0, #12
    d57e:	4b1a      	ldr	r3, [pc, #104]	; (d5e8 <State_Timer200ms+0x230>)
    d580:	4798      	blx	r3
    d582:	88a3      	ldrh	r3, [r4, #4]
    d584:	3301      	adds	r3, #1
    d586:	b29b      	uxth	r3, r3
    d588:	2b13      	cmp	r3, #19
    d58a:	80a3      	strh	r3, [r4, #4]
    d58c:	d98b      	bls.n	d4a6 <State_Timer200ms+0xee>
    d58e:	e03d      	b.n	d60c <State_Timer200ms+0x254>
    d590:	88a3      	ldrh	r3, [r4, #4]
    d592:	b29b      	uxth	r3, r3
    d594:	b97b      	cbnz	r3, d5b6 <State_Timer200ms+0x1fe>
    d596:	2201      	movs	r2, #1
    d598:	2132      	movs	r1, #50	; 0x32
    d59a:	2009      	movs	r0, #9
    d59c:	4b12      	ldr	r3, [pc, #72]	; (d5e8 <State_Timer200ms+0x230>)
    d59e:	80a2      	strh	r2, [r4, #4]
    d5a0:	4798      	blx	r3
    d5a2:	89e3      	ldrh	r3, [r4, #14]
    d5a4:	b29b      	uxth	r3, r3
    d5a6:	2b00      	cmp	r3, #0
    d5a8:	f43f af7d 	beq.w	d4a6 <State_Timer200ms+0xee>
    d5ac:	89e3      	ldrh	r3, [r4, #14]
    d5ae:	3b01      	subs	r3, #1
    d5b0:	b29b      	uxth	r3, r3
    d5b2:	81e3      	strh	r3, [r4, #14]
    d5b4:	e777      	b.n	d4a6 <State_Timer200ms+0xee>
    d5b6:	2200      	movs	r2, #0
    d5b8:	2132      	movs	r1, #50	; 0x32
    d5ba:	2002      	movs	r0, #2
    d5bc:	4b0a      	ldr	r3, [pc, #40]	; (d5e8 <State_Timer200ms+0x230>)
    d5be:	80a2      	strh	r2, [r4, #4]
    d5c0:	4798      	blx	r3
    d5c2:	e7ee      	b.n	d5a2 <State_Timer200ms+0x1ea>
    d5c4:	21c8      	movs	r1, #200	; 0xc8
    d5c6:	2009      	movs	r0, #9
    d5c8:	4b07      	ldr	r3, [pc, #28]	; (d5e8 <State_Timer200ms+0x230>)
    d5ca:	e8bd 4010 	ldmia.w	sp!, {r4, lr}
    d5ce:	4718      	bx	r3
    d5d0:	4b05      	ldr	r3, [pc, #20]	; (d5e8 <State_Timer200ms+0x230>)
    d5d2:	7e60      	ldrb	r0, [r4, #25]
    d5d4:	2132      	movs	r1, #50	; 0x32
    d5d6:	4798      	blx	r3
    d5d8:	2300      	movs	r3, #0
    d5da:	f884 3020 	strb.w	r3, [r4, #32]
    d5de:	e72a      	b.n	d436 <State_Timer200ms+0x7e>
    d5e0:	2000587c 	.word	0x2000587c
    d5e4:	20002a20 	.word	0x20002a20
    d5e8:	0000d1f5 	.word	0x0000d1f5
    d5ec:	0000d301 	.word	0x0000d301
    d5f0:	2301      	movs	r3, #1
    d5f2:	f884 303a 	strb.w	r3, [r4, #58]	; 0x3a
    d5f6:	f8b4 3044 	ldrh.w	r3, [r4, #68]	; 0x44
    d5fa:	b29b      	uxth	r3, r3
    d5fc:	b133      	cbz	r3, d60c <State_Timer200ms+0x254>
    d5fe:	f8b4 3044 	ldrh.w	r3, [r4, #68]	; 0x44
    d602:	3b01      	subs	r3, #1
    d604:	b29b      	uxth	r3, r3
    d606:	f8a4 3044 	strh.w	r3, [r4, #68]	; 0x44
    d60a:	b1a3      	cbz	r3, d636 <State_Timer200ms+0x27e>
    d60c:	2300      	movs	r3, #0
    d60e:	80a3      	strh	r3, [r4, #4]
    d610:	e749      	b.n	d4a6 <State_Timer200ms+0xee>
    d612:	6963      	ldr	r3, [r4, #20]
    d614:	07da      	lsls	r2, r3, #31
    d616:	d5a0      	bpl.n	d55a <State_Timer200ms+0x1a2>
    d618:	f44f 71c8 	mov.w	r1, #400	; 0x190
    d61c:	200f      	movs	r0, #15
    d61e:	4b08      	ldr	r3, [pc, #32]	; (d640 <State_Timer200ms+0x288>)
    d620:	4798      	blx	r3
    d622:	e7ae      	b.n	d582 <State_Timer200ms+0x1ca>
    d624:	6963      	ldr	r3, [r4, #20]
    d626:	079b      	lsls	r3, r3, #30
    d628:	d5a7      	bpl.n	d57a <State_Timer200ms+0x1c2>
    d62a:	f44f 71c8 	mov.w	r1, #400	; 0x190
    d62e:	2005      	movs	r0, #5
    d630:	4b03      	ldr	r3, [pc, #12]	; (d640 <State_Timer200ms+0x288>)
    d632:	4798      	blx	r3
    d634:	e7a5      	b.n	d582 <State_Timer200ms+0x1ca>
    d636:	21c8      	movs	r1, #200	; 0xc8
    d638:	2009      	movs	r0, #9
    d63a:	4b01      	ldr	r3, [pc, #4]	; (d640 <State_Timer200ms+0x288>)
    d63c:	4798      	blx	r3
    d63e:	e7e5      	b.n	d60c <State_Timer200ms+0x254>
    d640:	0000d1f5 	.word	0x0000d1f5

0000d644 <TC4_Handler>:
    d644:	e92d 4ff8 	stmdb	sp!, {r3, r4, r5, r6, r7, r8, r9, sl, fp, lr}
    d648:	4b44      	ldr	r3, [pc, #272]	; (d75c <TC4_Handler+0x118>)
    d64a:	4e45      	ldr	r6, [pc, #276]	; (d760 <TC4_Handler+0x11c>)
    d64c:	2210      	movs	r2, #16
    d64e:	729a      	strb	r2, [r3, #10]
    d650:	f8b6 3046 	ldrh.w	r3, [r6, #70]	; 0x46
    d654:	3301      	adds	r3, #1
    d656:	b29b      	uxth	r3, r3
    d658:	2b63      	cmp	r3, #99	; 0x63
    d65a:	f8a6 3046 	strh.w	r3, [r6, #70]	; 0x46
    d65e:	d864      	bhi.n	d72a <TC4_Handler+0xe6>
    d660:	2001      	movs	r0, #1
    d662:	4f40      	ldr	r7, [pc, #256]	; (d764 <TC4_Handler+0x120>)
    d664:	f8df c104 	ldr.w	ip, [pc, #260]	; d76c <TC4_Handler+0x128>
    d668:	4686      	mov	lr, r0
    d66a:	2100      	movs	r1, #0
    d66c:	f04f 0904 	mov.w	r9, #4
    d670:	f04f 0802 	mov.w	r8, #2
    d674:	004a      	lsls	r2, r1, #1
    d676:	18b3      	adds	r3, r6, r2
    d678:	8c9d      	ldrh	r5, [r3, #36]	; 0x24
    d67a:	8d9c      	ldrh	r4, [r3, #44]	; 0x2c
    d67c:	b2ad      	uxth	r5, r5
    d67e:	b2a4      	uxth	r4, r4
    d680:	42a5      	cmp	r5, r4
    d682:	d921      	bls.n	d6c8 <TC4_Handler+0x84>
    d684:	eb0c 0a02 	add.w	sl, ip, r2
    d688:	f8ba 505c 	ldrh.w	r5, [sl, #92]	; 0x5c
    d68c:	8c9c      	ldrh	r4, [r3, #36]	; 0x24
    d68e:	b2ad      	uxth	r5, r5
    d690:	b2a4      	uxth	r4, r4
    d692:	42a5      	cmp	r5, r4
    d694:	d204      	bcs.n	d6a0 <TC4_Handler+0x5c>
    d696:	f8ba 405c 	ldrh.w	r4, [sl, #92]	; 0x5c
    d69a:	b2a4      	uxth	r4, r4
    d69c:	2c00      	cmp	r4, #0
    d69e:	d13d      	bne.n	d71c <TC4_Handler+0xd8>
    d6a0:	4432      	add	r2, r6
    d6a2:	8d93      	ldrh	r3, [r2, #44]	; 0x2c
    d6a4:	b29b      	uxth	r3, r3
    d6a6:	8493      	strh	r3, [r2, #36]	; 0x24
    d6a8:	b2cb      	uxtb	r3, r1
    d6aa:	2900      	cmp	r1, #0
    d6ac:	d043      	beq.n	d736 <TC4_Handler+0xf2>
    d6ae:	2b01      	cmp	r3, #1
    d6b0:	d047      	beq.n	d742 <TC4_Handler+0xfe>
    d6b2:	8d33      	ldrh	r3, [r6, #40]	; 0x28
    d6b4:	b29b      	uxth	r3, r3
    d6b6:	bb33      	cbnz	r3, d706 <TC4_Handler+0xc2>
    d6b8:	f8c7 e098 	str.w	lr, [r7, #152]	; 0x98
    d6bc:	2803      	cmp	r0, #3
    d6be:	d026      	beq.n	d70e <TC4_Handler+0xca>
    d6c0:	3001      	adds	r0, #1
    d6c2:	b2c0      	uxtb	r0, r0
    d6c4:	3101      	adds	r1, #1
    d6c6:	e7d5      	b.n	d674 <TC4_Handler+0x30>
    d6c8:	8c9d      	ldrh	r5, [r3, #36]	; 0x24
    d6ca:	8d9c      	ldrh	r4, [r3, #44]	; 0x2c
    d6cc:	b2ad      	uxth	r5, r5
    d6ce:	b2a4      	uxth	r4, r4
    d6d0:	42a5      	cmp	r5, r4
    d6d2:	d21e      	bcs.n	d712 <TC4_Handler+0xce>
    d6d4:	eb0c 0a02 	add.w	sl, ip, r2
    d6d8:	8c9d      	ldrh	r5, [r3, #36]	; 0x24
    d6da:	f8ba b05c 	ldrh.w	fp, [sl, #92]	; 0x5c
    d6de:	8d9c      	ldrh	r4, [r3, #44]	; 0x2c
    d6e0:	fa1f fb8b 	uxth.w	fp, fp
    d6e4:	fa1b f585 	uxtah	r5, fp, r5
    d6e8:	b2a4      	uxth	r4, r4
    d6ea:	42a5      	cmp	r5, r4
    d6ec:	dcd8      	bgt.n	d6a0 <TC4_Handler+0x5c>
    d6ee:	f8ba 405c 	ldrh.w	r4, [sl, #92]	; 0x5c
    d6f2:	b2a4      	uxth	r4, r4
    d6f4:	2c00      	cmp	r4, #0
    d6f6:	d0d3      	beq.n	d6a0 <TC4_Handler+0x5c>
    d6f8:	f8ba 405c 	ldrh.w	r4, [sl, #92]	; 0x5c
    d6fc:	8c9a      	ldrh	r2, [r3, #36]	; 0x24
    d6fe:	4422      	add	r2, r4
    d700:	b292      	uxth	r2, r2
    d702:	849a      	strh	r2, [r3, #36]	; 0x24
    d704:	e7d0      	b.n	d6a8 <TC4_Handler+0x64>
    d706:	2803      	cmp	r0, #3
    d708:	f8c7 e094 	str.w	lr, [r7, #148]	; 0x94
    d70c:	d1d8      	bne.n	d6c0 <TC4_Handler+0x7c>
    d70e:	e8bd 8ff8 	ldmia.w	sp!, {r3, r4, r5, r6, r7, r8, r9, sl, fp, pc}
    d712:	f896 3048 	ldrb.w	r3, [r6, #72]	; 0x48
    d716:	2b00      	cmp	r3, #0
    d718:	d0d0      	beq.n	d6bc <TC4_Handler+0x78>
    d71a:	e7c5      	b.n	d6a8 <TC4_Handler+0x64>
    d71c:	f8ba 405c 	ldrh.w	r4, [sl, #92]	; 0x5c
    d720:	8c9a      	ldrh	r2, [r3, #36]	; 0x24
    d722:	1b12      	subs	r2, r2, r4
    d724:	b292      	uxth	r2, r2
    d726:	849a      	strh	r2, [r3, #36]	; 0x24
    d728:	e7be      	b.n	d6a8 <TC4_Handler+0x64>
    d72a:	4b0f      	ldr	r3, [pc, #60]	; (d768 <TC4_Handler+0x124>)
    d72c:	4798      	blx	r3
    d72e:	2300      	movs	r3, #0
    d730:	f8a6 3046 	strh.w	r3, [r6, #70]	; 0x46
    d734:	e794      	b.n	d660 <TC4_Handler+0x1c>
    d736:	8cb3      	ldrh	r3, [r6, #36]	; 0x24
    d738:	b29b      	uxth	r3, r3
    d73a:	b943      	cbnz	r3, d74e <TC4_Handler+0x10a>
    d73c:	f8c7 8098 	str.w	r8, [r7, #152]	; 0x98
    d740:	e7be      	b.n	d6c0 <TC4_Handler+0x7c>
    d742:	8cf3      	ldrh	r3, [r6, #38]	; 0x26
    d744:	b29b      	uxth	r3, r3
    d746:	b92b      	cbnz	r3, d754 <TC4_Handler+0x110>
    d748:	f8c7 9098 	str.w	r9, [r7, #152]	; 0x98
    d74c:	e7b8      	b.n	d6c0 <TC4_Handler+0x7c>
    d74e:	f8c7 8094 	str.w	r8, [r7, #148]	; 0x94
    d752:	e7b5      	b.n	d6c0 <TC4_Handler+0x7c>
    d754:	f8c7 9094 	str.w	r9, [r7, #148]	; 0x94
    d758:	e7b2      	b.n	d6c0 <TC4_Handler+0x7c>
    d75a:	bf00      	nop
    d75c:	42001400 	.word	0x42001400
    d760:	2000587c 	.word	0x2000587c
    d764:	41008000 	.word	0x41008000
    d768:	0000d3b9 	.word	0x0000d3b9
    d76c:	20002a20 	.word	0x20002a20

0000d770 <State_TimerSync>:
    d770:	4b1f      	ldr	r3, [pc, #124]	; (d7f0 <State_TimerSync+0x80>)
    d772:	8b5a      	ldrh	r2, [r3, #26]
    d774:	b292      	uxth	r2, r2
    d776:	b96a      	cbnz	r2, d794 <State_TimerSync+0x24>
    d778:	681a      	ldr	r2, [r3, #0]
    d77a:	b95a      	cbnz	r2, d794 <State_TimerSync+0x24>
    d77c:	689a      	ldr	r2, [r3, #8]
    d77e:	b19a      	cbz	r2, d7a8 <State_TimerSync+0x38>
    d780:	899a      	ldrh	r2, [r3, #12]
    d782:	b292      	uxth	r2, r2
    d784:	b132      	cbz	r2, d794 <State_TimerSync+0x24>
    d786:	889a      	ldrh	r2, [r3, #4]
    d788:	b292      	uxth	r2, r2
    d78a:	2a04      	cmp	r2, #4
    d78c:	d902      	bls.n	d794 <State_TimerSync+0x24>
    d78e:	4a19      	ldr	r2, [pc, #100]	; (d7f4 <State_TimerSync+0x84>)
    d790:	2120      	movs	r1, #32
    d792:	7151      	strb	r1, [r2, #5]
    d794:	f640 72ff 	movw	r2, #4095	; 0xfff
    d798:	2100      	movs	r1, #0
    d79a:	871a      	strh	r2, [r3, #56]	; 0x38
    d79c:	f8a3 2046 	strh.w	r2, [r3, #70]	; 0x46
    d7a0:	83da      	strh	r2, [r3, #30]
    d7a2:	f883 1020 	strb.w	r1, [r3, #32]
    d7a6:	4770      	bx	lr
    d7a8:	691a      	ldr	r2, [r3, #16]
    d7aa:	2a00      	cmp	r2, #0
    d7ac:	d1f2      	bne.n	d794 <State_TimerSync+0x24>
    d7ae:	695a      	ldr	r2, [r3, #20]
    d7b0:	2a00      	cmp	r2, #0
    d7b2:	d1ef      	bne.n	d794 <State_TimerSync+0x24>
    d7b4:	89da      	ldrh	r2, [r3, #14]
    d7b6:	b292      	uxth	r2, r2
    d7b8:	b962      	cbnz	r2, d7d4 <State_TimerSync+0x64>
    d7ba:	889a      	ldrh	r2, [r3, #4]
    d7bc:	b292      	uxth	r2, r2
    d7be:	2a03      	cmp	r2, #3
    d7c0:	d808      	bhi.n	d7d4 <State_TimerSync+0x64>
    d7c2:	889a      	ldrh	r2, [r3, #4]
    d7c4:	b292      	uxth	r2, r2
    d7c6:	b972      	cbnz	r2, d7e6 <State_TimerSync+0x76>
    d7c8:	490a      	ldr	r1, [pc, #40]	; (d7f4 <State_TimerSync+0x84>)
    d7ca:	2020      	movs	r0, #32
    d7cc:	7148      	strb	r0, [r1, #5]
    d7ce:	f8a3 2046 	strh.w	r2, [r3, #70]	; 0x46
    d7d2:	e7df      	b.n	d794 <State_TimerSync+0x24>
    d7d4:	4907      	ldr	r1, [pc, #28]	; (d7f4 <State_TimerSync+0x84>)
    d7d6:	2200      	movs	r2, #0
    d7d8:	2020      	movs	r0, #32
    d7da:	7148      	strb	r0, [r1, #5]
    d7dc:	809a      	strh	r2, [r3, #4]
    d7de:	81da      	strh	r2, [r3, #14]
    d7e0:	f8a3 2046 	strh.w	r2, [r3, #70]	; 0x46
    d7e4:	e7d6      	b.n	d794 <State_TimerSync+0x24>
    d7e6:	2201      	movs	r2, #1
    d7e8:	f883 2049 	strb.w	r2, [r3, #73]	; 0x49
    d7ec:	e7d2      	b.n	d794 <State_TimerSync+0x24>
    d7ee:	bf00      	nop
    d7f0:	2000587c 	.word	0x2000587c
    d7f4:	42001400 	.word	0x42001400

0000d7f8 <State_Init>:
    d7f8:	b5f0      	push	{r4, r5, r6, r7, lr}
    d7fa:	4b29      	ldr	r3, [pc, #164]	; (d8a0 <State_Init+0xa8>)
    d7fc:	4a29      	ldr	r2, [pc, #164]	; (d8a4 <State_Init+0xac>)
    d7fe:	4c2a      	ldr	r4, [pc, #168]	; (d8a8 <State_Init+0xb0>)
    d800:	f8df e0bc 	ldr.w	lr, [pc, #188]	; d8c0 <State_Init+0xc8>
    d804:	4f29      	ldr	r7, [pc, #164]	; (d8ac <State_Init+0xb4>)
    d806:	482a      	ldr	r0, [pc, #168]	; (d8b0 <State_Init+0xb8>)
    d808:	4e2a      	ldr	r6, [pc, #168]	; (d8b4 <State_Init+0xbc>)
    d80a:	2102      	movs	r1, #2
    d80c:	f8c3 1088 	str.w	r1, [r3, #136]	; 0x88
    d810:	f8c3 20a8 	str.w	r2, [r3, #168]	; 0xa8
    d814:	f04f 4240 	mov.w	r2, #3221225472	; 0xc0000000
    d818:	f8c3 20a8 	str.w	r2, [r3, #168]	; 0xa8
    d81c:	2504      	movs	r5, #4
    d81e:	f8c3 1098 	str.w	r1, [r3, #152]	; 0x98
    d822:	2101      	movs	r1, #1
    d824:	f8c3 5088 	str.w	r5, [r3, #136]	; 0x88
    d828:	f8c3 e0a8 	str.w	lr, [r3, #168]	; 0xa8
    d82c:	f8c3 20a8 	str.w	r2, [r3, #168]	; 0xa8
    d830:	f8c3 5098 	str.w	r5, [r3, #152]	; 0x98
    d834:	f8c3 1088 	str.w	r1, [r3, #136]	; 0x88
    d838:	f8c3 70a8 	str.w	r7, [r3, #168]	; 0xa8
    d83c:	f8c3 20a8 	str.w	r2, [r3, #168]	; 0xa8
    d840:	f8c3 1098 	str.w	r1, [r3, #152]	; 0x98
    d844:	69e3      	ldr	r3, [r4, #28]
    d846:	2540      	movs	r5, #64	; 0x40
    d848:	f043 0320 	orr.w	r3, r3, #32
    d84c:	61e3      	str	r3, [r4, #28]
    d84e:	4602      	mov	r2, r0
    d850:	f8c6 50f8 	str.w	r5, [r6, #248]	; 0xf8
    d854:	6001      	str	r1, [r0, #0]
    d856:	6913      	ldr	r3, [r2, #16]
    d858:	07db      	lsls	r3, r3, #31
    d85a:	d4fc      	bmi.n	d856 <State_Init+0x5e>
    d85c:	f44f 6480 	mov.w	r4, #1024	; 0x400
    d860:	2010      	movs	r0, #16
    d862:	2101      	movs	r1, #1
    d864:	f642 63e0 	movw	r3, #12000	; 0x2ee0
    d868:	6014      	str	r4, [r2, #0]
    d86a:	7250      	strb	r0, [r2, #9]
    d86c:	7311      	strb	r1, [r2, #12]
    d86e:	8393      	strh	r3, [r2, #28]
    d870:	6810      	ldr	r0, [r2, #0]
    d872:	4b11      	ldr	r3, [pc, #68]	; (d8b8 <State_Init+0xc0>)
    d874:	f040 0002 	orr.w	r0, r0, #2
    d878:	f44f 4100 	mov.w	r1, #32768	; 0x8000
    d87c:	6010      	str	r0, [r2, #0]
    d87e:	f8c3 108c 	str.w	r1, [r3, #140]	; 0x8c
    d882:	f3bf 8f4f 	dsb	sy
    d886:	f3bf 8f6f 	isb	sy
    d88a:	4a0c      	ldr	r2, [pc, #48]	; (d8bc <State_Init+0xc4>)
    d88c:	f8c3 118c 	str.w	r1, [r3, #396]	; 0x18c
    d890:	24c0      	movs	r4, #192	; 0xc0
    d892:	2003      	movs	r0, #3
    d894:	f883 436f 	strb.w	r4, [r3, #879]	; 0x36f
    d898:	60d9      	str	r1, [r3, #12]
    d89a:	f882 0048 	strb.w	r0, [r2, #72]	; 0x48
    d89e:	bdf0      	pop	{r4, r5, r6, r7, pc}
    d8a0:	41008000 	.word	0x41008000
    d8a4:	40000002 	.word	0x40000002
    d8a8:	40000800 	.word	0x40000800
    d8ac:	40000001 	.word	0x40000001
    d8b0:	42001400 	.word	0x42001400
    d8b4:	40001c00 	.word	0x40001c00
    d8b8:	e000e100 	.word	0xe000e100
    d8bc:	2000587c 	.word	0x2000587c
    d8c0:	40000004 	.word	0x40000004

0000d8c4 <State_ComToggle>:
    d8c4:	4b16      	ldr	r3, [pc, #88]	; (d920 <State_ComToggle+0x5c>)
    d8c6:	f893 203a 	ldrb.w	r2, [r3, #58]	; 0x3a
    d8ca:	b1ea      	cbz	r2, d908 <State_ComToggle+0x44>
    d8cc:	f893 204a 	ldrb.w	r2, [r3, #74]	; 0x4a
    d8d0:	4914      	ldr	r1, [pc, #80]	; (d924 <State_ComToggle+0x60>)
    d8d2:	2a01      	cmp	r2, #1
    d8d4:	f04f 0200 	mov.w	r2, #0
    d8d8:	d017      	beq.n	d90a <State_ComToggle+0x46>
    d8da:	f242 7010 	movw	r0, #10000	; 0x2710
    d8de:	f8a1 205c 	strh.w	r2, [r1, #92]	; 0x5c
    d8e2:	f8a1 205e 	strh.w	r2, [r1, #94]	; 0x5e
    d8e6:	f8a1 2060 	strh.w	r2, [r1, #96]	; 0x60
    d8ea:	859a      	strh	r2, [r3, #44]	; 0x2c
    d8ec:	85da      	strh	r2, [r3, #46]	; 0x2e
    d8ee:	8618      	strh	r0, [r3, #48]	; 0x30
    d8f0:	f893 204a 	ldrb.w	r2, [r3, #74]	; 0x4a
    d8f4:	f112 32ff 	adds.w	r2, r2, #4294967295
    d8f8:	f04f 01c8 	mov.w	r1, #200	; 0xc8
    d8fc:	bf18      	it	ne
    d8fe:	2201      	movne	r2, #1
    d900:	f883 204a 	strb.w	r2, [r3, #74]	; 0x4a
    d904:	f8a3 1044 	strh.w	r1, [r3, #68]	; 0x44
    d908:	4770      	bx	lr
    d90a:	f8a1 205c 	strh.w	r2, [r1, #92]	; 0x5c
    d90e:	f8a1 205e 	strh.w	r2, [r1, #94]	; 0x5e
    d912:	f8a1 2060 	strh.w	r2, [r1, #96]	; 0x60
    d916:	859a      	strh	r2, [r3, #44]	; 0x2c
    d918:	85da      	strh	r2, [r3, #46]	; 0x2e
    d91a:	861a      	strh	r2, [r3, #48]	; 0x30
    d91c:	e7e8      	b.n	d8f0 <State_ComToggle+0x2c>
    d91e:	bf00      	nop
    d920:	2000587c 	.word	0x2000587c
    d924:	20002a20 	.word	0x20002a20

0000d928 <State_ComToggleNoData>:
    d928:	4b19      	ldr	r3, [pc, #100]	; (d990 <State_ComToggleNoData+0x68>)
    d92a:	f893 203a 	ldrb.w	r2, [r3, #58]	; 0x3a
    d92e:	b1fa      	cbz	r2, d970 <State_ComToggleNoData+0x48>
    d930:	4918      	ldr	r1, [pc, #96]	; (d994 <State_ComToggleNoData+0x6c>)
    d932:	f8b1 2064 	ldrh.w	r2, [r1, #100]	; 0x64
    d936:	b292      	uxth	r2, r2
    d938:	b1d2      	cbz	r2, d970 <State_ComToggleNoData+0x48>
    d93a:	b410      	push	{r4}
    d93c:	f893 004a 	ldrb.w	r0, [r3, #74]	; 0x4a
    d940:	f000 02ff 	and.w	r2, r0, #255	; 0xff
    d944:	b9a8      	cbnz	r0, d972 <State_ComToggleNoData+0x4a>
    d946:	f8a1 205c 	strh.w	r2, [r1, #92]	; 0x5c
    d94a:	f8a1 205e 	strh.w	r2, [r1, #94]	; 0x5e
    d94e:	f8a1 2060 	strh.w	r2, [r1, #96]	; 0x60
    d952:	859a      	strh	r2, [r3, #44]	; 0x2c
    d954:	85da      	strh	r2, [r3, #46]	; 0x2e
    d956:	861a      	strh	r2, [r3, #48]	; 0x30
    d958:	f893 204a 	ldrb.w	r2, [r3, #74]	; 0x4a
    d95c:	fab2 f282 	clz	r2, r2
    d960:	0952      	lsrs	r2, r2, #5
    d962:	f883 204a 	strb.w	r2, [r3, #74]	; 0x4a
    d966:	21c8      	movs	r1, #200	; 0xc8
    d968:	f85d 4b04 	ldr.w	r4, [sp], #4
    d96c:	f8a3 1044 	strh.w	r1, [r3, #68]	; 0x44
    d970:	4770      	bx	lr
    d972:	2200      	movs	r2, #0
    d974:	f242 7410 	movw	r4, #10000	; 0x2710
    d978:	f241 7070 	movw	r0, #6000	; 0x1770
    d97c:	f8a1 205c 	strh.w	r2, [r1, #92]	; 0x5c
    d980:	f8a1 205e 	strh.w	r2, [r1, #94]	; 0x5e
    d984:	f8a1 2060 	strh.w	r2, [r1, #96]	; 0x60
    d988:	859c      	strh	r4, [r3, #44]	; 0x2c
    d98a:	85d8      	strh	r0, [r3, #46]	; 0x2e
    d98c:	861a      	strh	r2, [r3, #48]	; 0x30
    d98e:	e7e3      	b.n	d958 <State_ComToggleNoData+0x30>
    d990:	2000587c 	.word	0x2000587c
    d994:	20002a20 	.word	0x20002a20

0000d998 <State_ResetToggleData_Show>:
    d998:	4b02      	ldr	r3, [pc, #8]	; (d9a4 <State_ResetToggleData_Show+0xc>)
    d99a:	f44f 7296 	mov.w	r2, #300	; 0x12c
    d99e:	f8a3 2064 	strh.w	r2, [r3, #100]	; 0x64
    d9a2:	4770      	bx	lr
    d9a4:	20002a20 	.word	0x20002a20

0000d9a8 <TCC4_1_Handler>:
    d9a8:	b538      	push	{r3, r4, r5, lr}
    d9aa:	4c0a      	ldr	r4, [pc, #40]	; (d9d4 <TCC4_1_Handler+0x2c>)
    d9ac:	6ae3      	ldr	r3, [r4, #44]	; 0x2c
    d9ae:	03db      	lsls	r3, r3, #15
    d9b0:	d50a      	bpl.n	d9c8 <TCC4_1_Handler+0x20>
    d9b2:	4d09      	ldr	r5, [pc, #36]	; (d9d8 <TCC4_1_Handler+0x30>)
    d9b4:	682b      	ldr	r3, [r5, #0]
    d9b6:	b13b      	cbz	r3, d9c8 <TCC4_1_Handler+0x20>
    d9b8:	4798      	blx	r3
    d9ba:	f44f 3380 	mov.w	r3, #65536	; 0x10000
    d9be:	2200      	movs	r2, #0
    d9c0:	602a      	str	r2, [r5, #0]
    d9c2:	62e3      	str	r3, [r4, #44]	; 0x2c
    d9c4:	6263      	str	r3, [r4, #36]	; 0x24
    d9c6:	bd38      	pop	{r3, r4, r5, pc}
    d9c8:	4b02      	ldr	r3, [pc, #8]	; (d9d4 <TCC4_1_Handler+0x2c>)
    d9ca:	f44f 3280 	mov.w	r2, #65536	; 0x10000
    d9ce:	62da      	str	r2, [r3, #44]	; 0x2c
    d9d0:	bd38      	pop	{r3, r4, r5, pc}
    d9d2:	bf00      	nop
    d9d4:	43001000 	.word	0x43001000
    d9d8:	200058c8 	.word	0x200058c8

0000d9dc <TCC4_2_Handler>:
    d9dc:	b538      	push	{r3, r4, r5, lr}
    d9de:	4c0a      	ldr	r4, [pc, #40]	; (da08 <TCC4_2_Handler+0x2c>)
    d9e0:	6ae3      	ldr	r3, [r4, #44]	; 0x2c
    d9e2:	039b      	lsls	r3, r3, #14
    d9e4:	d50a      	bpl.n	d9fc <TCC4_2_Handler+0x20>
    d9e6:	4d09      	ldr	r5, [pc, #36]	; (da0c <TCC4_2_Handler+0x30>)
    d9e8:	686b      	ldr	r3, [r5, #4]
    d9ea:	b13b      	cbz	r3, d9fc <TCC4_2_Handler+0x20>
    d9ec:	4798      	blx	r3
    d9ee:	f44f 3300 	mov.w	r3, #131072	; 0x20000
    d9f2:	2200      	movs	r2, #0
    d9f4:	62e3      	str	r3, [r4, #44]	; 0x2c
    d9f6:	606a      	str	r2, [r5, #4]
    d9f8:	6263      	str	r3, [r4, #36]	; 0x24
    d9fa:	bd38      	pop	{r3, r4, r5, pc}
    d9fc:	4b02      	ldr	r3, [pc, #8]	; (da08 <TCC4_2_Handler+0x2c>)
    d9fe:	f44f 3200 	mov.w	r2, #131072	; 0x20000
    da02:	62da      	str	r2, [r3, #44]	; 0x2c
    da04:	bd38      	pop	{r3, r4, r5, pc}
    da06:	bf00      	nop
    da08:	43001000 	.word	0x43001000
    da0c:	200058c8 	.word	0x200058c8

0000da10 <timing_init>:
    da10:	b410      	push	{r4}
    da12:	4922      	ldr	r1, [pc, #136]	; (da9c <timing_init+0x8c>)
    da14:	4822      	ldr	r0, [pc, #136]	; (daa0 <timing_init+0x90>)
    da16:	6a0b      	ldr	r3, [r1, #32]
    da18:	4a22      	ldr	r2, [pc, #136]	; (daa4 <timing_init+0x94>)
    da1a:	f043 0310 	orr.w	r3, r3, #16
    da1e:	2440      	movs	r4, #64	; 0x40
    da20:	620b      	str	r3, [r1, #32]
    da22:	f8c0 4118 	str.w	r4, [r0, #280]	; 0x118
    da26:	6813      	ldr	r3, [r2, #0]
    da28:	f043 0301 	orr.w	r3, r3, #1
    da2c:	6013      	str	r3, [r2, #0]
    da2e:	6893      	ldr	r3, [r2, #8]
    da30:	f013 0301 	ands.w	r3, r3, #1
    da34:	d1fb      	bne.n	da2e <timing_init+0x1e>
    da36:	f44f 6180 	mov.w	r1, #1024	; 0x400
    da3a:	6011      	str	r1, [r2, #0]
    da3c:	63d3      	str	r3, [r2, #60]	; 0x3c
    da3e:	6c13      	ldr	r3, [r2, #64]	; 0x40
    da40:	4918      	ldr	r1, [pc, #96]	; (daa4 <timing_init+0x94>)
    da42:	f64f 70ff 	movw	r0, #65535	; 0xffff
    da46:	f360 0317 	bfi	r3, r0, #0, #24
    da4a:	6413      	str	r3, [r2, #64]	; 0x40
    da4c:	6813      	ldr	r3, [r2, #0]
    da4e:	f043 0302 	orr.w	r3, r3, #2
    da52:	6013      	str	r3, [r2, #0]
    da54:	688b      	ldr	r3, [r1, #8]
    da56:	079b      	lsls	r3, r3, #30
    da58:	d4fc      	bmi.n	da54 <timing_init+0x44>
    da5a:	4b13      	ldr	r3, [pc, #76]	; (daa8 <timing_init+0x98>)
    da5c:	2220      	movs	r2, #32
    da5e:	f44f 7000 	mov.w	r0, #512	; 0x200
    da62:	714a      	strb	r2, [r1, #5]
    da64:	f8c3 008c 	str.w	r0, [r3, #140]	; 0x8c
    da68:	f3bf 8f4f 	dsb	sy
    da6c:	f3bf 8f6f 	isb	sy
    da70:	2160      	movs	r1, #96	; 0x60
    da72:	f44f 6280 	mov.w	r2, #1024	; 0x400
    da76:	f8c3 018c 	str.w	r0, [r3, #396]	; 0x18c
    da7a:	f883 1369 	strb.w	r1, [r3, #873]	; 0x369
    da7e:	60d8      	str	r0, [r3, #12]
    da80:	f8c3 208c 	str.w	r2, [r3, #140]	; 0x8c
    da84:	f3bf 8f4f 	dsb	sy
    da88:	f3bf 8f6f 	isb	sy
    da8c:	f8c3 218c 	str.w	r2, [r3, #396]	; 0x18c
    da90:	f883 136a 	strb.w	r1, [r3, #874]	; 0x36a
    da94:	f85d 4b04 	ldr.w	r4, [sp], #4
    da98:	60da      	str	r2, [r3, #12]
    da9a:	4770      	bx	lr
    da9c:	40000800 	.word	0x40000800
    daa0:	40001c00 	.word	0x40001c00
    daa4:	43001000 	.word	0x43001000
    daa8:	e000e100 	.word	0xe000e100

0000daac <vListInitialise>:
    daac:	f100 0308 	add.w	r3, r0, #8
    dab0:	f04f 31ff 	mov.w	r1, #4294967295
    dab4:	2200      	movs	r2, #0
    dab6:	6081      	str	r1, [r0, #8]
    dab8:	6002      	str	r2, [r0, #0]
    daba:	6043      	str	r3, [r0, #4]
    dabc:	60c3      	str	r3, [r0, #12]
    dabe:	6103      	str	r3, [r0, #16]
    dac0:	4770      	bx	lr
    dac2:	bf00      	nop

0000dac4 <vListInitialiseItem>:
    dac4:	2300      	movs	r3, #0
    dac6:	6103      	str	r3, [r0, #16]
    dac8:	4770      	bx	lr
    daca:	bf00      	nop

0000dacc <vListInsertEnd>:
    dacc:	6843      	ldr	r3, [r0, #4]
    dace:	6802      	ldr	r2, [r0, #0]
    dad0:	b410      	push	{r4}
    dad2:	689c      	ldr	r4, [r3, #8]
    dad4:	608c      	str	r4, [r1, #8]
    dad6:	689c      	ldr	r4, [r3, #8]
    dad8:	604b      	str	r3, [r1, #4]
    dada:	3201      	adds	r2, #1
    dadc:	6061      	str	r1, [r4, #4]
    dade:	6099      	str	r1, [r3, #8]
    dae0:	f85d 4b04 	ldr.w	r4, [sp], #4
    dae4:	6108      	str	r0, [r1, #16]
    dae6:	6002      	str	r2, [r0, #0]
    dae8:	4770      	bx	lr
    daea:	bf00      	nop

0000daec <vListInsert>:
    daec:	b430      	push	{r4, r5}
    daee:	680d      	ldr	r5, [r1, #0]
    daf0:	1c6b      	adds	r3, r5, #1
    daf2:	d011      	beq.n	db18 <vListInsert+0x2c>
    daf4:	f100 0208 	add.w	r2, r0, #8
    daf8:	e000      	b.n	dafc <vListInsert+0x10>
    dafa:	461a      	mov	r2, r3
    dafc:	6853      	ldr	r3, [r2, #4]
    dafe:	681c      	ldr	r4, [r3, #0]
    db00:	42a5      	cmp	r5, r4
    db02:	d2fa      	bcs.n	dafa <vListInsert+0xe>
    db04:	6804      	ldr	r4, [r0, #0]
    db06:	604b      	str	r3, [r1, #4]
    db08:	3401      	adds	r4, #1
    db0a:	6099      	str	r1, [r3, #8]
    db0c:	608a      	str	r2, [r1, #8]
    db0e:	6051      	str	r1, [r2, #4]
    db10:	6108      	str	r0, [r1, #16]
    db12:	6004      	str	r4, [r0, #0]
    db14:	bc30      	pop	{r4, r5}
    db16:	4770      	bx	lr
    db18:	6902      	ldr	r2, [r0, #16]
    db1a:	6853      	ldr	r3, [r2, #4]
    db1c:	e7f2      	b.n	db04 <vListInsert+0x18>
    db1e:	bf00      	nop

0000db20 <uxListRemove>:
    db20:	6842      	ldr	r2, [r0, #4]
    db22:	6881      	ldr	r1, [r0, #8]
    db24:	6903      	ldr	r3, [r0, #16]
    db26:	b410      	push	{r4}
    db28:	6091      	str	r1, [r2, #8]
    db2a:	6881      	ldr	r1, [r0, #8]
    db2c:	685c      	ldr	r4, [r3, #4]
    db2e:	604a      	str	r2, [r1, #4]
    db30:	681a      	ldr	r2, [r3, #0]
    db32:	42a0      	cmp	r0, r4
    db34:	bf08      	it	eq
    db36:	6059      	streq	r1, [r3, #4]
    db38:	3a01      	subs	r2, #1
    db3a:	2100      	movs	r1, #0
    db3c:	6101      	str	r1, [r0, #16]
    db3e:	601a      	str	r2, [r3, #0]
    db40:	6818      	ldr	r0, [r3, #0]
    db42:	f85d 4b04 	ldr.w	r4, [sp], #4
    db46:	4770      	bx	lr

0000db48 <prvTaskExitError>:
    db48:	4b0e      	ldr	r3, [pc, #56]	; (db84 <prvTaskExitError+0x3c>)
    db4a:	681b      	ldr	r3, [r3, #0]
    db4c:	b082      	sub	sp, #8
    db4e:	2200      	movs	r2, #0
    db50:	3301      	adds	r3, #1
    db52:	9201      	str	r2, [sp, #4]
    db54:	d008      	beq.n	db68 <prvTaskExitError+0x20>
    db56:	f04f 0380 	mov.w	r3, #128	; 0x80
    db5a:	f383 8811 	msr	BASEPRI, r3
    db5e:	f3bf 8f6f 	isb	sy
    db62:	f3bf 8f4f 	dsb	sy
    db66:	e7fe      	b.n	db66 <prvTaskExitError+0x1e>
    db68:	f04f 0380 	mov.w	r3, #128	; 0x80
    db6c:	f383 8811 	msr	BASEPRI, r3
    db70:	f3bf 8f6f 	isb	sy
    db74:	f3bf 8f4f 	dsb	sy
    db78:	9b01      	ldr	r3, [sp, #4]
    db7a:	2b00      	cmp	r3, #0
    db7c:	d0fc      	beq.n	db78 <prvTaskExitError+0x30>
    db7e:	b002      	add	sp, #8
    db80:	4770      	bx	lr
    db82:	bf00      	nop
    db84:	20002a88 	.word	0x20002a88

0000db88 <prvPortStartFirstTask>:
    db88:	4808      	ldr	r0, [pc, #32]	; (dbac <prvPortStartFirstTask+0x24>)
    db8a:	6800      	ldr	r0, [r0, #0]
    db8c:	6800      	ldr	r0, [r0, #0]
    db8e:	f380 8808 	msr	MSP, r0
    db92:	f04f 0000 	mov.w	r0, #0
    db96:	f380 8814 	msr	CONTROL, r0
    db9a:	b662      	cpsie	i
    db9c:	b661      	cpsie	f
    db9e:	f3bf 8f4f 	dsb	sy
    dba2:	f3bf 8f6f 	isb	sy
    dba6:	df00      	svc	0
    dba8:	bf00      	nop
    dbaa:	0000      	.short	0x0000
    dbac:	e000ed08 	.word	0xe000ed08

0000dbb0 <vPortEnableVFP>:
    dbb0:	f8df 000c 	ldr.w	r0, [pc, #12]	; dbc0 <vPortEnableVFP+0x10>
    dbb4:	6801      	ldr	r1, [r0, #0]
    dbb6:	f441 0170 	orr.w	r1, r1, #15728640	; 0xf00000
    dbba:	6001      	str	r1, [r0, #0]
    dbbc:	4770      	bx	lr
    dbbe:	0000      	.short	0x0000
    dbc0:	e000ed88 	.word	0xe000ed88

0000dbc4 <pxPortInitialiseStack>:
    dbc4:	b430      	push	{r4, r5}
    dbc6:	f021 0101 	bic.w	r1, r1, #1
    dbca:	f04f 7580 	mov.w	r5, #16777216	; 0x1000000
    dbce:	4c07      	ldr	r4, [pc, #28]	; (dbec <pxPortInitialiseStack+0x28>)
    dbd0:	f840 4c0c 	str.w	r4, [r0, #-12]
    dbd4:	f06f 0302 	mvn.w	r3, #2
    dbd8:	f840 2c20 	str.w	r2, [r0, #-32]
    dbdc:	e900 0022 	stmdb	r0, {r1, r5}
    dbe0:	f840 3c24 	str.w	r3, [r0, #-36]
    dbe4:	bc30      	pop	{r4, r5}
    dbe6:	3844      	subs	r0, #68	; 0x44
    dbe8:	4770      	bx	lr
    dbea:	bf00      	nop
    dbec:	0000db49 	.word	0x0000db49

0000dbf0 <SVCall_Handler>:
    dbf0:	4b07      	ldr	r3, [pc, #28]	; (dc10 <pxCurrentTCBConst2>)
    dbf2:	6819      	ldr	r1, [r3, #0]
    dbf4:	6808      	ldr	r0, [r1, #0]
    dbf6:	e8b0 4ff0 	ldmia.w	r0!, {r4, r5, r6, r7, r8, r9, sl, fp, lr}
    dbfa:	f380 8809 	msr	PSP, r0
    dbfe:	f3bf 8f6f 	isb	sy
    dc02:	f04f 0000 	mov.w	r0, #0
    dc06:	f380 8811 	msr	BASEPRI, r0
    dc0a:	4770      	bx	lr
    dc0c:	f3af 8000 	nop.w

0000dc10 <pxCurrentTCBConst2>:
    dc10:	2000da2c 	.word	0x2000da2c

0000dc14 <vPortEnterCritical>:
    dc14:	f04f 0380 	mov.w	r3, #128	; 0x80
    dc18:	f383 8811 	msr	BASEPRI, r3
    dc1c:	f3bf 8f6f 	isb	sy
    dc20:	f3bf 8f4f 	dsb	sy
    dc24:	4a0a      	ldr	r2, [pc, #40]	; (dc50 <vPortEnterCritical+0x3c>)
    dc26:	6813      	ldr	r3, [r2, #0]
    dc28:	3301      	adds	r3, #1
    dc2a:	2b01      	cmp	r3, #1
    dc2c:	6013      	str	r3, [r2, #0]
    dc2e:	d000      	beq.n	dc32 <vPortEnterCritical+0x1e>
    dc30:	4770      	bx	lr
    dc32:	4b08      	ldr	r3, [pc, #32]	; (dc54 <vPortEnterCritical+0x40>)
    dc34:	681b      	ldr	r3, [r3, #0]
    dc36:	f013 0fff 	tst.w	r3, #255	; 0xff
    dc3a:	d0f9      	beq.n	dc30 <vPortEnterCritical+0x1c>
    dc3c:	f04f 0380 	mov.w	r3, #128	; 0x80
    dc40:	f383 8811 	msr	BASEPRI, r3
    dc44:	f3bf 8f6f 	isb	sy
    dc48:	f3bf 8f4f 	dsb	sy
    dc4c:	e7fe      	b.n	dc4c <vPortEnterCritical+0x38>
    dc4e:	bf00      	nop
    dc50:	20002a88 	.word	0x20002a88
    dc54:	e000ed04 	.word	0xe000ed04

0000dc58 <vPortExitCritical>:
    dc58:	4a08      	ldr	r2, [pc, #32]	; (dc7c <vPortExitCritical+0x24>)
    dc5a:	6813      	ldr	r3, [r2, #0]
    dc5c:	b943      	cbnz	r3, dc70 <vPortExitCritical+0x18>
    dc5e:	f04f 0380 	mov.w	r3, #128	; 0x80
    dc62:	f383 8811 	msr	BASEPRI, r3
    dc66:	f3bf 8f6f 	isb	sy
    dc6a:	f3bf 8f4f 	dsb	sy
    dc6e:	e7fe      	b.n	dc6e <vPortExitCritical+0x16>
    dc70:	3b01      	subs	r3, #1
    dc72:	6013      	str	r3, [r2, #0]
    dc74:	b90b      	cbnz	r3, dc7a <vPortExitCritical+0x22>
    dc76:	f383 8811 	msr	BASEPRI, r3
    dc7a:	4770      	bx	lr
    dc7c:	20002a88 	.word	0x20002a88

0000dc80 <PendSV_Handler>:
    dc80:	f3ef 8009 	mrs	r0, PSP
    dc84:	f3bf 8f6f 	isb	sy
    dc88:	4b15      	ldr	r3, [pc, #84]	; (dce0 <pxCurrentTCBConst>)
    dc8a:	681a      	ldr	r2, [r3, #0]
    dc8c:	f01e 0f10 	tst.w	lr, #16
    dc90:	bf08      	it	eq
    dc92:	ed20 8a10 	vstmdbeq	r0!, {s16-s31}
    dc96:	e920 4ff0 	stmdb	r0!, {r4, r5, r6, r7, r8, r9, sl, fp, lr}
    dc9a:	6010      	str	r0, [r2, #0]
    dc9c:	e92d 0009 	stmdb	sp!, {r0, r3}
    dca0:	f04f 0080 	mov.w	r0, #128	; 0x80
    dca4:	f380 8811 	msr	BASEPRI, r0
    dca8:	f3bf 8f4f 	dsb	sy
    dcac:	f3bf 8f6f 	isb	sy
    dcb0:	f001 f96a 	bl	ef88 <vTaskSwitchContext>
    dcb4:	f04f 0000 	mov.w	r0, #0
    dcb8:	f380 8811 	msr	BASEPRI, r0
    dcbc:	bc09      	pop	{r0, r3}
    dcbe:	6819      	ldr	r1, [r3, #0]
    dcc0:	6808      	ldr	r0, [r1, #0]
    dcc2:	e8b0 4ff0 	ldmia.w	r0!, {r4, r5, r6, r7, r8, r9, sl, fp, lr}
    dcc6:	f01e 0f10 	tst.w	lr, #16
    dcca:	bf08      	it	eq
    dccc:	ecb0 8a10 	vldmiaeq	r0!, {s16-s31}
    dcd0:	f380 8809 	msr	PSP, r0
    dcd4:	f3bf 8f6f 	isb	sy
    dcd8:	4770      	bx	lr
    dcda:	bf00      	nop
    dcdc:	f3af 8000 	nop.w

0000dce0 <pxCurrentTCBConst>:
    dce0:	2000da2c 	.word	0x2000da2c

0000dce4 <SysTick_Handler>:
    dce4:	b508      	push	{r3, lr}
    dce6:	f04f 0380 	mov.w	r3, #128	; 0x80
    dcea:	f383 8811 	msr	BASEPRI, r3
    dcee:	f3bf 8f6f 	isb	sy
    dcf2:	f3bf 8f4f 	dsb	sy
    dcf6:	4b05      	ldr	r3, [pc, #20]	; (dd0c <SysTick_Handler+0x28>)
    dcf8:	4798      	blx	r3
    dcfa:	b118      	cbz	r0, dd04 <SysTick_Handler+0x20>
    dcfc:	4b04      	ldr	r3, [pc, #16]	; (dd10 <SysTick_Handler+0x2c>)
    dcfe:	f04f 5280 	mov.w	r2, #268435456	; 0x10000000
    dd02:	601a      	str	r2, [r3, #0]
    dd04:	2300      	movs	r3, #0
    dd06:	f383 8811 	msr	BASEPRI, r3
    dd0a:	bd08      	pop	{r3, pc}
    dd0c:	0000ed09 	.word	0x0000ed09
    dd10:	e000ed04 	.word	0xe000ed04

0000dd14 <vPortSetupTimerInterrupt>:
    dd14:	b430      	push	{r4, r5}
    dd16:	4b06      	ldr	r3, [pc, #24]	; (dd30 <vPortSetupTimerInterrupt+0x1c>)
    dd18:	4d06      	ldr	r5, [pc, #24]	; (dd34 <vPortSetupTimerInterrupt+0x20>)
    dd1a:	4807      	ldr	r0, [pc, #28]	; (dd38 <vPortSetupTimerInterrupt+0x24>)
    dd1c:	4c07      	ldr	r4, [pc, #28]	; (dd3c <vPortSetupTimerInterrupt+0x28>)
    dd1e:	2200      	movs	r2, #0
    dd20:	2107      	movs	r1, #7
    dd22:	601a      	str	r2, [r3, #0]
    dd24:	602a      	str	r2, [r5, #0]
    dd26:	6004      	str	r4, [r0, #0]
    dd28:	6019      	str	r1, [r3, #0]
    dd2a:	bc30      	pop	{r4, r5}
    dd2c:	4770      	bx	lr
    dd2e:	bf00      	nop
    dd30:	e000e010 	.word	0xe000e010
    dd34:	e000e018 	.word	0xe000e018
    dd38:	e000e014 	.word	0xe000e014
    dd3c:	000176ff 	.word	0x000176ff

0000dd40 <xPortStartScheduler>:
    dd40:	4b3a      	ldr	r3, [pc, #232]	; (de2c <xPortStartScheduler+0xec>)
    dd42:	4a3b      	ldr	r2, [pc, #236]	; (de30 <xPortStartScheduler+0xf0>)
    dd44:	6819      	ldr	r1, [r3, #0]
    dd46:	4291      	cmp	r1, r2
    dd48:	d037      	beq.n	ddba <xPortStartScheduler+0x7a>
    dd4a:	681a      	ldr	r2, [r3, #0]
    dd4c:	4b39      	ldr	r3, [pc, #228]	; (de34 <xPortStartScheduler+0xf4>)
    dd4e:	429a      	cmp	r2, r3
    dd50:	d03c      	beq.n	ddcc <xPortStartScheduler+0x8c>
    dd52:	b530      	push	{r4, r5, lr}
    dd54:	4b38      	ldr	r3, [pc, #224]	; (de38 <xPortStartScheduler+0xf8>)
    dd56:	4939      	ldr	r1, [pc, #228]	; (de3c <xPortStartScheduler+0xfc>)
    dd58:	781a      	ldrb	r2, [r3, #0]
    dd5a:	b083      	sub	sp, #12
    dd5c:	20ff      	movs	r0, #255	; 0xff
    dd5e:	b2d2      	uxtb	r2, r2
    dd60:	9201      	str	r2, [sp, #4]
    dd62:	7018      	strb	r0, [r3, #0]
    dd64:	781b      	ldrb	r3, [r3, #0]
    dd66:	b2db      	uxtb	r3, r3
    dd68:	f88d 3003 	strb.w	r3, [sp, #3]
    dd6c:	f89d 3003 	ldrb.w	r3, [sp, #3]
    dd70:	f89d 2003 	ldrb.w	r2, [sp, #3]
    dd74:	2007      	movs	r0, #7
    dd76:	f003 0380 	and.w	r3, r3, #128	; 0x80
    dd7a:	6048      	str	r0, [r1, #4]
    dd7c:	0610      	lsls	r0, r2, #24
    dd7e:	700b      	strb	r3, [r1, #0]
    dd80:	bf48      	it	mi
    dd82:	2306      	movmi	r3, #6
    dd84:	d401      	bmi.n	dd8a <xPortStartScheduler+0x4a>
    dd86:	e00f      	b.n	dda8 <xPortStartScheduler+0x68>
    dd88:	4603      	mov	r3, r0
    dd8a:	f89d 2003 	ldrb.w	r2, [sp, #3]
    dd8e:	0052      	lsls	r2, r2, #1
    dd90:	b2d2      	uxtb	r2, r2
    dd92:	f88d 2003 	strb.w	r2, [sp, #3]
    dd96:	f89d 2003 	ldrb.w	r2, [sp, #3]
    dd9a:	0612      	lsls	r2, r2, #24
    dd9c:	f103 30ff 	add.w	r0, r3, #4294967295
    dda0:	d4f2      	bmi.n	dd88 <xPortStartScheduler+0x48>
    dda2:	2b04      	cmp	r3, #4
    dda4:	604b      	str	r3, [r1, #4]
    dda6:	d01a      	beq.n	ddde <xPortStartScheduler+0x9e>
    dda8:	f04f 0380 	mov.w	r3, #128	; 0x80
    ddac:	f383 8811 	msr	BASEPRI, r3
    ddb0:	f3bf 8f6f 	isb	sy
    ddb4:	f3bf 8f4f 	dsb	sy
    ddb8:	e7fe      	b.n	ddb8 <xPortStartScheduler+0x78>
    ddba:	f04f 0380 	mov.w	r3, #128	; 0x80
    ddbe:	f383 8811 	msr	BASEPRI, r3
    ddc2:	f3bf 8f6f 	isb	sy
    ddc6:	f3bf 8f4f 	dsb	sy
    ddca:	e7fe      	b.n	ddca <xPortStartScheduler+0x8a>
    ddcc:	f04f 0380 	mov.w	r3, #128	; 0x80
    ddd0:	f383 8811 	msr	BASEPRI, r3
    ddd4:	f3bf 8f6f 	isb	sy
    ddd8:	f3bf 8f4f 	dsb	sy
    dddc:	e7fe      	b.n	dddc <xPortStartScheduler+0x9c>
    ddde:	9801      	ldr	r0, [sp, #4]
    dde0:	4d15      	ldr	r5, [pc, #84]	; (de38 <xPortStartScheduler+0xf8>)
    dde2:	4a17      	ldr	r2, [pc, #92]	; (de40 <xPortStartScheduler+0x100>)
    dde4:	4c17      	ldr	r4, [pc, #92]	; (de44 <xPortStartScheduler+0x104>)
    dde6:	b2c0      	uxtb	r0, r0
    dde8:	7028      	strb	r0, [r5, #0]
    ddea:	6810      	ldr	r0, [r2, #0]
    ddec:	f440 0060 	orr.w	r0, r0, #14680064	; 0xe00000
    ddf0:	6010      	str	r0, [r2, #0]
    ddf2:	6810      	ldr	r0, [r2, #0]
    ddf4:	021b      	lsls	r3, r3, #8
    ddf6:	f040 4060 	orr.w	r0, r0, #3758096384	; 0xe0000000
    ddfa:	6010      	str	r0, [r2, #0]
    ddfc:	f403 63e0 	and.w	r3, r3, #1792	; 0x700
    de00:	604b      	str	r3, [r1, #4]
    de02:	47a0      	blx	r4
    de04:	4a10      	ldr	r2, [pc, #64]	; (de48 <xPortStartScheduler+0x108>)
    de06:	4b11      	ldr	r3, [pc, #68]	; (de4c <xPortStartScheduler+0x10c>)
    de08:	2400      	movs	r4, #0
    de0a:	6014      	str	r4, [r2, #0]
    de0c:	4798      	blx	r3
    de0e:	4a10      	ldr	r2, [pc, #64]	; (de50 <xPortStartScheduler+0x110>)
    de10:	4910      	ldr	r1, [pc, #64]	; (de54 <xPortStartScheduler+0x114>)
    de12:	6813      	ldr	r3, [r2, #0]
    de14:	f043 4340 	orr.w	r3, r3, #3221225472	; 0xc0000000
    de18:	6013      	str	r3, [r2, #0]
    de1a:	4788      	blx	r1
    de1c:	4b0e      	ldr	r3, [pc, #56]	; (de58 <xPortStartScheduler+0x118>)
    de1e:	4798      	blx	r3
    de20:	4b0e      	ldr	r3, [pc, #56]	; (de5c <xPortStartScheduler+0x11c>)
    de22:	4798      	blx	r3
    de24:	4620      	mov	r0, r4
    de26:	b003      	add	sp, #12
    de28:	bd30      	pop	{r4, r5, pc}
    de2a:	bf00      	nop
    de2c:	e000ed00 	.word	0xe000ed00
    de30:	410fc271 	.word	0x410fc271
    de34:	410fc270 	.word	0x410fc270
    de38:	e000e400 	.word	0xe000e400
    de3c:	200058d0 	.word	0x200058d0
    de40:	e000ed20 	.word	0xe000ed20
    de44:	0000dd15 	.word	0x0000dd15
    de48:	20002a88 	.word	0x20002a88
    de4c:	0000dbb1 	.word	0x0000dbb1
    de50:	e000ef34 	.word	0xe000ef34
    de54:	0000db89 	.word	0x0000db89
    de58:	0000ef89 	.word	0x0000ef89
    de5c:	0000db49 	.word	0x0000db49

0000de60 <vPortValidateInterruptPriority>:
    de60:	f3ef 8205 	mrs	r2, IPSR
    de64:	2a0f      	cmp	r2, #15
    de66:	d811      	bhi.n	de8c <vPortValidateInterruptPriority+0x2c>
    de68:	4b10      	ldr	r3, [pc, #64]	; (deac <vPortValidateInterruptPriority+0x4c>)
    de6a:	4911      	ldr	r1, [pc, #68]	; (deb0 <vPortValidateInterruptPriority+0x50>)
    de6c:	685a      	ldr	r2, [r3, #4]
    de6e:	680b      	ldr	r3, [r1, #0]
    de70:	f403 63e0 	and.w	r3, r3, #1792	; 0x700
    de74:	4293      	cmp	r3, r2
    de76:	d908      	bls.n	de8a <vPortValidateInterruptPriority+0x2a>
    de78:	f04f 0380 	mov.w	r3, #128	; 0x80
    de7c:	f383 8811 	msr	BASEPRI, r3
    de80:	f3bf 8f6f 	isb	sy
    de84:	f3bf 8f4f 	dsb	sy
    de88:	e7fe      	b.n	de88 <vPortValidateInterruptPriority+0x28>
    de8a:	4770      	bx	lr
    de8c:	4909      	ldr	r1, [pc, #36]	; (deb4 <vPortValidateInterruptPriority+0x54>)
    de8e:	4b07      	ldr	r3, [pc, #28]	; (deac <vPortValidateInterruptPriority+0x4c>)
    de90:	5c52      	ldrb	r2, [r2, r1]
    de92:	7819      	ldrb	r1, [r3, #0]
    de94:	4291      	cmp	r1, r2
    de96:	d9e8      	bls.n	de6a <vPortValidateInterruptPriority+0xa>
    de98:	f04f 0380 	mov.w	r3, #128	; 0x80
    de9c:	f383 8811 	msr	BASEPRI, r3
    dea0:	f3bf 8f6f 	isb	sy
    dea4:	f3bf 8f4f 	dsb	sy
    dea8:	e7fe      	b.n	dea8 <vPortValidateInterruptPriority+0x48>
    deaa:	bf00      	nop
    deac:	200058d0 	.word	0x200058d0
    deb0:	e000ed0c 	.word	0xe000ed0c
    deb4:	e000e3f0 	.word	0xe000e3f0

0000deb8 <pvPortMalloc>:
    deb8:	0743      	lsls	r3, r0, #29
    deba:	b510      	push	{r4, lr}
    debc:	4b13      	ldr	r3, [pc, #76]	; (df0c <pvPortMalloc+0x54>)
    debe:	4604      	mov	r4, r0
    dec0:	bf1c      	itt	ne
    dec2:	f020 0407 	bicne.w	r4, r0, #7
    dec6:	3408      	addne	r4, #8
    dec8:	4798      	blx	r3
    deca:	4a11      	ldr	r2, [pc, #68]	; (df10 <pvPortMalloc+0x58>)
    decc:	6813      	ldr	r3, [r2, #0]
    dece:	b1b3      	cbz	r3, defe <pvPortMalloc+0x46>
    ded0:	4910      	ldr	r1, [pc, #64]	; (df14 <pvPortMalloc+0x5c>)
    ded2:	f8d1 393c 	ldr.w	r3, [r1, #2364]	; 0x93c
    ded6:	f647 70f7 	movw	r0, #32759	; 0x7ff7
    deda:	441c      	add	r4, r3
    dedc:	4284      	cmp	r4, r0
    dede:	d809      	bhi.n	def4 <pvPortMalloc+0x3c>
    dee0:	42a3      	cmp	r3, r4
    dee2:	d207      	bcs.n	def4 <pvPortMalloc+0x3c>
    dee4:	6812      	ldr	r2, [r2, #0]
    dee6:	f8c1 493c 	str.w	r4, [r1, #2364]	; 0x93c
    deea:	18d4      	adds	r4, r2, r3
    deec:	4b0a      	ldr	r3, [pc, #40]	; (df18 <pvPortMalloc+0x60>)
    deee:	4798      	blx	r3
    def0:	4620      	mov	r0, r4
    def2:	bd10      	pop	{r4, pc}
    def4:	2400      	movs	r4, #0
    def6:	4b08      	ldr	r3, [pc, #32]	; (df18 <pvPortMalloc+0x60>)
    def8:	4798      	blx	r3
    defa:	4620      	mov	r0, r4
    defc:	bd10      	pop	{r4, pc}
    defe:	f102 030c 	add.w	r3, r2, #12
    df02:	f023 0307 	bic.w	r3, r3, #7
    df06:	6013      	str	r3, [r2, #0]
    df08:	e7e2      	b.n	ded0 <pvPortMalloc+0x18>
    df0a:	bf00      	nop
    df0c:	0000ecd1 	.word	0x0000ecd1
    df10:	200058d8 	.word	0x200058d8
    df14:	2000cfa0 	.word	0x2000cfa0
    df18:	0000ee2d 	.word	0x0000ee2d

0000df1c <vPortFree>:
    df1c:	b140      	cbz	r0, df30 <vPortFree+0x14>
    df1e:	f04f 0380 	mov.w	r3, #128	; 0x80
    df22:	f383 8811 	msr	BASEPRI, r3
    df26:	f3bf 8f6f 	isb	sy
    df2a:	f3bf 8f4f 	dsb	sy
    df2e:	e7fe      	b.n	df2e <vPortFree+0x12>
    df30:	4770      	bx	lr
    df32:	bf00      	nop

0000df34 <xPortGetFreeHeapSize>:
    df34:	4b03      	ldr	r3, [pc, #12]	; (df44 <xPortGetFreeHeapSize+0x10>)
    df36:	f8d3 093c 	ldr.w	r0, [r3, #2364]	; 0x93c
    df3a:	f5c0 40ff 	rsb	r0, r0, #32640	; 0x7f80
    df3e:	3078      	adds	r0, #120	; 0x78
    df40:	4770      	bx	lr
    df42:	bf00      	nop
    df44:	2000cfa0 	.word	0x2000cfa0

0000df48 <prvCopyDataToQueue>:
    df48:	b570      	push	{r4, r5, r6, lr}
    df4a:	4615      	mov	r5, r2
    df4c:	6c02      	ldr	r2, [r0, #64]	; 0x40
    df4e:	6b86      	ldr	r6, [r0, #56]	; 0x38
    df50:	4604      	mov	r4, r0
    df52:	b932      	cbnz	r2, df62 <prvCopyDataToQueue+0x1a>
    df54:	6805      	ldr	r5, [r0, #0]
    df56:	bb35      	cbnz	r5, dfa6 <prvCopyDataToQueue+0x5e>
    df58:	6840      	ldr	r0, [r0, #4]
    df5a:	4b16      	ldr	r3, [pc, #88]	; (dfb4 <prvCopyDataToQueue+0x6c>)
    df5c:	4798      	blx	r3
    df5e:	6065      	str	r5, [r4, #4]
    df60:	e024      	b.n	dfac <prvCopyDataToQueue+0x64>
    df62:	4b15      	ldr	r3, [pc, #84]	; (dfb8 <prvCopyDataToQueue+0x70>)
    df64:	b965      	cbnz	r5, df80 <prvCopyDataToQueue+0x38>
    df66:	6880      	ldr	r0, [r0, #8]
    df68:	4798      	blx	r3
    df6a:	68a3      	ldr	r3, [r4, #8]
    df6c:	6c21      	ldr	r1, [r4, #64]	; 0x40
    df6e:	6862      	ldr	r2, [r4, #4]
    df70:	440b      	add	r3, r1
    df72:	4293      	cmp	r3, r2
    df74:	60a3      	str	r3, [r4, #8]
    df76:	d316      	bcc.n	dfa6 <prvCopyDataToQueue+0x5e>
    df78:	6823      	ldr	r3, [r4, #0]
    df7a:	60a3      	str	r3, [r4, #8]
    df7c:	4628      	mov	r0, r5
    df7e:	e015      	b.n	dfac <prvCopyDataToQueue+0x64>
    df80:	68c0      	ldr	r0, [r0, #12]
    df82:	4798      	blx	r3
    df84:	6c23      	ldr	r3, [r4, #64]	; 0x40
    df86:	68e2      	ldr	r2, [r4, #12]
    df88:	6821      	ldr	r1, [r4, #0]
    df8a:	425b      	negs	r3, r3
    df8c:	441a      	add	r2, r3
    df8e:	428a      	cmp	r2, r1
    df90:	60e2      	str	r2, [r4, #12]
    df92:	d202      	bcs.n	df9a <prvCopyDataToQueue+0x52>
    df94:	6862      	ldr	r2, [r4, #4]
    df96:	4413      	add	r3, r2
    df98:	60e3      	str	r3, [r4, #12]
    df9a:	2d02      	cmp	r5, #2
    df9c:	d103      	bne.n	dfa6 <prvCopyDataToQueue+0x5e>
    df9e:	b126      	cbz	r6, dfaa <prvCopyDataToQueue+0x62>
    dfa0:	3e01      	subs	r6, #1
    dfa2:	2000      	movs	r0, #0
    dfa4:	e002      	b.n	dfac <prvCopyDataToQueue+0x64>
    dfa6:	2000      	movs	r0, #0
    dfa8:	e000      	b.n	dfac <prvCopyDataToQueue+0x64>
    dfaa:	4630      	mov	r0, r6
    dfac:	3601      	adds	r6, #1
    dfae:	63a6      	str	r6, [r4, #56]	; 0x38
    dfb0:	bd70      	pop	{r4, r5, r6, pc}
    dfb2:	bf00      	nop
    dfb4:	0000f32d 	.word	0x0000f32d
    dfb8:	00010a69 	.word	0x00010a69

0000dfbc <prvCopyDataFromQueue>:
    dfbc:	6c02      	ldr	r2, [r0, #64]	; 0x40
    dfbe:	4603      	mov	r3, r0
    dfc0:	b172      	cbz	r2, dfe0 <prvCopyDataFromQueue+0x24>
    dfc2:	b410      	push	{r4}
    dfc4:	4608      	mov	r0, r1
    dfc6:	68d9      	ldr	r1, [r3, #12]
    dfc8:	685c      	ldr	r4, [r3, #4]
    dfca:	4411      	add	r1, r2
    dfcc:	42a1      	cmp	r1, r4
    dfce:	60d9      	str	r1, [r3, #12]
    dfd0:	bf24      	itt	cs
    dfd2:	6819      	ldrcs	r1, [r3, #0]
    dfd4:	60d9      	strcs	r1, [r3, #12]
    dfd6:	68d9      	ldr	r1, [r3, #12]
    dfd8:	f85d 4b04 	ldr.w	r4, [sp], #4
    dfdc:	4b01      	ldr	r3, [pc, #4]	; (dfe4 <prvCopyDataFromQueue+0x28>)
    dfde:	4718      	bx	r3
    dfe0:	4770      	bx	lr
    dfe2:	bf00      	nop
    dfe4:	00010a69 	.word	0x00010a69

0000dfe8 <prvNotifyQueueSetContainer.part.0>:
    dfe8:	f04f 0380 	mov.w	r3, #128	; 0x80
    dfec:	f383 8811 	msr	BASEPRI, r3
    dff0:	f3bf 8f6f 	isb	sy
    dff4:	f3bf 8f4f 	dsb	sy
    dff8:	e7fe      	b.n	dff8 <prvNotifyQueueSetContainer.part.0+0x10>
    dffa:	bf00      	nop

0000dffc <prvNotifyQueueSetContainer>:
    dffc:	b570      	push	{r4, r5, r6, lr}
    dffe:	6c84      	ldr	r4, [r0, #72]	; 0x48
    e000:	b082      	sub	sp, #8
    e002:	9001      	str	r0, [sp, #4]
    e004:	b1a4      	cbz	r4, e030 <prvNotifyQueueSetContainer+0x34>
    e006:	460a      	mov	r2, r1
    e008:	6be3      	ldr	r3, [r4, #60]	; 0x3c
    e00a:	6ba1      	ldr	r1, [r4, #56]	; 0x38
    e00c:	4299      	cmp	r1, r3
    e00e:	d308      	bcc.n	e022 <prvNotifyQueueSetContainer+0x26>
    e010:	f04f 0380 	mov.w	r3, #128	; 0x80
    e014:	f383 8811 	msr	BASEPRI, r3
    e018:	f3bf 8f6f 	isb	sy
    e01c:	f3bf 8f4f 	dsb	sy
    e020:	e7fe      	b.n	e020 <prvNotifyQueueSetContainer+0x24>
    e022:	6ba1      	ldr	r1, [r4, #56]	; 0x38
    e024:	428b      	cmp	r3, r1
    e026:	d805      	bhi.n	e034 <prvNotifyQueueSetContainer+0x38>
    e028:	2600      	movs	r6, #0
    e02a:	4630      	mov	r0, r6
    e02c:	b002      	add	sp, #8
    e02e:	bd70      	pop	{r4, r5, r6, pc}
    e030:	4b0f      	ldr	r3, [pc, #60]	; (e070 <prvNotifyQueueSetContainer+0x74>)
    e032:	4798      	blx	r3
    e034:	f894 5045 	ldrb.w	r5, [r4, #69]	; 0x45
    e038:	4b0e      	ldr	r3, [pc, #56]	; (e074 <prvNotifyQueueSetContainer+0x78>)
    e03a:	a901      	add	r1, sp, #4
    e03c:	4620      	mov	r0, r4
    e03e:	4798      	blx	r3
    e040:	b26d      	sxtb	r5, r5
    e042:	1c6b      	adds	r3, r5, #1
    e044:	4606      	mov	r6, r0
    e046:	d006      	beq.n	e056 <prvNotifyQueueSetContainer+0x5a>
    e048:	1c6b      	adds	r3, r5, #1
    e04a:	b25b      	sxtb	r3, r3
    e04c:	4630      	mov	r0, r6
    e04e:	f884 3045 	strb.w	r3, [r4, #69]	; 0x45
    e052:	b002      	add	sp, #8
    e054:	bd70      	pop	{r4, r5, r6, pc}
    e056:	6a63      	ldr	r3, [r4, #36]	; 0x24
    e058:	2b00      	cmp	r3, #0
    e05a:	d0e6      	beq.n	e02a <prvNotifyQueueSetContainer+0x2e>
    e05c:	f104 0024 	add.w	r0, r4, #36	; 0x24
    e060:	4b05      	ldr	r3, [pc, #20]	; (e078 <prvNotifyQueueSetContainer+0x7c>)
    e062:	4798      	blx	r3
    e064:	2800      	cmp	r0, #0
    e066:	bf18      	it	ne
    e068:	2601      	movne	r6, #1
    e06a:	4630      	mov	r0, r6
    e06c:	b002      	add	sp, #8
    e06e:	bd70      	pop	{r4, r5, r6, pc}
    e070:	0000dfe9 	.word	0x0000dfe9
    e074:	0000df49 	.word	0x0000df49
    e078:	0000f0a1 	.word	0x0000f0a1

0000e07c <prvUnlockQueue>:
    e07c:	e92d 47f0 	stmdb	sp!, {r4, r5, r6, r7, r8, r9, sl, lr}
    e080:	4604      	mov	r4, r0
    e082:	f8df 90a8 	ldr.w	r9, [pc, #168]	; e12c <prvUnlockQueue+0xb0>
    e086:	47c8      	blx	r9
    e088:	f894 3045 	ldrb.w	r3, [r4, #69]	; 0x45
    e08c:	b25d      	sxtb	r5, r3
    e08e:	2d00      	cmp	r5, #0
    e090:	dd1c      	ble.n	e0cc <prvUnlockQueue+0x50>
    e092:	4f24      	ldr	r7, [pc, #144]	; (e124 <prvUnlockQueue+0xa8>)
    e094:	f8df 8098 	ldr.w	r8, [pc, #152]	; e130 <prvUnlockQueue+0xb4>
    e098:	4e23      	ldr	r6, [pc, #140]	; (e128 <prvUnlockQueue+0xac>)
    e09a:	e005      	b.n	e0a8 <prvUnlockQueue+0x2c>
    e09c:	47b0      	blx	r6
    e09e:	b978      	cbnz	r0, e0c0 <prvUnlockQueue+0x44>
    e0a0:	1e6b      	subs	r3, r5, #1
    e0a2:	b2db      	uxtb	r3, r3
    e0a4:	b25d      	sxtb	r5, r3
    e0a6:	b18b      	cbz	r3, e0cc <prvUnlockQueue+0x50>
    e0a8:	6ca3      	ldr	r3, [r4, #72]	; 0x48
    e0aa:	2100      	movs	r1, #0
    e0ac:	4620      	mov	r0, r4
    e0ae:	2b00      	cmp	r3, #0
    e0b0:	d1f4      	bne.n	e09c <prvUnlockQueue+0x20>
    e0b2:	6a63      	ldr	r3, [r4, #36]	; 0x24
    e0b4:	f104 0024 	add.w	r0, r4, #36	; 0x24
    e0b8:	b143      	cbz	r3, e0cc <prvUnlockQueue+0x50>
    e0ba:	47b8      	blx	r7
    e0bc:	2800      	cmp	r0, #0
    e0be:	d0ef      	beq.n	e0a0 <prvUnlockQueue+0x24>
    e0c0:	47c0      	blx	r8
    e0c2:	1e6b      	subs	r3, r5, #1
    e0c4:	b2db      	uxtb	r3, r3
    e0c6:	b25d      	sxtb	r5, r3
    e0c8:	2b00      	cmp	r3, #0
    e0ca:	d1ed      	bne.n	e0a8 <prvUnlockQueue+0x2c>
    e0cc:	23ff      	movs	r3, #255	; 0xff
    e0ce:	f884 3045 	strb.w	r3, [r4, #69]	; 0x45
    e0d2:	f8df 8060 	ldr.w	r8, [pc, #96]	; e134 <prvUnlockQueue+0xb8>
    e0d6:	47c0      	blx	r8
    e0d8:	47c8      	blx	r9
    e0da:	f894 3044 	ldrb.w	r3, [r4, #68]	; 0x44
    e0de:	b25d      	sxtb	r5, r3
    e0e0:	2d00      	cmp	r5, #0
    e0e2:	dd17      	ble.n	e114 <prvUnlockQueue+0x98>
    e0e4:	6923      	ldr	r3, [r4, #16]
    e0e6:	b1ab      	cbz	r3, e114 <prvUnlockQueue+0x98>
    e0e8:	f104 0710 	add.w	r7, r4, #16
    e0ec:	4e0d      	ldr	r6, [pc, #52]	; (e124 <prvUnlockQueue+0xa8>)
    e0ee:	f8df 9040 	ldr.w	r9, [pc, #64]	; e130 <prvUnlockQueue+0xb4>
    e0f2:	e005      	b.n	e100 <prvUnlockQueue+0x84>
    e0f4:	1e6b      	subs	r3, r5, #1
    e0f6:	b2db      	uxtb	r3, r3
    e0f8:	b25d      	sxtb	r5, r3
    e0fa:	b15b      	cbz	r3, e114 <prvUnlockQueue+0x98>
    e0fc:	6923      	ldr	r3, [r4, #16]
    e0fe:	b14b      	cbz	r3, e114 <prvUnlockQueue+0x98>
    e100:	4638      	mov	r0, r7
    e102:	47b0      	blx	r6
    e104:	2800      	cmp	r0, #0
    e106:	d0f5      	beq.n	e0f4 <prvUnlockQueue+0x78>
    e108:	47c8      	blx	r9
    e10a:	1e6b      	subs	r3, r5, #1
    e10c:	b2db      	uxtb	r3, r3
    e10e:	b25d      	sxtb	r5, r3
    e110:	2b00      	cmp	r3, #0
    e112:	d1f3      	bne.n	e0fc <prvUnlockQueue+0x80>
    e114:	23ff      	movs	r3, #255	; 0xff
    e116:	f884 3044 	strb.w	r3, [r4, #68]	; 0x44
    e11a:	4643      	mov	r3, r8
    e11c:	e8bd 47f0 	ldmia.w	sp!, {r4, r5, r6, r7, r8, r9, sl, lr}
    e120:	4718      	bx	r3
    e122:	bf00      	nop
    e124:	0000f0a1 	.word	0x0000f0a1
    e128:	0000dffd 	.word	0x0000dffd
    e12c:	0000dc15 	.word	0x0000dc15
    e130:	0000f1cd 	.word	0x0000f1cd
    e134:	0000dc59 	.word	0x0000dc59

0000e138 <xQueueGenericReset>:
    e138:	b538      	push	{r3, r4, r5, lr}
    e13a:	b1e0      	cbz	r0, e176 <xQueueGenericReset+0x3e>
    e13c:	4604      	mov	r4, r0
    e13e:	4b1d      	ldr	r3, [pc, #116]	; (e1b4 <xQueueGenericReset+0x7c>)
    e140:	460d      	mov	r5, r1
    e142:	4798      	blx	r3
    e144:	6c23      	ldr	r3, [r4, #64]	; 0x40
    e146:	6be0      	ldr	r0, [r4, #60]	; 0x3c
    e148:	6822      	ldr	r2, [r4, #0]
    e14a:	60a2      	str	r2, [r4, #8]
    e14c:	fb00 f003 	mul.w	r0, r0, r3
    e150:	1ac3      	subs	r3, r0, r3
    e152:	4413      	add	r3, r2
    e154:	2100      	movs	r1, #0
    e156:	4402      	add	r2, r0
    e158:	20ff      	movs	r0, #255	; 0xff
    e15a:	63a1      	str	r1, [r4, #56]	; 0x38
    e15c:	60e3      	str	r3, [r4, #12]
    e15e:	f884 0044 	strb.w	r0, [r4, #68]	; 0x44
    e162:	6062      	str	r2, [r4, #4]
    e164:	f884 0045 	strb.w	r0, [r4, #69]	; 0x45
    e168:	b9cd      	cbnz	r5, e19e <xQueueGenericReset+0x66>
    e16a:	6923      	ldr	r3, [r4, #16]
    e16c:	b92b      	cbnz	r3, e17a <xQueueGenericReset+0x42>
    e16e:	4b12      	ldr	r3, [pc, #72]	; (e1b8 <xQueueGenericReset+0x80>)
    e170:	4798      	blx	r3
    e172:	2001      	movs	r0, #1
    e174:	bd38      	pop	{r3, r4, r5, pc}
    e176:	4b11      	ldr	r3, [pc, #68]	; (e1bc <xQueueGenericReset+0x84>)
    e178:	4798      	blx	r3
    e17a:	f104 0010 	add.w	r0, r4, #16
    e17e:	4b10      	ldr	r3, [pc, #64]	; (e1c0 <xQueueGenericReset+0x88>)
    e180:	4798      	blx	r3
    e182:	2800      	cmp	r0, #0
    e184:	d0f3      	beq.n	e16e <xQueueGenericReset+0x36>
    e186:	4b0f      	ldr	r3, [pc, #60]	; (e1c4 <xQueueGenericReset+0x8c>)
    e188:	f04f 5280 	mov.w	r2, #268435456	; 0x10000000
    e18c:	601a      	str	r2, [r3, #0]
    e18e:	f3bf 8f4f 	dsb	sy
    e192:	f3bf 8f6f 	isb	sy
    e196:	4b08      	ldr	r3, [pc, #32]	; (e1b8 <xQueueGenericReset+0x80>)
    e198:	4798      	blx	r3
    e19a:	2001      	movs	r0, #1
    e19c:	bd38      	pop	{r3, r4, r5, pc}
    e19e:	f104 0010 	add.w	r0, r4, #16
    e1a2:	4d09      	ldr	r5, [pc, #36]	; (e1c8 <xQueueGenericReset+0x90>)
    e1a4:	47a8      	blx	r5
    e1a6:	f104 0024 	add.w	r0, r4, #36	; 0x24
    e1aa:	47a8      	blx	r5
    e1ac:	4b02      	ldr	r3, [pc, #8]	; (e1b8 <xQueueGenericReset+0x80>)
    e1ae:	4798      	blx	r3
    e1b0:	2001      	movs	r0, #1
    e1b2:	bd38      	pop	{r3, r4, r5, pc}
    e1b4:	0000dc15 	.word	0x0000dc15
    e1b8:	0000dc59 	.word	0x0000dc59
    e1bc:	0000dfe9 	.word	0x0000dfe9
    e1c0:	0000f0a1 	.word	0x0000f0a1
    e1c4:	e000ed04 	.word	0xe000ed04
    e1c8:	0000daad 	.word	0x0000daad

0000e1cc <xQueueGenericCreate>:
    e1cc:	b5f8      	push	{r3, r4, r5, r6, r7, lr}
    e1ce:	b940      	cbnz	r0, e1e2 <xQueueGenericCreate+0x16>
    e1d0:	f04f 0380 	mov.w	r3, #128	; 0x80
    e1d4:	f383 8811 	msr	BASEPRI, r3
    e1d8:	f3bf 8f6f 	isb	sy
    e1dc:	f3bf 8f4f 	dsb	sy
    e1e0:	e7fe      	b.n	e1e0 <xQueueGenericCreate+0x14>
    e1e2:	4606      	mov	r6, r0
    e1e4:	fb01 f000 	mul.w	r0, r1, r0
    e1e8:	3054      	adds	r0, #84	; 0x54
    e1ea:	4b0c      	ldr	r3, [pc, #48]	; (e21c <xQueueGenericCreate+0x50>)
    e1ec:	4617      	mov	r7, r2
    e1ee:	460d      	mov	r5, r1
    e1f0:	4798      	blx	r3
    e1f2:	4604      	mov	r4, r0
    e1f4:	b158      	cbz	r0, e20e <xQueueGenericCreate+0x42>
    e1f6:	b965      	cbnz	r5, e212 <xQueueGenericCreate+0x46>
    e1f8:	6020      	str	r0, [r4, #0]
    e1fa:	4b09      	ldr	r3, [pc, #36]	; (e220 <xQueueGenericCreate+0x54>)
    e1fc:	63e6      	str	r6, [r4, #60]	; 0x3c
    e1fe:	6425      	str	r5, [r4, #64]	; 0x40
    e200:	2101      	movs	r1, #1
    e202:	4620      	mov	r0, r4
    e204:	4798      	blx	r3
    e206:	2300      	movs	r3, #0
    e208:	f884 7050 	strb.w	r7, [r4, #80]	; 0x50
    e20c:	64a3      	str	r3, [r4, #72]	; 0x48
    e20e:	4620      	mov	r0, r4
    e210:	bdf8      	pop	{r3, r4, r5, r6, r7, pc}
    e212:	f100 0354 	add.w	r3, r0, #84	; 0x54
    e216:	6003      	str	r3, [r0, #0]
    e218:	e7ef      	b.n	e1fa <xQueueGenericCreate+0x2e>
    e21a:	bf00      	nop
    e21c:	0000deb9 	.word	0x0000deb9
    e220:	0000e139 	.word	0x0000e139

0000e224 <xQueueGenericSend>:
    e224:	e92d 4ff0 	stmdb	sp!, {r4, r5, r6, r7, r8, r9, sl, fp, lr}
    e228:	b085      	sub	sp, #20
    e22a:	9201      	str	r2, [sp, #4]
    e22c:	2800      	cmp	r0, #0
    e22e:	f000 80b2 	beq.w	e396 <xQueueGenericSend+0x172>
    e232:	2900      	cmp	r1, #0
    e234:	f000 80a2 	beq.w	e37c <xQueueGenericSend+0x158>
    e238:	2b02      	cmp	r3, #2
    e23a:	f000 8092 	beq.w	e362 <xQueueGenericSend+0x13e>
    e23e:	461e      	mov	r6, r3
    e240:	4b5d      	ldr	r3, [pc, #372]	; (e3b8 <xQueueGenericSend+0x194>)
    e242:	4604      	mov	r4, r0
    e244:	460f      	mov	r7, r1
    e246:	4798      	blx	r3
    e248:	b950      	cbnz	r0, e260 <xQueueGenericSend+0x3c>
    e24a:	9b01      	ldr	r3, [sp, #4]
    e24c:	b14b      	cbz	r3, e262 <xQueueGenericSend+0x3e>
    e24e:	f04f 0380 	mov.w	r3, #128	; 0x80
    e252:	f383 8811 	msr	BASEPRI, r3
    e256:	f3bf 8f6f 	isb	sy
    e25a:	f3bf 8f4f 	dsb	sy
    e25e:	e7fe      	b.n	e25e <xQueueGenericSend+0x3a>
    e260:	2300      	movs	r3, #0
    e262:	f8df 817c 	ldr.w	r8, [pc, #380]	; e3e0 <xQueueGenericSend+0x1bc>
    e266:	4d55      	ldr	r5, [pc, #340]	; (e3bc <xQueueGenericSend+0x198>)
    e268:	f8df b178 	ldr.w	fp, [pc, #376]	; e3e4 <xQueueGenericSend+0x1c0>
    e26c:	f8df a178 	ldr.w	sl, [pc, #376]	; e3e8 <xQueueGenericSend+0x1c4>
    e270:	e024      	b.n	e2bc <xQueueGenericSend+0x98>
    e272:	47a8      	blx	r5
    e274:	47d0      	blx	sl
    e276:	47c0      	blx	r8
    e278:	f894 3044 	ldrb.w	r3, [r4, #68]	; 0x44
    e27c:	2bff      	cmp	r3, #255	; 0xff
    e27e:	bf04      	itt	eq
    e280:	2300      	moveq	r3, #0
    e282:	f884 3044 	strbeq.w	r3, [r4, #68]	; 0x44
    e286:	f894 3045 	ldrb.w	r3, [r4, #69]	; 0x45
    e28a:	2bff      	cmp	r3, #255	; 0xff
    e28c:	bf04      	itt	eq
    e28e:	2300      	moveq	r3, #0
    e290:	f884 3045 	strbeq.w	r3, [r4, #69]	; 0x45
    e294:	47a8      	blx	r5
    e296:	4648      	mov	r0, r9
    e298:	a901      	add	r1, sp, #4
    e29a:	4b49      	ldr	r3, [pc, #292]	; (e3c0 <xQueueGenericSend+0x19c>)
    e29c:	4798      	blx	r3
    e29e:	2800      	cmp	r0, #0
    e2a0:	f040 8082 	bne.w	e3a8 <xQueueGenericSend+0x184>
    e2a4:	47c0      	blx	r8
    e2a6:	6ba2      	ldr	r2, [r4, #56]	; 0x38
    e2a8:	6be3      	ldr	r3, [r4, #60]	; 0x3c
    e2aa:	429a      	cmp	r2, r3
    e2ac:	d01b      	beq.n	e2e6 <xQueueGenericSend+0xc2>
    e2ae:	47a8      	blx	r5
    e2b0:	4b44      	ldr	r3, [pc, #272]	; (e3c4 <xQueueGenericSend+0x1a0>)
    e2b2:	4620      	mov	r0, r4
    e2b4:	4798      	blx	r3
    e2b6:	4b44      	ldr	r3, [pc, #272]	; (e3c8 <xQueueGenericSend+0x1a4>)
    e2b8:	4798      	blx	r3
    e2ba:	2301      	movs	r3, #1
    e2bc:	9300      	str	r3, [sp, #0]
    e2be:	47c0      	blx	r8
    e2c0:	6ba1      	ldr	r1, [r4, #56]	; 0x38
    e2c2:	6be2      	ldr	r2, [r4, #60]	; 0x3c
    e2c4:	4291      	cmp	r1, r2
    e2c6:	d329      	bcc.n	e31c <xQueueGenericSend+0xf8>
    e2c8:	2e02      	cmp	r6, #2
    e2ca:	9b00      	ldr	r3, [sp, #0]
    e2cc:	d026      	beq.n	e31c <xQueueGenericSend+0xf8>
    e2ce:	f8dd 9004 	ldr.w	r9, [sp, #4]
    e2d2:	f1b9 0f00 	cmp.w	r9, #0
    e2d6:	d01c      	beq.n	e312 <xQueueGenericSend+0xee>
    e2d8:	f10d 0908 	add.w	r9, sp, #8
    e2dc:	2b00      	cmp	r3, #0
    e2de:	d1c8      	bne.n	e272 <xQueueGenericSend+0x4e>
    e2e0:	4648      	mov	r0, r9
    e2e2:	47d8      	blx	fp
    e2e4:	e7c5      	b.n	e272 <xQueueGenericSend+0x4e>
    e2e6:	47a8      	blx	r5
    e2e8:	9901      	ldr	r1, [sp, #4]
    e2ea:	4b38      	ldr	r3, [pc, #224]	; (e3cc <xQueueGenericSend+0x1a8>)
    e2ec:	f104 0010 	add.w	r0, r4, #16
    e2f0:	4798      	blx	r3
    e2f2:	4b34      	ldr	r3, [pc, #208]	; (e3c4 <xQueueGenericSend+0x1a0>)
    e2f4:	4620      	mov	r0, r4
    e2f6:	4798      	blx	r3
    e2f8:	4b33      	ldr	r3, [pc, #204]	; (e3c8 <xQueueGenericSend+0x1a4>)
    e2fa:	4798      	blx	r3
    e2fc:	2800      	cmp	r0, #0
    e2fe:	d1dc      	bne.n	e2ba <xQueueGenericSend+0x96>
    e300:	4a33      	ldr	r2, [pc, #204]	; (e3d0 <xQueueGenericSend+0x1ac>)
    e302:	f04f 5380 	mov.w	r3, #268435456	; 0x10000000
    e306:	6013      	str	r3, [r2, #0]
    e308:	f3bf 8f4f 	dsb	sy
    e30c:	f3bf 8f6f 	isb	sy
    e310:	e7d3      	b.n	e2ba <xQueueGenericSend+0x96>
    e312:	47a8      	blx	r5
    e314:	4648      	mov	r0, r9
    e316:	b005      	add	sp, #20
    e318:	e8bd 8ff0 	ldmia.w	sp!, {r4, r5, r6, r7, r8, r9, sl, fp, pc}
    e31c:	4b2d      	ldr	r3, [pc, #180]	; (e3d4 <xQueueGenericSend+0x1b0>)
    e31e:	4639      	mov	r1, r7
    e320:	4632      	mov	r2, r6
    e322:	4620      	mov	r0, r4
    e324:	4798      	blx	r3
    e326:	6ca3      	ldr	r3, [r4, #72]	; 0x48
    e328:	b17b      	cbz	r3, e34a <xQueueGenericSend+0x126>
    e32a:	4631      	mov	r1, r6
    e32c:	4620      	mov	r0, r4
    e32e:	4b2a      	ldr	r3, [pc, #168]	; (e3d8 <xQueueGenericSend+0x1b4>)
    e330:	4798      	blx	r3
    e332:	b138      	cbz	r0, e344 <xQueueGenericSend+0x120>
    e334:	4b26      	ldr	r3, [pc, #152]	; (e3d0 <xQueueGenericSend+0x1ac>)
    e336:	f04f 5280 	mov.w	r2, #268435456	; 0x10000000
    e33a:	601a      	str	r2, [r3, #0]
    e33c:	f3bf 8f4f 	dsb	sy
    e340:	f3bf 8f6f 	isb	sy
    e344:	47a8      	blx	r5
    e346:	2001      	movs	r0, #1
    e348:	e7e5      	b.n	e316 <xQueueGenericSend+0xf2>
    e34a:	6a63      	ldr	r3, [r4, #36]	; 0x24
    e34c:	b913      	cbnz	r3, e354 <xQueueGenericSend+0x130>
    e34e:	2800      	cmp	r0, #0
    e350:	d1f0      	bne.n	e334 <xQueueGenericSend+0x110>
    e352:	e7f7      	b.n	e344 <xQueueGenericSend+0x120>
    e354:	f104 0024 	add.w	r0, r4, #36	; 0x24
    e358:	4b20      	ldr	r3, [pc, #128]	; (e3dc <xQueueGenericSend+0x1b8>)
    e35a:	4798      	blx	r3
    e35c:	2800      	cmp	r0, #0
    e35e:	d1e9      	bne.n	e334 <xQueueGenericSend+0x110>
    e360:	e7f0      	b.n	e344 <xQueueGenericSend+0x120>
    e362:	6bc2      	ldr	r2, [r0, #60]	; 0x3c
    e364:	2a01      	cmp	r2, #1
    e366:	f43f af6a 	beq.w	e23e <xQueueGenericSend+0x1a>
    e36a:	f04f 0380 	mov.w	r3, #128	; 0x80
    e36e:	f383 8811 	msr	BASEPRI, r3
    e372:	f3bf 8f6f 	isb	sy
    e376:	f3bf 8f4f 	dsb	sy
    e37a:	e7fe      	b.n	e37a <xQueueGenericSend+0x156>
    e37c:	6c02      	ldr	r2, [r0, #64]	; 0x40
    e37e:	2a00      	cmp	r2, #0
    e380:	f43f af5a 	beq.w	e238 <xQueueGenericSend+0x14>
    e384:	f04f 0380 	mov.w	r3, #128	; 0x80
    e388:	f383 8811 	msr	BASEPRI, r3
    e38c:	f3bf 8f6f 	isb	sy
    e390:	f3bf 8f4f 	dsb	sy
    e394:	e7fe      	b.n	e394 <xQueueGenericSend+0x170>
    e396:	f04f 0380 	mov.w	r3, #128	; 0x80
    e39a:	f383 8811 	msr	BASEPRI, r3
    e39e:	f3bf 8f6f 	isb	sy
    e3a2:	f3bf 8f4f 	dsb	sy
    e3a6:	e7fe      	b.n	e3a6 <xQueueGenericSend+0x182>
    e3a8:	4620      	mov	r0, r4
    e3aa:	4b06      	ldr	r3, [pc, #24]	; (e3c4 <xQueueGenericSend+0x1a0>)
    e3ac:	4798      	blx	r3
    e3ae:	4b06      	ldr	r3, [pc, #24]	; (e3c8 <xQueueGenericSend+0x1a4>)
    e3b0:	4798      	blx	r3
    e3b2:	2000      	movs	r0, #0
    e3b4:	e7af      	b.n	e316 <xQueueGenericSend+0xf2>
    e3b6:	bf00      	nop
    e3b8:	0000f27d 	.word	0x0000f27d
    e3bc:	0000dc59 	.word	0x0000dc59
    e3c0:	0000f131 	.word	0x0000f131
    e3c4:	0000e07d 	.word	0x0000e07d
    e3c8:	0000ee2d 	.word	0x0000ee2d
    e3cc:	0000f01d 	.word	0x0000f01d
    e3d0:	e000ed04 	.word	0xe000ed04
    e3d4:	0000df49 	.word	0x0000df49
    e3d8:	0000dffd 	.word	0x0000dffd
    e3dc:	0000f0a1 	.word	0x0000f0a1
    e3e0:	0000dc15 	.word	0x0000dc15
    e3e4:	0000f11d 	.word	0x0000f11d
    e3e8:	0000ecd1 	.word	0x0000ecd1

0000e3ec <xQueueGenericSendFromISR>:
    e3ec:	e92d 43f8 	stmdb	sp!, {r3, r4, r5, r6, r7, r8, r9, lr}
    e3f0:	b1f0      	cbz	r0, e430 <xQueueGenericSendFromISR+0x44>
    e3f2:	2900      	cmp	r1, #0
    e3f4:	d041      	beq.n	e47a <xQueueGenericSendFromISR+0x8e>
    e3f6:	2b02      	cmp	r3, #2
    e3f8:	d033      	beq.n	e462 <xQueueGenericSendFromISR+0x76>
    e3fa:	461f      	mov	r7, r3
    e3fc:	4b31      	ldr	r3, [pc, #196]	; (e4c4 <xQueueGenericSendFromISR+0xd8>)
    e3fe:	4604      	mov	r4, r0
    e400:	4690      	mov	r8, r2
    e402:	4689      	mov	r9, r1
    e404:	4798      	blx	r3
    e406:	f3ef 8611 	mrs	r6, BASEPRI
    e40a:	f04f 0380 	mov.w	r3, #128	; 0x80
    e40e:	f383 8811 	msr	BASEPRI, r3
    e412:	f3bf 8f6f 	isb	sy
    e416:	f3bf 8f4f 	dsb	sy
    e41a:	6ba2      	ldr	r2, [r4, #56]	; 0x38
    e41c:	6be3      	ldr	r3, [r4, #60]	; 0x3c
    e41e:	429a      	cmp	r2, r3
    e420:	d30f      	bcc.n	e442 <xQueueGenericSendFromISR+0x56>
    e422:	2f02      	cmp	r7, #2
    e424:	d00d      	beq.n	e442 <xQueueGenericSendFromISR+0x56>
    e426:	2000      	movs	r0, #0
    e428:	f386 8811 	msr	BASEPRI, r6
    e42c:	e8bd 83f8 	ldmia.w	sp!, {r3, r4, r5, r6, r7, r8, r9, pc}
    e430:	f04f 0380 	mov.w	r3, #128	; 0x80
    e434:	f383 8811 	msr	BASEPRI, r3
    e438:	f3bf 8f6f 	isb	sy
    e43c:	f3bf 8f4f 	dsb	sy
    e440:	e7fe      	b.n	e440 <xQueueGenericSendFromISR+0x54>
    e442:	f894 5045 	ldrb.w	r5, [r4, #69]	; 0x45
    e446:	4b20      	ldr	r3, [pc, #128]	; (e4c8 <xQueueGenericSendFromISR+0xdc>)
    e448:	4649      	mov	r1, r9
    e44a:	b26d      	sxtb	r5, r5
    e44c:	463a      	mov	r2, r7
    e44e:	4620      	mov	r0, r4
    e450:	4798      	blx	r3
    e452:	1c6b      	adds	r3, r5, #1
    e454:	d01d      	beq.n	e492 <xQueueGenericSendFromISR+0xa6>
    e456:	1c6b      	adds	r3, r5, #1
    e458:	b25b      	sxtb	r3, r3
    e45a:	f884 3045 	strb.w	r3, [r4, #69]	; 0x45
    e45e:	2001      	movs	r0, #1
    e460:	e7e2      	b.n	e428 <xQueueGenericSendFromISR+0x3c>
    e462:	6bc4      	ldr	r4, [r0, #60]	; 0x3c
    e464:	2c01      	cmp	r4, #1
    e466:	d0c8      	beq.n	e3fa <xQueueGenericSendFromISR+0xe>
    e468:	f04f 0380 	mov.w	r3, #128	; 0x80
    e46c:	f383 8811 	msr	BASEPRI, r3
    e470:	f3bf 8f6f 	isb	sy
    e474:	f3bf 8f4f 	dsb	sy
    e478:	e7fe      	b.n	e478 <xQueueGenericSendFromISR+0x8c>
    e47a:	6c04      	ldr	r4, [r0, #64]	; 0x40
    e47c:	2c00      	cmp	r4, #0
    e47e:	d0ba      	beq.n	e3f6 <xQueueGenericSendFromISR+0xa>
    e480:	f04f 0380 	mov.w	r3, #128	; 0x80
    e484:	f383 8811 	msr	BASEPRI, r3
    e488:	f3bf 8f6f 	isb	sy
    e48c:	f3bf 8f4f 	dsb	sy
    e490:	e7fe      	b.n	e490 <xQueueGenericSendFromISR+0xa4>
    e492:	6ca3      	ldr	r3, [r4, #72]	; 0x48
    e494:	b163      	cbz	r3, e4b0 <xQueueGenericSendFromISR+0xc4>
    e496:	4639      	mov	r1, r7
    e498:	4620      	mov	r0, r4
    e49a:	4b0c      	ldr	r3, [pc, #48]	; (e4cc <xQueueGenericSendFromISR+0xe0>)
    e49c:	4798      	blx	r3
    e49e:	2800      	cmp	r0, #0
    e4a0:	d0dd      	beq.n	e45e <xQueueGenericSendFromISR+0x72>
    e4a2:	f1b8 0f00 	cmp.w	r8, #0
    e4a6:	d0da      	beq.n	e45e <xQueueGenericSendFromISR+0x72>
    e4a8:	2001      	movs	r0, #1
    e4aa:	f8c8 0000 	str.w	r0, [r8]
    e4ae:	e7bb      	b.n	e428 <xQueueGenericSendFromISR+0x3c>
    e4b0:	6a63      	ldr	r3, [r4, #36]	; 0x24
    e4b2:	2b00      	cmp	r3, #0
    e4b4:	d0d3      	beq.n	e45e <xQueueGenericSendFromISR+0x72>
    e4b6:	f104 0024 	add.w	r0, r4, #36	; 0x24
    e4ba:	4b05      	ldr	r3, [pc, #20]	; (e4d0 <xQueueGenericSendFromISR+0xe4>)
    e4bc:	4798      	blx	r3
    e4be:	2800      	cmp	r0, #0
    e4c0:	d1ef      	bne.n	e4a2 <xQueueGenericSendFromISR+0xb6>
    e4c2:	e7cc      	b.n	e45e <xQueueGenericSendFromISR+0x72>
    e4c4:	0000de61 	.word	0x0000de61
    e4c8:	0000df49 	.word	0x0000df49
    e4cc:	0000dffd 	.word	0x0000dffd
    e4d0:	0000f0a1 	.word	0x0000f0a1

0000e4d4 <xQueueGiveFromISR>:
    e4d4:	2800      	cmp	r0, #0
    e4d6:	d02f      	beq.n	e538 <xQueueGiveFromISR+0x64>
    e4d8:	6c03      	ldr	r3, [r0, #64]	; 0x40
    e4da:	b143      	cbz	r3, e4ee <xQueueGiveFromISR+0x1a>
    e4dc:	f04f 0380 	mov.w	r3, #128	; 0x80
    e4e0:	f383 8811 	msr	BASEPRI, r3
    e4e4:	f3bf 8f6f 	isb	sy
    e4e8:	f3bf 8f4f 	dsb	sy
    e4ec:	e7fe      	b.n	e4ec <xQueueGiveFromISR+0x18>
    e4ee:	6803      	ldr	r3, [r0, #0]
    e4f0:	2b00      	cmp	r3, #0
    e4f2:	d039      	beq.n	e568 <xQueueGiveFromISR+0x94>
    e4f4:	b570      	push	{r4, r5, r6, lr}
    e4f6:	4b27      	ldr	r3, [pc, #156]	; (e594 <xQueueGiveFromISR+0xc0>)
    e4f8:	4604      	mov	r4, r0
    e4fa:	460e      	mov	r6, r1
    e4fc:	4798      	blx	r3
    e4fe:	f3ef 8511 	mrs	r5, BASEPRI
    e502:	f04f 0380 	mov.w	r3, #128	; 0x80
    e506:	f383 8811 	msr	BASEPRI, r3
    e50a:	f3bf 8f6f 	isb	sy
    e50e:	f3bf 8f4f 	dsb	sy
    e512:	6ba2      	ldr	r2, [r4, #56]	; 0x38
    e514:	6be3      	ldr	r3, [r4, #60]	; 0x3c
    e516:	429a      	cmp	r2, r3
    e518:	d224      	bcs.n	e564 <xQueueGiveFromISR+0x90>
    e51a:	f894 3045 	ldrb.w	r3, [r4, #69]	; 0x45
    e51e:	3201      	adds	r2, #1
    e520:	b25b      	sxtb	r3, r3
    e522:	63a2      	str	r2, [r4, #56]	; 0x38
    e524:	1c5a      	adds	r2, r3, #1
    e526:	d010      	beq.n	e54a <xQueueGiveFromISR+0x76>
    e528:	3301      	adds	r3, #1
    e52a:	b25b      	sxtb	r3, r3
    e52c:	f884 3045 	strb.w	r3, [r4, #69]	; 0x45
    e530:	2001      	movs	r0, #1
    e532:	f385 8811 	msr	BASEPRI, r5
    e536:	bd70      	pop	{r4, r5, r6, pc}
    e538:	f04f 0380 	mov.w	r3, #128	; 0x80
    e53c:	f383 8811 	msr	BASEPRI, r3
    e540:	f3bf 8f6f 	isb	sy
    e544:	f3bf 8f4f 	dsb	sy
    e548:	e7fe      	b.n	e548 <xQueueGiveFromISR+0x74>
    e54a:	6ca3      	ldr	r3, [r4, #72]	; 0x48
    e54c:	b1c3      	cbz	r3, e580 <xQueueGiveFromISR+0xac>
    e54e:	4620      	mov	r0, r4
    e550:	2100      	movs	r1, #0
    e552:	4b11      	ldr	r3, [pc, #68]	; (e598 <xQueueGiveFromISR+0xc4>)
    e554:	4798      	blx	r3
    e556:	2800      	cmp	r0, #0
    e558:	d0ea      	beq.n	e530 <xQueueGiveFromISR+0x5c>
    e55a:	2e00      	cmp	r6, #0
    e55c:	d0e8      	beq.n	e530 <xQueueGiveFromISR+0x5c>
    e55e:	2001      	movs	r0, #1
    e560:	6030      	str	r0, [r6, #0]
    e562:	e7e6      	b.n	e532 <xQueueGiveFromISR+0x5e>
    e564:	2000      	movs	r0, #0
    e566:	e7e4      	b.n	e532 <xQueueGiveFromISR+0x5e>
    e568:	6843      	ldr	r3, [r0, #4]
    e56a:	2b00      	cmp	r3, #0
    e56c:	d0c2      	beq.n	e4f4 <xQueueGiveFromISR+0x20>
    e56e:	f04f 0380 	mov.w	r3, #128	; 0x80
    e572:	f383 8811 	msr	BASEPRI, r3
    e576:	f3bf 8f6f 	isb	sy
    e57a:	f3bf 8f4f 	dsb	sy
    e57e:	e7fe      	b.n	e57e <xQueueGiveFromISR+0xaa>
    e580:	6a63      	ldr	r3, [r4, #36]	; 0x24
    e582:	2b00      	cmp	r3, #0
    e584:	d0d4      	beq.n	e530 <xQueueGiveFromISR+0x5c>
    e586:	f104 0024 	add.w	r0, r4, #36	; 0x24
    e58a:	4b04      	ldr	r3, [pc, #16]	; (e59c <xQueueGiveFromISR+0xc8>)
    e58c:	4798      	blx	r3
    e58e:	2800      	cmp	r0, #0
    e590:	d1e3      	bne.n	e55a <xQueueGiveFromISR+0x86>
    e592:	e7cd      	b.n	e530 <xQueueGiveFromISR+0x5c>
    e594:	0000de61 	.word	0x0000de61
    e598:	0000dffd 	.word	0x0000dffd
    e59c:	0000f0a1 	.word	0x0000f0a1

0000e5a0 <xQueueReceive>:
    e5a0:	e92d 4ff0 	stmdb	sp!, {r4, r5, r6, r7, r8, r9, sl, fp, lr}
    e5a4:	b085      	sub	sp, #20
    e5a6:	9201      	str	r2, [sp, #4]
    e5a8:	2800      	cmp	r0, #0
    e5aa:	d07e      	beq.n	e6aa <xQueueReceive+0x10a>
    e5ac:	2900      	cmp	r1, #0
    e5ae:	f000 808a 	beq.w	e6c6 <xQueueReceive+0x126>
    e5b2:	4b53      	ldr	r3, [pc, #332]	; (e700 <xQueueReceive+0x160>)
    e5b4:	4604      	mov	r4, r0
    e5b6:	4688      	mov	r8, r1
    e5b8:	4798      	blx	r3
    e5ba:	b950      	cbnz	r0, e5d2 <xQueueReceive+0x32>
    e5bc:	9e01      	ldr	r6, [sp, #4]
    e5be:	b14e      	cbz	r6, e5d4 <xQueueReceive+0x34>
    e5c0:	f04f 0380 	mov.w	r3, #128	; 0x80
    e5c4:	f383 8811 	msr	BASEPRI, r3
    e5c8:	f3bf 8f6f 	isb	sy
    e5cc:	f3bf 8f4f 	dsb	sy
    e5d0:	e7fe      	b.n	e5d0 <xQueueReceive+0x30>
    e5d2:	2600      	movs	r6, #0
    e5d4:	4f4b      	ldr	r7, [pc, #300]	; (e704 <xQueueReceive+0x164>)
    e5d6:	4d4c      	ldr	r5, [pc, #304]	; (e708 <xQueueReceive+0x168>)
    e5d8:	f8df b14c 	ldr.w	fp, [pc, #332]	; e728 <xQueueReceive+0x188>
    e5dc:	f8df a14c 	ldr.w	sl, [pc, #332]	; e72c <xQueueReceive+0x18c>
    e5e0:	f8df 9140 	ldr.w	r9, [pc, #320]	; e724 <xQueueReceive+0x184>
    e5e4:	47b8      	blx	r7
    e5e6:	6ba3      	ldr	r3, [r4, #56]	; 0x38
    e5e8:	2b00      	cmp	r3, #0
    e5ea:	d139      	bne.n	e660 <xQueueReceive+0xc0>
    e5ec:	9b01      	ldr	r3, [sp, #4]
    e5ee:	2b00      	cmp	r3, #0
    e5f0:	d064      	beq.n	e6bc <xQueueReceive+0x11c>
    e5f2:	2e00      	cmp	r6, #0
    e5f4:	d055      	beq.n	e6a2 <xQueueReceive+0x102>
    e5f6:	ae02      	add	r6, sp, #8
    e5f8:	47a8      	blx	r5
    e5fa:	47d0      	blx	sl
    e5fc:	47b8      	blx	r7
    e5fe:	f894 3044 	ldrb.w	r3, [r4, #68]	; 0x44
    e602:	2bff      	cmp	r3, #255	; 0xff
    e604:	bf04      	itt	eq
    e606:	2300      	moveq	r3, #0
    e608:	f884 3044 	strbeq.w	r3, [r4, #68]	; 0x44
    e60c:	f894 3045 	ldrb.w	r3, [r4, #69]	; 0x45
    e610:	2bff      	cmp	r3, #255	; 0xff
    e612:	bf04      	itt	eq
    e614:	2300      	moveq	r3, #0
    e616:	f884 3045 	strbeq.w	r3, [r4, #69]	; 0x45
    e61a:	47a8      	blx	r5
    e61c:	4630      	mov	r0, r6
    e61e:	a901      	add	r1, sp, #4
    e620:	4b3a      	ldr	r3, [pc, #232]	; (e70c <xQueueReceive+0x16c>)
    e622:	4798      	blx	r3
    e624:	2800      	cmp	r0, #0
    e626:	d131      	bne.n	e68c <xQueueReceive+0xec>
    e628:	47b8      	blx	r7
    e62a:	6ba3      	ldr	r3, [r4, #56]	; 0x38
    e62c:	bb33      	cbnz	r3, e67c <xQueueReceive+0xdc>
    e62e:	47a8      	blx	r5
    e630:	9901      	ldr	r1, [sp, #4]
    e632:	4b37      	ldr	r3, [pc, #220]	; (e710 <xQueueReceive+0x170>)
    e634:	f104 0024 	add.w	r0, r4, #36	; 0x24
    e638:	4798      	blx	r3
    e63a:	4b36      	ldr	r3, [pc, #216]	; (e714 <xQueueReceive+0x174>)
    e63c:	4620      	mov	r0, r4
    e63e:	4798      	blx	r3
    e640:	4b35      	ldr	r3, [pc, #212]	; (e718 <xQueueReceive+0x178>)
    e642:	4798      	blx	r3
    e644:	b938      	cbnz	r0, e656 <xQueueReceive+0xb6>
    e646:	f04f 5380 	mov.w	r3, #268435456	; 0x10000000
    e64a:	f8c9 3000 	str.w	r3, [r9]
    e64e:	f3bf 8f4f 	dsb	sy
    e652:	f3bf 8f6f 	isb	sy
    e656:	2601      	movs	r6, #1
    e658:	47b8      	blx	r7
    e65a:	6ba3      	ldr	r3, [r4, #56]	; 0x38
    e65c:	2b00      	cmp	r3, #0
    e65e:	d0c5      	beq.n	e5ec <xQueueReceive+0x4c>
    e660:	4641      	mov	r1, r8
    e662:	4620      	mov	r0, r4
    e664:	4a2d      	ldr	r2, [pc, #180]	; (e71c <xQueueReceive+0x17c>)
    e666:	9300      	str	r3, [sp, #0]
    e668:	4790      	blx	r2
    e66a:	9b00      	ldr	r3, [sp, #0]
    e66c:	3b01      	subs	r3, #1
    e66e:	63a3      	str	r3, [r4, #56]	; 0x38
    e670:	6923      	ldr	r3, [r4, #16]
    e672:	2b00      	cmp	r3, #0
    e674:	d134      	bne.n	e6e0 <xQueueReceive+0x140>
    e676:	47a8      	blx	r5
    e678:	2001      	movs	r0, #1
    e67a:	e021      	b.n	e6c0 <xQueueReceive+0x120>
    e67c:	47a8      	blx	r5
    e67e:	4620      	mov	r0, r4
    e680:	4b24      	ldr	r3, [pc, #144]	; (e714 <xQueueReceive+0x174>)
    e682:	4798      	blx	r3
    e684:	4b24      	ldr	r3, [pc, #144]	; (e718 <xQueueReceive+0x178>)
    e686:	4798      	blx	r3
    e688:	2601      	movs	r6, #1
    e68a:	e7e5      	b.n	e658 <xQueueReceive+0xb8>
    e68c:	4620      	mov	r0, r4
    e68e:	4b21      	ldr	r3, [pc, #132]	; (e714 <xQueueReceive+0x174>)
    e690:	4798      	blx	r3
    e692:	4b21      	ldr	r3, [pc, #132]	; (e718 <xQueueReceive+0x178>)
    e694:	4798      	blx	r3
    e696:	47b8      	blx	r7
    e698:	6ba3      	ldr	r3, [r4, #56]	; 0x38
    e69a:	b17b      	cbz	r3, e6bc <xQueueReceive+0x11c>
    e69c:	47a8      	blx	r5
    e69e:	2601      	movs	r6, #1
    e6a0:	e7da      	b.n	e658 <xQueueReceive+0xb8>
    e6a2:	ae02      	add	r6, sp, #8
    e6a4:	4630      	mov	r0, r6
    e6a6:	47d8      	blx	fp
    e6a8:	e7a6      	b.n	e5f8 <xQueueReceive+0x58>
    e6aa:	f04f 0380 	mov.w	r3, #128	; 0x80
    e6ae:	f383 8811 	msr	BASEPRI, r3
    e6b2:	f3bf 8f6f 	isb	sy
    e6b6:	f3bf 8f4f 	dsb	sy
    e6ba:	e7fe      	b.n	e6ba <xQueueReceive+0x11a>
    e6bc:	47a8      	blx	r5
    e6be:	2000      	movs	r0, #0
    e6c0:	b005      	add	sp, #20
    e6c2:	e8bd 8ff0 	ldmia.w	sp!, {r4, r5, r6, r7, r8, r9, sl, fp, pc}
    e6c6:	6c03      	ldr	r3, [r0, #64]	; 0x40
    e6c8:	2b00      	cmp	r3, #0
    e6ca:	f43f af72 	beq.w	e5b2 <xQueueReceive+0x12>
    e6ce:	f04f 0380 	mov.w	r3, #128	; 0x80
    e6d2:	f383 8811 	msr	BASEPRI, r3
    e6d6:	f3bf 8f6f 	isb	sy
    e6da:	f3bf 8f4f 	dsb	sy
    e6de:	e7fe      	b.n	e6de <xQueueReceive+0x13e>
    e6e0:	f104 0010 	add.w	r0, r4, #16
    e6e4:	4b0e      	ldr	r3, [pc, #56]	; (e720 <xQueueReceive+0x180>)
    e6e6:	4798      	blx	r3
    e6e8:	2800      	cmp	r0, #0
    e6ea:	d0c4      	beq.n	e676 <xQueueReceive+0xd6>
    e6ec:	4b0d      	ldr	r3, [pc, #52]	; (e724 <xQueueReceive+0x184>)
    e6ee:	f04f 5280 	mov.w	r2, #268435456	; 0x10000000
    e6f2:	601a      	str	r2, [r3, #0]
    e6f4:	f3bf 8f4f 	dsb	sy
    e6f8:	f3bf 8f6f 	isb	sy
    e6fc:	e7bb      	b.n	e676 <xQueueReceive+0xd6>
    e6fe:	bf00      	nop
    e700:	0000f27d 	.word	0x0000f27d
    e704:	0000dc15 	.word	0x0000dc15
    e708:	0000dc59 	.word	0x0000dc59
    e70c:	0000f131 	.word	0x0000f131
    e710:	0000f01d 	.word	0x0000f01d
    e714:	0000e07d 	.word	0x0000e07d
    e718:	0000ee2d 	.word	0x0000ee2d
    e71c:	0000dfbd 	.word	0x0000dfbd
    e720:	0000f0a1 	.word	0x0000f0a1
    e724:	e000ed04 	.word	0xe000ed04
    e728:	0000f11d 	.word	0x0000f11d
    e72c:	0000ecd1 	.word	0x0000ecd1

0000e730 <xQueueSemaphoreTake>:
    e730:	e92d 4ff0 	stmdb	sp!, {r4, r5, r6, r7, r8, r9, sl, fp, lr}
    e734:	b085      	sub	sp, #20
    e736:	9101      	str	r1, [sp, #4]
    e738:	b150      	cbz	r0, e750 <xQueueSemaphoreTake+0x20>
    e73a:	6c05      	ldr	r5, [r0, #64]	; 0x40
    e73c:	b18d      	cbz	r5, e762 <xQueueSemaphoreTake+0x32>
    e73e:	f04f 0380 	mov.w	r3, #128	; 0x80
    e742:	f383 8811 	msr	BASEPRI, r3
    e746:	f3bf 8f6f 	isb	sy
    e74a:	f3bf 8f4f 	dsb	sy
    e74e:	e7fe      	b.n	e74e <xQueueSemaphoreTake+0x1e>
    e750:	f04f 0380 	mov.w	r3, #128	; 0x80
    e754:	f383 8811 	msr	BASEPRI, r3
    e758:	f3bf 8f6f 	isb	sy
    e75c:	f3bf 8f4f 	dsb	sy
    e760:	e7fe      	b.n	e760 <xQueueSemaphoreTake+0x30>
    e762:	4b58      	ldr	r3, [pc, #352]	; (e8c4 <xQueueSemaphoreTake+0x194>)
    e764:	4604      	mov	r4, r0
    e766:	4798      	blx	r3
    e768:	b918      	cbnz	r0, e772 <xQueueSemaphoreTake+0x42>
    e76a:	9d01      	ldr	r5, [sp, #4]
    e76c:	2d00      	cmp	r5, #0
    e76e:	f040 8090 	bne.w	e892 <xQueueSemaphoreTake+0x162>
    e772:	46ab      	mov	fp, r5
    e774:	4f54      	ldr	r7, [pc, #336]	; (e8c8 <xQueueSemaphoreTake+0x198>)
    e776:	4e55      	ldr	r6, [pc, #340]	; (e8cc <xQueueSemaphoreTake+0x19c>)
    e778:	f8df a178 	ldr.w	sl, [pc, #376]	; e8f4 <xQueueSemaphoreTake+0x1c4>
    e77c:	f8df 9178 	ldr.w	r9, [pc, #376]	; e8f8 <xQueueSemaphoreTake+0x1c8>
    e780:	f8df 816c 	ldr.w	r8, [pc, #364]	; e8f0 <xQueueSemaphoreTake+0x1c0>
    e784:	e01c      	b.n	e7c0 <xQueueSemaphoreTake+0x90>
    e786:	47b8      	blx	r7
    e788:	6ba3      	ldr	r3, [r4, #56]	; 0x38
    e78a:	2b00      	cmp	r3, #0
    e78c:	d146      	bne.n	e81c <xQueueSemaphoreTake+0xec>
    e78e:	47b0      	blx	r6
    e790:	6823      	ldr	r3, [r4, #0]
    e792:	2b00      	cmp	r3, #0
    e794:	d06a      	beq.n	e86c <xQueueSemaphoreTake+0x13c>
    e796:	9901      	ldr	r1, [sp, #4]
    e798:	4b4d      	ldr	r3, [pc, #308]	; (e8d0 <xQueueSemaphoreTake+0x1a0>)
    e79a:	f104 0024 	add.w	r0, r4, #36	; 0x24
    e79e:	4798      	blx	r3
    e7a0:	4b4c      	ldr	r3, [pc, #304]	; (e8d4 <xQueueSemaphoreTake+0x1a4>)
    e7a2:	4620      	mov	r0, r4
    e7a4:	4798      	blx	r3
    e7a6:	4b4c      	ldr	r3, [pc, #304]	; (e8d8 <xQueueSemaphoreTake+0x1a8>)
    e7a8:	4798      	blx	r3
    e7aa:	b938      	cbnz	r0, e7bc <xQueueSemaphoreTake+0x8c>
    e7ac:	f04f 5380 	mov.w	r3, #268435456	; 0x10000000
    e7b0:	f8c8 3000 	str.w	r3, [r8]
    e7b4:	f3bf 8f4f 	dsb	sy
    e7b8:	f3bf 8f6f 	isb	sy
    e7bc:	f04f 0b01 	mov.w	fp, #1
    e7c0:	47b8      	blx	r7
    e7c2:	6ba3      	ldr	r3, [r4, #56]	; 0x38
    e7c4:	2b00      	cmp	r3, #0
    e7c6:	d158      	bne.n	e87a <xQueueSemaphoreTake+0x14a>
    e7c8:	9b01      	ldr	r3, [sp, #4]
    e7ca:	2b00      	cmp	r3, #0
    e7cc:	d032      	beq.n	e834 <xQueueSemaphoreTake+0x104>
    e7ce:	f1bb 0f00 	cmp.w	fp, #0
    e7d2:	d02a      	beq.n	e82a <xQueueSemaphoreTake+0xfa>
    e7d4:	f10d 0b08 	add.w	fp, sp, #8
    e7d8:	47b0      	blx	r6
    e7da:	47c8      	blx	r9
    e7dc:	47b8      	blx	r7
    e7de:	f894 3044 	ldrb.w	r3, [r4, #68]	; 0x44
    e7e2:	2bff      	cmp	r3, #255	; 0xff
    e7e4:	bf04      	itt	eq
    e7e6:	2300      	moveq	r3, #0
    e7e8:	f884 3044 	strbeq.w	r3, [r4, #68]	; 0x44
    e7ec:	f894 3045 	ldrb.w	r3, [r4, #69]	; 0x45
    e7f0:	2bff      	cmp	r3, #255	; 0xff
    e7f2:	bf04      	itt	eq
    e7f4:	2300      	moveq	r3, #0
    e7f6:	f884 3045 	strbeq.w	r3, [r4, #69]	; 0x45
    e7fa:	47b0      	blx	r6
    e7fc:	4658      	mov	r0, fp
    e7fe:	a901      	add	r1, sp, #4
    e800:	4b36      	ldr	r3, [pc, #216]	; (e8dc <xQueueSemaphoreTake+0x1ac>)
    e802:	4798      	blx	r3
    e804:	2800      	cmp	r0, #0
    e806:	d0be      	beq.n	e786 <xQueueSemaphoreTake+0x56>
    e808:	4620      	mov	r0, r4
    e80a:	4b32      	ldr	r3, [pc, #200]	; (e8d4 <xQueueSemaphoreTake+0x1a4>)
    e80c:	4798      	blx	r3
    e80e:	4b32      	ldr	r3, [pc, #200]	; (e8d8 <xQueueSemaphoreTake+0x1a8>)
    e810:	4798      	blx	r3
    e812:	47b8      	blx	r7
    e814:	6ba3      	ldr	r3, [r4, #56]	; 0x38
    e816:	b1bb      	cbz	r3, e848 <xQueueSemaphoreTake+0x118>
    e818:	47b0      	blx	r6
    e81a:	e7cf      	b.n	e7bc <xQueueSemaphoreTake+0x8c>
    e81c:	47b0      	blx	r6
    e81e:	4620      	mov	r0, r4
    e820:	4b2c      	ldr	r3, [pc, #176]	; (e8d4 <xQueueSemaphoreTake+0x1a4>)
    e822:	4798      	blx	r3
    e824:	4b2c      	ldr	r3, [pc, #176]	; (e8d8 <xQueueSemaphoreTake+0x1a8>)
    e826:	4798      	blx	r3
    e828:	e7c8      	b.n	e7bc <xQueueSemaphoreTake+0x8c>
    e82a:	f10d 0b08 	add.w	fp, sp, #8
    e82e:	4658      	mov	r0, fp
    e830:	47d0      	blx	sl
    e832:	e7d1      	b.n	e7d8 <xQueueSemaphoreTake+0xa8>
    e834:	b1ad      	cbz	r5, e862 <xQueueSemaphoreTake+0x132>
    e836:	f04f 0380 	mov.w	r3, #128	; 0x80
    e83a:	f383 8811 	msr	BASEPRI, r3
    e83e:	f3bf 8f6f 	isb	sy
    e842:	f3bf 8f4f 	dsb	sy
    e846:	e7fe      	b.n	e846 <xQueueSemaphoreTake+0x116>
    e848:	47b0      	blx	r6
    e84a:	b15d      	cbz	r5, e864 <xQueueSemaphoreTake+0x134>
    e84c:	47b8      	blx	r7
    e84e:	6a61      	ldr	r1, [r4, #36]	; 0x24
    e850:	b119      	cbz	r1, e85a <xQueueSemaphoreTake+0x12a>
    e852:	6b23      	ldr	r3, [r4, #48]	; 0x30
    e854:	6819      	ldr	r1, [r3, #0]
    e856:	f1c1 0110 	rsb	r1, r1, #16
    e85a:	6860      	ldr	r0, [r4, #4]
    e85c:	4b20      	ldr	r3, [pc, #128]	; (e8e0 <xQueueSemaphoreTake+0x1b0>)
    e85e:	4798      	blx	r3
    e860:	2500      	movs	r5, #0
    e862:	47b0      	blx	r6
    e864:	4628      	mov	r0, r5
    e866:	b005      	add	sp, #20
    e868:	e8bd 8ff0 	ldmia.w	sp!, {r4, r5, r6, r7, r8, r9, sl, fp, pc}
    e86c:	47b8      	blx	r7
    e86e:	6860      	ldr	r0, [r4, #4]
    e870:	4b1c      	ldr	r3, [pc, #112]	; (e8e4 <xQueueSemaphoreTake+0x1b4>)
    e872:	4798      	blx	r3
    e874:	4605      	mov	r5, r0
    e876:	47b0      	blx	r6
    e878:	e78d      	b.n	e796 <xQueueSemaphoreTake+0x66>
    e87a:	6822      	ldr	r2, [r4, #0]
    e87c:	3b01      	subs	r3, #1
    e87e:	63a3      	str	r3, [r4, #56]	; 0x38
    e880:	b912      	cbnz	r2, e888 <xQueueSemaphoreTake+0x158>
    e882:	4b19      	ldr	r3, [pc, #100]	; (e8e8 <xQueueSemaphoreTake+0x1b8>)
    e884:	4798      	blx	r3
    e886:	6060      	str	r0, [r4, #4]
    e888:	6923      	ldr	r3, [r4, #16]
    e88a:	b95b      	cbnz	r3, e8a4 <xQueueSemaphoreTake+0x174>
    e88c:	47b0      	blx	r6
    e88e:	2501      	movs	r5, #1
    e890:	e7e8      	b.n	e864 <xQueueSemaphoreTake+0x134>
    e892:	f04f 0380 	mov.w	r3, #128	; 0x80
    e896:	f383 8811 	msr	BASEPRI, r3
    e89a:	f3bf 8f6f 	isb	sy
    e89e:	f3bf 8f4f 	dsb	sy
    e8a2:	e7fe      	b.n	e8a2 <xQueueSemaphoreTake+0x172>
    e8a4:	f104 0010 	add.w	r0, r4, #16
    e8a8:	4b10      	ldr	r3, [pc, #64]	; (e8ec <xQueueSemaphoreTake+0x1bc>)
    e8aa:	4798      	blx	r3
    e8ac:	2800      	cmp	r0, #0
    e8ae:	d0ed      	beq.n	e88c <xQueueSemaphoreTake+0x15c>
    e8b0:	4b0f      	ldr	r3, [pc, #60]	; (e8f0 <xQueueSemaphoreTake+0x1c0>)
    e8b2:	f04f 5280 	mov.w	r2, #268435456	; 0x10000000
    e8b6:	601a      	str	r2, [r3, #0]
    e8b8:	f3bf 8f4f 	dsb	sy
    e8bc:	f3bf 8f6f 	isb	sy
    e8c0:	e7e4      	b.n	e88c <xQueueSemaphoreTake+0x15c>
    e8c2:	bf00      	nop
    e8c4:	0000f27d 	.word	0x0000f27d
    e8c8:	0000dc15 	.word	0x0000dc15
    e8cc:	0000dc59 	.word	0x0000dc59
    e8d0:	0000f01d 	.word	0x0000f01d
    e8d4:	0000e07d 	.word	0x0000e07d
    e8d8:	0000ee2d 	.word	0x0000ee2d
    e8dc:	0000f131 	.word	0x0000f131
    e8e0:	0000f3b9 	.word	0x0000f3b9
    e8e4:	0000f29d 	.word	0x0000f29d
    e8e8:	0000f459 	.word	0x0000f459
    e8ec:	0000f0a1 	.word	0x0000f0a1
    e8f0:	e000ed04 	.word	0xe000ed04
    e8f4:	0000f11d 	.word	0x0000f11d
    e8f8:	0000ecd1 	.word	0x0000ecd1

0000e8fc <vQueueWaitForMessageRestricted>:
    e8fc:	b570      	push	{r4, r5, r6, lr}
    e8fe:	4604      	mov	r4, r0
    e900:	4b10      	ldr	r3, [pc, #64]	; (e944 <vQueueWaitForMessageRestricted+0x48>)
    e902:	460d      	mov	r5, r1
    e904:	4616      	mov	r6, r2
    e906:	4798      	blx	r3
    e908:	f894 3044 	ldrb.w	r3, [r4, #68]	; 0x44
    e90c:	2bff      	cmp	r3, #255	; 0xff
    e90e:	bf04      	itt	eq
    e910:	2300      	moveq	r3, #0
    e912:	f884 3044 	strbeq.w	r3, [r4, #68]	; 0x44
    e916:	f894 3045 	ldrb.w	r3, [r4, #69]	; 0x45
    e91a:	2bff      	cmp	r3, #255	; 0xff
    e91c:	bf04      	itt	eq
    e91e:	2300      	moveq	r3, #0
    e920:	f884 3045 	strbeq.w	r3, [r4, #69]	; 0x45
    e924:	4b08      	ldr	r3, [pc, #32]	; (e948 <vQueueWaitForMessageRestricted+0x4c>)
    e926:	4798      	blx	r3
    e928:	6ba3      	ldr	r3, [r4, #56]	; 0x38
    e92a:	b92b      	cbnz	r3, e938 <vQueueWaitForMessageRestricted+0x3c>
    e92c:	4632      	mov	r2, r6
    e92e:	4629      	mov	r1, r5
    e930:	f104 0024 	add.w	r0, r4, #36	; 0x24
    e934:	4b05      	ldr	r3, [pc, #20]	; (e94c <vQueueWaitForMessageRestricted+0x50>)
    e936:	4798      	blx	r3
    e938:	4620      	mov	r0, r4
    e93a:	4b05      	ldr	r3, [pc, #20]	; (e950 <vQueueWaitForMessageRestricted+0x54>)
    e93c:	e8bd 4070 	ldmia.w	sp!, {r4, r5, r6, lr}
    e940:	4718      	bx	r3
    e942:	bf00      	nop
    e944:	0000dc15 	.word	0x0000dc15
    e948:	0000dc59 	.word	0x0000dc59
    e94c:	0000f059 	.word	0x0000f059
    e950:	0000e07d 	.word	0x0000e07d

0000e954 <prvIdleTask>:
    e954:	b580      	push	{r7, lr}
    e956:	4d07      	ldr	r5, [pc, #28]	; (e974 <prvIdleTask+0x20>)
    e958:	4c07      	ldr	r4, [pc, #28]	; (e978 <prvIdleTask+0x24>)
    e95a:	4f08      	ldr	r7, [pc, #32]	; (e97c <prvIdleTask+0x28>)
    e95c:	f04f 5680 	mov.w	r6, #268435456	; 0x10000000
    e960:	682b      	ldr	r3, [r5, #0]
    e962:	2b01      	cmp	r3, #1
    e964:	d904      	bls.n	e970 <prvIdleTask+0x1c>
    e966:	603e      	str	r6, [r7, #0]
    e968:	f3bf 8f4f 	dsb	sy
    e96c:	f3bf 8f6f 	isb	sy
    e970:	47a0      	blx	r4
    e972:	e7f5      	b.n	e960 <prvIdleTask+0xc>
    e974:	2000d8e0 	.word	0x2000d8e0
    e978:	0000c51d 	.word	0x0000c51d
    e97c:	e000ed04 	.word	0xe000ed04

0000e980 <prvResetNextTaskUnblockTime.part.1>:
    e980:	4b04      	ldr	r3, [pc, #16]	; (e994 <prvResetNextTaskUnblockTime.part.1+0x14>)
    e982:	f8d3 2140 	ldr.w	r2, [r3, #320]	; 0x140
    e986:	68d2      	ldr	r2, [r2, #12]
    e988:	68d2      	ldr	r2, [r2, #12]
    e98a:	6852      	ldr	r2, [r2, #4]
    e98c:	f8c3 2144 	str.w	r2, [r3, #324]	; 0x144
    e990:	4770      	bx	lr
    e992:	bf00      	nop
    e994:	2000d8e0 	.word	0x2000d8e0

0000e998 <prvAddCurrentTaskToDelayedList>:
    e998:	e92d 41f0 	stmdb	sp!, {r4, r5, r6, r7, r8, lr}
    e99c:	4c1a      	ldr	r4, [pc, #104]	; (ea08 <prvAddCurrentTaskToDelayedList+0x70>)
    e99e:	4b1b      	ldr	r3, [pc, #108]	; (ea0c <prvAddCurrentTaskToDelayedList+0x74>)
    e9a0:	f8d4 6148 	ldr.w	r6, [r4, #328]	; 0x148
    e9a4:	f8d4 214c 	ldr.w	r2, [r4, #332]	; 0x14c
    e9a8:	4605      	mov	r5, r0
    e9aa:	1d10      	adds	r0, r2, #4
    e9ac:	460f      	mov	r7, r1
    e9ae:	4798      	blx	r3
    e9b0:	1c6b      	adds	r3, r5, #1
    e9b2:	d01d      	beq.n	e9f0 <prvAddCurrentTaskToDelayedList+0x58>
    e9b4:	4435      	add	r5, r6
    e9b6:	f8d4 314c 	ldr.w	r3, [r4, #332]	; 0x14c
    e9ba:	42ae      	cmp	r6, r5
    e9bc:	605d      	str	r5, [r3, #4]
    e9be:	d80e      	bhi.n	e9de <prvAddCurrentTaskToDelayedList+0x46>
    e9c0:	f8d4 0140 	ldr.w	r0, [r4, #320]	; 0x140
    e9c4:	f8d4 114c 	ldr.w	r1, [r4, #332]	; 0x14c
    e9c8:	4b11      	ldr	r3, [pc, #68]	; (ea10 <prvAddCurrentTaskToDelayedList+0x78>)
    e9ca:	3104      	adds	r1, #4
    e9cc:	4798      	blx	r3
    e9ce:	f8d4 3144 	ldr.w	r3, [r4, #324]	; 0x144
    e9d2:	429d      	cmp	r5, r3
    e9d4:	bf38      	it	cc
    e9d6:	f8c4 5144 	strcc.w	r5, [r4, #324]	; 0x144
    e9da:	e8bd 81f0 	ldmia.w	sp!, {r4, r5, r6, r7, r8, pc}
    e9de:	f8d4 0164 	ldr.w	r0, [r4, #356]	; 0x164
    e9e2:	f8d4 114c 	ldr.w	r1, [r4, #332]	; 0x14c
    e9e6:	4b0a      	ldr	r3, [pc, #40]	; (ea10 <prvAddCurrentTaskToDelayedList+0x78>)
    e9e8:	3104      	adds	r1, #4
    e9ea:	e8bd 41f0 	ldmia.w	sp!, {r4, r5, r6, r7, r8, lr}
    e9ee:	4718      	bx	r3
    e9f0:	2f00      	cmp	r7, #0
    e9f2:	d0df      	beq.n	e9b4 <prvAddCurrentTaskToDelayedList+0x1c>
    e9f4:	f8d4 114c 	ldr.w	r1, [r4, #332]	; 0x14c
    e9f8:	4b06      	ldr	r3, [pc, #24]	; (ea14 <prvAddCurrentTaskToDelayedList+0x7c>)
    e9fa:	f504 70a8 	add.w	r0, r4, #336	; 0x150
    e9fe:	3104      	adds	r1, #4
    ea00:	e8bd 41f0 	ldmia.w	sp!, {r4, r5, r6, r7, r8, lr}
    ea04:	4718      	bx	r3
    ea06:	bf00      	nop
    ea08:	2000d8e0 	.word	0x2000d8e0
    ea0c:	0000db21 	.word	0x0000db21
    ea10:	0000daed 	.word	0x0000daed
    ea14:	0000dacd 	.word	0x0000dacd

0000ea18 <eTaskGetState.part.4>:
    ea18:	f04f 0380 	mov.w	r3, #128	; 0x80
    ea1c:	f383 8811 	msr	BASEPRI, r3
    ea20:	f3bf 8f6f 	isb	sy
    ea24:	f3bf 8f4f 	dsb	sy
    ea28:	e7fe      	b.n	ea28 <eTaskGetState.part.4+0x10>
    ea2a:	bf00      	nop

0000ea2c <xTaskCreate>:
    ea2c:	e92d 4ff8 	stmdb	sp!, {r3, r4, r5, r6, r7, r8, r9, sl, fp, lr}
    ea30:	ea4f 0882 	mov.w	r8, r2, lsl #2
    ea34:	4606      	mov	r6, r0
    ea36:	4c61      	ldr	r4, [pc, #388]	; (ebbc <xTaskCreate+0x190>)
    ea38:	4640      	mov	r0, r8
    ea3a:	4689      	mov	r9, r1
    ea3c:	461f      	mov	r7, r3
    ea3e:	47a0      	blx	r4
    ea40:	2800      	cmp	r0, #0
    ea42:	f000 808e 	beq.w	eb62 <xTaskCreate+0x136>
    ea46:	4605      	mov	r5, r0
    ea48:	2054      	movs	r0, #84	; 0x54
    ea4a:	47a0      	blx	r4
    ea4c:	4604      	mov	r4, r0
    ea4e:	2800      	cmp	r0, #0
    ea50:	f000 80ad 	beq.w	ebae <xTaskCreate+0x182>
    ea54:	4642      	mov	r2, r8
    ea56:	6305      	str	r5, [r0, #48]	; 0x30
    ea58:	21a5      	movs	r1, #165	; 0xa5
    ea5a:	4b59      	ldr	r3, [pc, #356]	; (ebc0 <xTaskCreate+0x194>)
    ea5c:	4628      	mov	r0, r5
    ea5e:	4798      	blx	r3
    ea60:	6b23      	ldr	r3, [r4, #48]	; 0x30
    ea62:	f1a8 0804 	sub.w	r8, r8, #4
    ea66:	4498      	add	r8, r3
    ea68:	f028 0807 	bic.w	r8, r8, #7
    ea6c:	f109 33ff 	add.w	r3, r9, #4294967295
    ea70:	f109 0107 	add.w	r1, r9, #7
    ea74:	f104 0234 	add.w	r2, r4, #52	; 0x34
    ea78:	7858      	ldrb	r0, [r3, #1]
    ea7a:	f802 0b01 	strb.w	r0, [r2], #1
    ea7e:	f813 0f01 	ldrb.w	r0, [r3, #1]!
    ea82:	b108      	cbz	r0, ea88 <xTaskCreate+0x5c>
    ea84:	428b      	cmp	r3, r1
    ea86:	d1f7      	bne.n	ea78 <xTaskCreate+0x4c>
    ea88:	9b0a      	ldr	r3, [sp, #40]	; 0x28
    ea8a:	4d4e      	ldr	r5, [pc, #312]	; (ebc4 <xTaskCreate+0x198>)
    ea8c:	2b0f      	cmp	r3, #15
    ea8e:	bf28      	it	cs
    ea90:	230f      	movcs	r3, #15
    ea92:	f04f 0b00 	mov.w	fp, #0
    ea96:	f104 0a04 	add.w	sl, r4, #4
    ea9a:	62e3      	str	r3, [r4, #44]	; 0x2c
    ea9c:	6463      	str	r3, [r4, #68]	; 0x44
    ea9e:	4650      	mov	r0, sl
    eaa0:	f884 b03b 	strb.w	fp, [r4, #59]	; 0x3b
    eaa4:	f8c4 b048 	str.w	fp, [r4, #72]	; 0x48
    eaa8:	4699      	mov	r9, r3
    eaaa:	47a8      	blx	r5
    eaac:	f104 0018 	add.w	r0, r4, #24
    eab0:	47a8      	blx	r5
    eab2:	f1c9 0310 	rsb	r3, r9, #16
    eab6:	61a3      	str	r3, [r4, #24]
    eab8:	f8c4 b04c 	str.w	fp, [r4, #76]	; 0x4c
    eabc:	4b42      	ldr	r3, [pc, #264]	; (ebc8 <xTaskCreate+0x19c>)
    eabe:	6124      	str	r4, [r4, #16]
    eac0:	f884 b050 	strb.w	fp, [r4, #80]	; 0x50
    eac4:	6264      	str	r4, [r4, #36]	; 0x24
    eac6:	463a      	mov	r2, r7
    eac8:	4631      	mov	r1, r6
    eaca:	4640      	mov	r0, r8
    eacc:	4798      	blx	r3
    eace:	9b0b      	ldr	r3, [sp, #44]	; 0x2c
    ead0:	6020      	str	r0, [r4, #0]
    ead2:	b103      	cbz	r3, ead6 <xTaskCreate+0xaa>
    ead4:	601c      	str	r4, [r3, #0]
    ead6:	4d3d      	ldr	r5, [pc, #244]	; (ebcc <xTaskCreate+0x1a0>)
    ead8:	4b3d      	ldr	r3, [pc, #244]	; (ebd0 <xTaskCreate+0x1a4>)
    eada:	4798      	blx	r3
    eadc:	f8d5 317c 	ldr.w	r3, [r5, #380]	; 0x17c
    eae0:	3301      	adds	r3, #1
    eae2:	f8c5 317c 	str.w	r3, [r5, #380]	; 0x17c
    eae6:	f8d5 314c 	ldr.w	r3, [r5, #332]	; 0x14c
    eaea:	2b00      	cmp	r3, #0
    eaec:	d03d      	beq.n	eb6a <xTaskCreate+0x13e>
    eaee:	f8d5 31a8 	ldr.w	r3, [r5, #424]	; 0x1a8
    eaf2:	b36b      	cbz	r3, eb50 <xTaskCreate+0x124>
    eaf4:	6ae0      	ldr	r0, [r4, #44]	; 0x2c
    eaf6:	f8d5 21b0 	ldr.w	r2, [r5, #432]	; 0x1b0
    eafa:	f8d5 31ac 	ldr.w	r3, [r5, #428]	; 0x1ac
    eafe:	4282      	cmp	r2, r0
    eb00:	f103 0301 	add.w	r3, r3, #1
    eb04:	bf38      	it	cc
    eb06:	f8c5 01b0 	strcc.w	r0, [r5, #432]	; 0x1b0
    eb0a:	eb00 0080 	add.w	r0, r0, r0, lsl #2
    eb0e:	f8c5 31ac 	str.w	r3, [r5, #428]	; 0x1ac
    eb12:	63e3      	str	r3, [r4, #60]	; 0x3c
    eb14:	eb05 0080 	add.w	r0, r5, r0, lsl #2
    eb18:	4651      	mov	r1, sl
    eb1a:	4b2e      	ldr	r3, [pc, #184]	; (ebd4 <xTaskCreate+0x1a8>)
    eb1c:	4798      	blx	r3
    eb1e:	4b2e      	ldr	r3, [pc, #184]	; (ebd8 <xTaskCreate+0x1ac>)
    eb20:	4798      	blx	r3
    eb22:	f8d5 31a8 	ldr.w	r3, [r5, #424]	; 0x1a8
    eb26:	b183      	cbz	r3, eb4a <xTaskCreate+0x11e>
    eb28:	f8d5 214c 	ldr.w	r2, [r5, #332]	; 0x14c
    eb2c:	6ae3      	ldr	r3, [r4, #44]	; 0x2c
    eb2e:	6ad2      	ldr	r2, [r2, #44]	; 0x2c
    eb30:	429a      	cmp	r2, r3
    eb32:	d20a      	bcs.n	eb4a <xTaskCreate+0x11e>
    eb34:	4b29      	ldr	r3, [pc, #164]	; (ebdc <xTaskCreate+0x1b0>)
    eb36:	f04f 5280 	mov.w	r2, #268435456	; 0x10000000
    eb3a:	601a      	str	r2, [r3, #0]
    eb3c:	f3bf 8f4f 	dsb	sy
    eb40:	f3bf 8f6f 	isb	sy
    eb44:	2001      	movs	r0, #1
    eb46:	e8bd 8ff8 	ldmia.w	sp!, {r3, r4, r5, r6, r7, r8, r9, sl, fp, pc}
    eb4a:	2001      	movs	r0, #1
    eb4c:	e8bd 8ff8 	ldmia.w	sp!, {r3, r4, r5, r6, r7, r8, r9, sl, fp, pc}
    eb50:	f8d5 314c 	ldr.w	r3, [r5, #332]	; 0x14c
    eb54:	6ae0      	ldr	r0, [r4, #44]	; 0x2c
    eb56:	6adb      	ldr	r3, [r3, #44]	; 0x2c
    eb58:	4283      	cmp	r3, r0
    eb5a:	bf98      	it	ls
    eb5c:	f8c5 414c 	strls.w	r4, [r5, #332]	; 0x14c
    eb60:	e7c9      	b.n	eaf6 <xTaskCreate+0xca>
    eb62:	f04f 30ff 	mov.w	r0, #4294967295
    eb66:	e8bd 8ff8 	ldmia.w	sp!, {r3, r4, r5, r6, r7, r8, r9, sl, fp, pc}
    eb6a:	f8c5 414c 	str.w	r4, [r5, #332]	; 0x14c
    eb6e:	f8d5 317c 	ldr.w	r3, [r5, #380]	; 0x17c
    eb72:	2b01      	cmp	r3, #1
    eb74:	d1be      	bne.n	eaf4 <xTaskCreate+0xc8>
    eb76:	4f1a      	ldr	r7, [pc, #104]	; (ebe0 <xTaskCreate+0x1b4>)
    eb78:	462e      	mov	r6, r5
    eb7a:	f505 78a0 	add.w	r8, r5, #320	; 0x140
    eb7e:	4630      	mov	r0, r6
    eb80:	3614      	adds	r6, #20
    eb82:	47b8      	blx	r7
    eb84:	45b0      	cmp	r8, r6
    eb86:	d1fa      	bne.n	eb7e <xTaskCreate+0x152>
    eb88:	4e16      	ldr	r6, [pc, #88]	; (ebe4 <xTaskCreate+0x1b8>)
    eb8a:	4630      	mov	r0, r6
    eb8c:	f106 0814 	add.w	r8, r6, #20
    eb90:	47b8      	blx	r7
    eb92:	4640      	mov	r0, r8
    eb94:	47b8      	blx	r7
    eb96:	f1a6 0018 	sub.w	r0, r6, #24
    eb9a:	47b8      	blx	r7
    eb9c:	f1a6 0030 	sub.w	r0, r6, #48	; 0x30
    eba0:	47b8      	blx	r7
    eba2:	f8c5 6140 	str.w	r6, [r5, #320]	; 0x140
    eba6:	6ae0      	ldr	r0, [r4, #44]	; 0x2c
    eba8:	f8c5 8164 	str.w	r8, [r5, #356]	; 0x164
    ebac:	e7a3      	b.n	eaf6 <xTaskCreate+0xca>
    ebae:	4628      	mov	r0, r5
    ebb0:	4b0d      	ldr	r3, [pc, #52]	; (ebe8 <xTaskCreate+0x1bc>)
    ebb2:	4798      	blx	r3
    ebb4:	f04f 30ff 	mov.w	r0, #4294967295
    ebb8:	e8bd 8ff8 	ldmia.w	sp!, {r3, r4, r5, r6, r7, r8, r9, sl, fp, pc}
    ebbc:	0000deb9 	.word	0x0000deb9
    ebc0:	00010a7f 	.word	0x00010a7f
    ebc4:	0000dac5 	.word	0x0000dac5
    ebc8:	0000dbc5 	.word	0x0000dbc5
    ebcc:	2000d8e0 	.word	0x2000d8e0
    ebd0:	0000dc15 	.word	0x0000dc15
    ebd4:	0000dacd 	.word	0x0000dacd
    ebd8:	0000dc59 	.word	0x0000dc59
    ebdc:	e000ed04 	.word	0xe000ed04
    ebe0:	0000daad 	.word	0x0000daad
    ebe4:	2000da60 	.word	0x2000da60
    ebe8:	0000df1d 	.word	0x0000df1d

0000ebec <eTaskGetState>:
    ebec:	b570      	push	{r4, r5, r6, lr}
    ebee:	b310      	cbz	r0, ec36 <eTaskGetState+0x4a>
    ebf0:	4c12      	ldr	r4, [pc, #72]	; (ec3c <eTaskGetState+0x50>)
    ebf2:	f8d4 314c 	ldr.w	r3, [r4, #332]	; 0x14c
    ebf6:	4298      	cmp	r0, r3
    ebf8:	4605      	mov	r5, r0
    ebfa:	d01a      	beq.n	ec32 <eTaskGetState+0x46>
    ebfc:	4b10      	ldr	r3, [pc, #64]	; (ec40 <eTaskGetState+0x54>)
    ebfe:	4798      	blx	r3
    ec00:	4b10      	ldr	r3, [pc, #64]	; (ec44 <eTaskGetState+0x58>)
    ec02:	696e      	ldr	r6, [r5, #20]
    ec04:	4798      	blx	r3
    ec06:	f8d4 3140 	ldr.w	r3, [r4, #320]	; 0x140
    ec0a:	429e      	cmp	r6, r3
    ec0c:	d009      	beq.n	ec22 <eTaskGetState+0x36>
    ec0e:	f8d4 3164 	ldr.w	r3, [r4, #356]	; 0x164
    ec12:	429e      	cmp	r6, r3
    ec14:	d005      	beq.n	ec22 <eTaskGetState+0x36>
    ec16:	f504 74a8 	add.w	r4, r4, #336	; 0x150
    ec1a:	42a6      	cmp	r6, r4
    ec1c:	d003      	beq.n	ec26 <eTaskGetState+0x3a>
    ec1e:	2001      	movs	r0, #1
    ec20:	bd70      	pop	{r4, r5, r6, pc}
    ec22:	2002      	movs	r0, #2
    ec24:	bd70      	pop	{r4, r5, r6, pc}
    ec26:	6aab      	ldr	r3, [r5, #40]	; 0x28
    ec28:	2b00      	cmp	r3, #0
    ec2a:	bf14      	ite	ne
    ec2c:	2002      	movne	r0, #2
    ec2e:	2003      	moveq	r0, #3
    ec30:	bd70      	pop	{r4, r5, r6, pc}
    ec32:	2000      	movs	r0, #0
    ec34:	bd70      	pop	{r4, r5, r6, pc}
    ec36:	4b04      	ldr	r3, [pc, #16]	; (ec48 <eTaskGetState+0x5c>)
    ec38:	4798      	blx	r3
    ec3a:	bf00      	nop
    ec3c:	2000d8e0 	.word	0x2000d8e0
    ec40:	0000dc15 	.word	0x0000dc15
    ec44:	0000dc59 	.word	0x0000dc59
    ec48:	0000ea19 	.word	0x0000ea19

0000ec4c <vTaskStartScheduler>:
    ec4c:	b570      	push	{r4, r5, r6, lr}
    ec4e:	4c1a      	ldr	r4, [pc, #104]	; (ecb8 <vTaskStartScheduler+0x6c>)
    ec50:	491a      	ldr	r1, [pc, #104]	; (ecbc <vTaskStartScheduler+0x70>)
    ec52:	481b      	ldr	r0, [pc, #108]	; (ecc0 <vTaskStartScheduler+0x74>)
    ec54:	4e1b      	ldr	r6, [pc, #108]	; (ecc4 <vTaskStartScheduler+0x78>)
    ec56:	b082      	sub	sp, #8
    ec58:	f504 73dc 	add.w	r3, r4, #440	; 0x1b8
    ec5c:	2500      	movs	r5, #0
    ec5e:	9301      	str	r3, [sp, #4]
    ec60:	9500      	str	r5, [sp, #0]
    ec62:	462b      	mov	r3, r5
    ec64:	2260      	movs	r2, #96	; 0x60
    ec66:	47b0      	blx	r6
    ec68:	2801      	cmp	r0, #1
    ec6a:	d00c      	beq.n	ec86 <vTaskStartScheduler+0x3a>
    ec6c:	3001      	adds	r0, #1
    ec6e:	d001      	beq.n	ec74 <vTaskStartScheduler+0x28>
    ec70:	b002      	add	sp, #8
    ec72:	bd70      	pop	{r4, r5, r6, pc}
    ec74:	f04f 0380 	mov.w	r3, #128	; 0x80
    ec78:	f383 8811 	msr	BASEPRI, r3
    ec7c:	f3bf 8f6f 	isb	sy
    ec80:	f3bf 8f4f 	dsb	sy
    ec84:	e7fe      	b.n	ec84 <vTaskStartScheduler+0x38>
    ec86:	4b10      	ldr	r3, [pc, #64]	; (ecc8 <vTaskStartScheduler+0x7c>)
    ec88:	4798      	blx	r3
    ec8a:	2801      	cmp	r0, #1
    ec8c:	d1ee      	bne.n	ec6c <vTaskStartScheduler+0x20>
    ec8e:	f04f 0380 	mov.w	r3, #128	; 0x80
    ec92:	f383 8811 	msr	BASEPRI, r3
    ec96:	f3bf 8f6f 	isb	sy
    ec9a:	f3bf 8f4f 	dsb	sy
    ec9e:	4b0b      	ldr	r3, [pc, #44]	; (eccc <vTaskStartScheduler+0x80>)
    eca0:	f04f 32ff 	mov.w	r2, #4294967295
    eca4:	f8c4 2144 	str.w	r2, [r4, #324]	; 0x144
    eca8:	f8c4 01a8 	str.w	r0, [r4, #424]	; 0x1a8
    ecac:	f8c4 5148 	str.w	r5, [r4, #328]	; 0x148
    ecb0:	b002      	add	sp, #8
    ecb2:	e8bd 4070 	ldmia.w	sp!, {r4, r5, r6, lr}
    ecb6:	4718      	bx	r3
    ecb8:	2000d8e0 	.word	0x2000d8e0
    ecbc:	00012480 	.word	0x00012480
    ecc0:	0000e955 	.word	0x0000e955
    ecc4:	0000ea2d 	.word	0x0000ea2d
    ecc8:	0000f50d 	.word	0x0000f50d
    eccc:	0000dd41 	.word	0x0000dd41

0000ecd0 <vTaskSuspendAll>:
    ecd0:	4a03      	ldr	r2, [pc, #12]	; (ece0 <vTaskSuspendAll+0x10>)
    ecd2:	f8d2 31b4 	ldr.w	r3, [r2, #436]	; 0x1b4
    ecd6:	3301      	adds	r3, #1
    ecd8:	f8c2 31b4 	str.w	r3, [r2, #436]	; 0x1b4
    ecdc:	4770      	bx	lr
    ecde:	bf00      	nop
    ece0:	2000d8e0 	.word	0x2000d8e0

0000ece4 <xTaskGetTickCount>:
    ece4:	4b01      	ldr	r3, [pc, #4]	; (ecec <xTaskGetTickCount+0x8>)
    ece6:	f8d3 0148 	ldr.w	r0, [r3, #328]	; 0x148
    ecea:	4770      	bx	lr
    ecec:	2000d8e0 	.word	0x2000d8e0

0000ecf0 <xTaskGetTickCountFromISR>:
    ecf0:	b508      	push	{r3, lr}
    ecf2:	4b03      	ldr	r3, [pc, #12]	; (ed00 <xTaskGetTickCountFromISR+0x10>)
    ecf4:	4798      	blx	r3
    ecf6:	4b03      	ldr	r3, [pc, #12]	; (ed04 <xTaskGetTickCountFromISR+0x14>)
    ecf8:	f8d3 0148 	ldr.w	r0, [r3, #328]	; 0x148
    ecfc:	bd08      	pop	{r3, pc}
    ecfe:	bf00      	nop
    ed00:	0000de61 	.word	0x0000de61
    ed04:	2000d8e0 	.word	0x2000d8e0

0000ed08 <xTaskIncrementTick>:
    ed08:	e92d 47f0 	stmdb	sp!, {r4, r5, r6, r7, r8, r9, sl, lr}
    ed0c:	4c43      	ldr	r4, [pc, #268]	; (ee1c <xTaskIncrementTick+0x114>)
    ed0e:	f8d4 31b4 	ldr.w	r3, [r4, #436]	; 0x1b4
    ed12:	2b00      	cmp	r3, #0
    ed14:	d148      	bne.n	eda8 <xTaskIncrementTick+0xa0>
    ed16:	f8d4 6148 	ldr.w	r6, [r4, #328]	; 0x148
    ed1a:	3601      	adds	r6, #1
    ed1c:	f8c4 6148 	str.w	r6, [r4, #328]	; 0x148
    ed20:	2e00      	cmp	r6, #0
    ed22:	d04f      	beq.n	edc4 <xTaskIncrementTick+0xbc>
    ed24:	f8d4 3144 	ldr.w	r3, [r4, #324]	; 0x144
    ed28:	429e      	cmp	r6, r3
    ed2a:	d358      	bcc.n	edde <xTaskIncrementTick+0xd6>
    ed2c:	f8df 80f4 	ldr.w	r8, [pc, #244]	; ee24 <xTaskIncrementTick+0x11c>
    ed30:	f8df 90f4 	ldr.w	r9, [pc, #244]	; ee28 <xTaskIncrementTick+0x120>
    ed34:	2500      	movs	r5, #0
    ed36:	e023      	b.n	ed80 <xTaskIncrementTick+0x78>
    ed38:	f8d4 3140 	ldr.w	r3, [r4, #320]	; 0x140
    ed3c:	68db      	ldr	r3, [r3, #12]
    ed3e:	68df      	ldr	r7, [r3, #12]
    ed40:	687b      	ldr	r3, [r7, #4]
    ed42:	f107 0a04 	add.w	sl, r7, #4
    ed46:	429e      	cmp	r6, r3
    ed48:	4650      	mov	r0, sl
    ed4a:	d35e      	bcc.n	ee0a <xTaskIncrementTick+0x102>
    ed4c:	47c0      	blx	r8
    ed4e:	6abb      	ldr	r3, [r7, #40]	; 0x28
    ed50:	f107 0018 	add.w	r0, r7, #24
    ed54:	b103      	cbz	r3, ed58 <xTaskIncrementTick+0x50>
    ed56:	47c0      	blx	r8
    ed58:	6afb      	ldr	r3, [r7, #44]	; 0x2c
    ed5a:	f8d4 21b0 	ldr.w	r2, [r4, #432]	; 0x1b0
    ed5e:	eb03 0083 	add.w	r0, r3, r3, lsl #2
    ed62:	4293      	cmp	r3, r2
    ed64:	4651      	mov	r1, sl
    ed66:	eb04 0080 	add.w	r0, r4, r0, lsl #2
    ed6a:	bf88      	it	hi
    ed6c:	f8c4 31b0 	strhi.w	r3, [r4, #432]	; 0x1b0
    ed70:	47c8      	blx	r9
    ed72:	f8d4 314c 	ldr.w	r3, [r4, #332]	; 0x14c
    ed76:	6afa      	ldr	r2, [r7, #44]	; 0x2c
    ed78:	6adb      	ldr	r3, [r3, #44]	; 0x2c
    ed7a:	429a      	cmp	r2, r3
    ed7c:	bf28      	it	cs
    ed7e:	2501      	movcs	r5, #1
    ed80:	f8d4 3140 	ldr.w	r3, [r4, #320]	; 0x140
    ed84:	681b      	ldr	r3, [r3, #0]
    ed86:	2b00      	cmp	r3, #0
    ed88:	d1d6      	bne.n	ed38 <xTaskIncrementTick+0x30>
    ed8a:	f04f 33ff 	mov.w	r3, #4294967295
    ed8e:	f8c4 3144 	str.w	r3, [r4, #324]	; 0x144
    ed92:	f8d4 314c 	ldr.w	r3, [r4, #332]	; 0x14c
    ed96:	6adb      	ldr	r3, [r3, #44]	; 0x2c
    ed98:	eb03 0383 	add.w	r3, r3, r3, lsl #2
    ed9c:	009b      	lsls	r3, r3, #2
    ed9e:	58e3      	ldr	r3, [r4, r3]
    eda0:	2b02      	cmp	r3, #2
    eda2:	bf28      	it	cs
    eda4:	2501      	movcs	r5, #1
    eda6:	e005      	b.n	edb4 <xTaskIncrementTick+0xac>
    eda8:	f8d4 31c0 	ldr.w	r3, [r4, #448]	; 0x1c0
    edac:	3301      	adds	r3, #1
    edae:	f8c4 31c0 	str.w	r3, [r4, #448]	; 0x1c0
    edb2:	2500      	movs	r5, #0
    edb4:	f8d4 31c4 	ldr.w	r3, [r4, #452]	; 0x1c4
    edb8:	2b00      	cmp	r3, #0
    edba:	bf18      	it	ne
    edbc:	2501      	movne	r5, #1
    edbe:	4628      	mov	r0, r5
    edc0:	e8bd 87f0 	ldmia.w	sp!, {r4, r5, r6, r7, r8, r9, sl, pc}
    edc4:	f8d4 3140 	ldr.w	r3, [r4, #320]	; 0x140
    edc8:	681b      	ldr	r3, [r3, #0]
    edca:	b153      	cbz	r3, ede2 <xTaskIncrementTick+0xda>
    edcc:	f04f 0380 	mov.w	r3, #128	; 0x80
    edd0:	f383 8811 	msr	BASEPRI, r3
    edd4:	f3bf 8f6f 	isb	sy
    edd8:	f3bf 8f4f 	dsb	sy
    eddc:	e7fe      	b.n	eddc <xTaskIncrementTick+0xd4>
    edde:	2500      	movs	r5, #0
    ede0:	e7d7      	b.n	ed92 <xTaskIncrementTick+0x8a>
    ede2:	f8d4 3140 	ldr.w	r3, [r4, #320]	; 0x140
    ede6:	f8d4 2164 	ldr.w	r2, [r4, #356]	; 0x164
    edea:	f8c4 2140 	str.w	r2, [r4, #320]	; 0x140
    edee:	f8c4 3164 	str.w	r3, [r4, #356]	; 0x164
    edf2:	f8d4 31bc 	ldr.w	r3, [r4, #444]	; 0x1bc
    edf6:	3301      	adds	r3, #1
    edf8:	f8c4 31bc 	str.w	r3, [r4, #444]	; 0x1bc
    edfc:	f8d4 3140 	ldr.w	r3, [r4, #320]	; 0x140
    ee00:	681b      	ldr	r3, [r3, #0]
    ee02:	b12b      	cbz	r3, ee10 <xTaskIncrementTick+0x108>
    ee04:	4b06      	ldr	r3, [pc, #24]	; (ee20 <xTaskIncrementTick+0x118>)
    ee06:	4798      	blx	r3
    ee08:	e78c      	b.n	ed24 <xTaskIncrementTick+0x1c>
    ee0a:	f8c4 3144 	str.w	r3, [r4, #324]	; 0x144
    ee0e:	e7c0      	b.n	ed92 <xTaskIncrementTick+0x8a>
    ee10:	f04f 33ff 	mov.w	r3, #4294967295
    ee14:	f8c4 3144 	str.w	r3, [r4, #324]	; 0x144
    ee18:	e784      	b.n	ed24 <xTaskIncrementTick+0x1c>
    ee1a:	bf00      	nop
    ee1c:	2000d8e0 	.word	0x2000d8e0
    ee20:	0000e981 	.word	0x0000e981
    ee24:	0000db21 	.word	0x0000db21
    ee28:	0000dacd 	.word	0x0000dacd

0000ee2c <xTaskResumeAll>:
    ee2c:	e92d 43f8 	stmdb	sp!, {r3, r4, r5, r6, r7, r8, r9, lr}
    ee30:	4c37      	ldr	r4, [pc, #220]	; (ef10 <xTaskResumeAll+0xe4>)
    ee32:	f8d4 31b4 	ldr.w	r3, [r4, #436]	; 0x1b4
    ee36:	b943      	cbnz	r3, ee4a <xTaskResumeAll+0x1e>
    ee38:	f04f 0380 	mov.w	r3, #128	; 0x80
    ee3c:	f383 8811 	msr	BASEPRI, r3
    ee40:	f3bf 8f6f 	isb	sy
    ee44:	f3bf 8f4f 	dsb	sy
    ee48:	e7fe      	b.n	ee48 <xTaskResumeAll+0x1c>
    ee4a:	4b32      	ldr	r3, [pc, #200]	; (ef14 <xTaskResumeAll+0xe8>)
    ee4c:	4798      	blx	r3
    ee4e:	f8d4 31b4 	ldr.w	r3, [r4, #436]	; 0x1b4
    ee52:	3b01      	subs	r3, #1
    ee54:	f8c4 31b4 	str.w	r3, [r4, #436]	; 0x1b4
    ee58:	f8d4 51b4 	ldr.w	r5, [r4, #436]	; 0x1b4
    ee5c:	2d00      	cmp	r5, #0
    ee5e:	d14e      	bne.n	eefe <xTaskResumeAll+0xd2>
    ee60:	f8d4 317c 	ldr.w	r3, [r4, #380]	; 0x17c
    ee64:	2b00      	cmp	r3, #0
    ee66:	d04a      	beq.n	eefe <xTaskResumeAll+0xd2>
    ee68:	4e2b      	ldr	r6, [pc, #172]	; (ef18 <xTaskResumeAll+0xec>)
    ee6a:	f8df 90c0 	ldr.w	r9, [pc, #192]	; ef2c <xTaskResumeAll+0x100>
    ee6e:	f04f 0801 	mov.w	r8, #1
    ee72:	e01d      	b.n	eeb0 <xTaskResumeAll+0x84>
    ee74:	f8d4 3174 	ldr.w	r3, [r4, #372]	; 0x174
    ee78:	68dd      	ldr	r5, [r3, #12]
    ee7a:	1d2f      	adds	r7, r5, #4
    ee7c:	f105 0018 	add.w	r0, r5, #24
    ee80:	47b0      	blx	r6
    ee82:	4638      	mov	r0, r7
    ee84:	47b0      	blx	r6
    ee86:	6aeb      	ldr	r3, [r5, #44]	; 0x2c
    ee88:	f8d4 21b0 	ldr.w	r2, [r4, #432]	; 0x1b0
    ee8c:	eb03 0083 	add.w	r0, r3, r3, lsl #2
    ee90:	4293      	cmp	r3, r2
    ee92:	4639      	mov	r1, r7
    ee94:	eb04 0080 	add.w	r0, r4, r0, lsl #2
    ee98:	bf88      	it	hi
    ee9a:	f8c4 31b0 	strhi.w	r3, [r4, #432]	; 0x1b0
    ee9e:	47c8      	blx	r9
    eea0:	f8d4 314c 	ldr.w	r3, [r4, #332]	; 0x14c
    eea4:	6aea      	ldr	r2, [r5, #44]	; 0x2c
    eea6:	6adb      	ldr	r3, [r3, #44]	; 0x2c
    eea8:	429a      	cmp	r2, r3
    eeaa:	bf28      	it	cs
    eeac:	f8c4 81c4 	strcs.w	r8, [r4, #452]	; 0x1c4
    eeb0:	f8d4 3168 	ldr.w	r3, [r4, #360]	; 0x168
    eeb4:	2b00      	cmp	r3, #0
    eeb6:	d1dd      	bne.n	ee74 <xTaskResumeAll+0x48>
    eeb8:	b13d      	cbz	r5, eeca <xTaskResumeAll+0x9e>
    eeba:	f8d4 3140 	ldr.w	r3, [r4, #320]	; 0x140
    eebe:	681b      	ldr	r3, [r3, #0]
    eec0:	bb1b      	cbnz	r3, ef0a <xTaskResumeAll+0xde>
    eec2:	f04f 33ff 	mov.w	r3, #4294967295
    eec6:	f8c4 3144 	str.w	r3, [r4, #324]	; 0x144
    eeca:	f8d4 51c0 	ldr.w	r5, [r4, #448]	; 0x1c0
    eece:	b14d      	cbz	r5, eee4 <xTaskResumeAll+0xb8>
    eed0:	4f12      	ldr	r7, [pc, #72]	; (ef1c <xTaskResumeAll+0xf0>)
    eed2:	2601      	movs	r6, #1
    eed4:	47b8      	blx	r7
    eed6:	b108      	cbz	r0, eedc <xTaskResumeAll+0xb0>
    eed8:	f8c4 61c4 	str.w	r6, [r4, #452]	; 0x1c4
    eedc:	3d01      	subs	r5, #1
    eede:	d1f9      	bne.n	eed4 <xTaskResumeAll+0xa8>
    eee0:	f8c4 51c0 	str.w	r5, [r4, #448]	; 0x1c0
    eee4:	f8d4 31c4 	ldr.w	r3, [r4, #452]	; 0x1c4
    eee8:	b14b      	cbz	r3, eefe <xTaskResumeAll+0xd2>
    eeea:	4b0d      	ldr	r3, [pc, #52]	; (ef20 <xTaskResumeAll+0xf4>)
    eeec:	f04f 5280 	mov.w	r2, #268435456	; 0x10000000
    eef0:	601a      	str	r2, [r3, #0]
    eef2:	f3bf 8f4f 	dsb	sy
    eef6:	f3bf 8f6f 	isb	sy
    eefa:	2401      	movs	r4, #1
    eefc:	e000      	b.n	ef00 <xTaskResumeAll+0xd4>
    eefe:	2400      	movs	r4, #0
    ef00:	4b08      	ldr	r3, [pc, #32]	; (ef24 <xTaskResumeAll+0xf8>)
    ef02:	4798      	blx	r3
    ef04:	4620      	mov	r0, r4
    ef06:	e8bd 83f8 	ldmia.w	sp!, {r3, r4, r5, r6, r7, r8, r9, pc}
    ef0a:	4b07      	ldr	r3, [pc, #28]	; (ef28 <xTaskResumeAll+0xfc>)
    ef0c:	4798      	blx	r3
    ef0e:	e7dc      	b.n	eeca <xTaskResumeAll+0x9e>
    ef10:	2000d8e0 	.word	0x2000d8e0
    ef14:	0000dc15 	.word	0x0000dc15
    ef18:	0000db21 	.word	0x0000db21
    ef1c:	0000ed09 	.word	0x0000ed09
    ef20:	e000ed04 	.word	0xe000ed04
    ef24:	0000dc59 	.word	0x0000dc59
    ef28:	0000e981 	.word	0x0000e981
    ef2c:	0000dacd 	.word	0x0000dacd

0000ef30 <vTaskDelay>:
    ef30:	b510      	push	{r4, lr}
    ef32:	b160      	cbz	r0, ef4e <vTaskDelay+0x1e>
    ef34:	4b10      	ldr	r3, [pc, #64]	; (ef78 <vTaskDelay+0x48>)
    ef36:	f8d3 11b4 	ldr.w	r1, [r3, #436]	; 0x1b4
    ef3a:	b189      	cbz	r1, ef60 <vTaskDelay+0x30>
    ef3c:	f04f 0380 	mov.w	r3, #128	; 0x80
    ef40:	f383 8811 	msr	BASEPRI, r3
    ef44:	f3bf 8f6f 	isb	sy
    ef48:	f3bf 8f4f 	dsb	sy
    ef4c:	e7fe      	b.n	ef4c <vTaskDelay+0x1c>
    ef4e:	4b0b      	ldr	r3, [pc, #44]	; (ef7c <vTaskDelay+0x4c>)
    ef50:	f04f 5280 	mov.w	r2, #268435456	; 0x10000000
    ef54:	601a      	str	r2, [r3, #0]
    ef56:	f3bf 8f4f 	dsb	sy
    ef5a:	f3bf 8f6f 	isb	sy
    ef5e:	bd10      	pop	{r4, pc}
    ef60:	f8d3 21b4 	ldr.w	r2, [r3, #436]	; 0x1b4
    ef64:	4c06      	ldr	r4, [pc, #24]	; (ef80 <vTaskDelay+0x50>)
    ef66:	3201      	adds	r2, #1
    ef68:	f8c3 21b4 	str.w	r2, [r3, #436]	; 0x1b4
    ef6c:	47a0      	blx	r4
    ef6e:	4b05      	ldr	r3, [pc, #20]	; (ef84 <vTaskDelay+0x54>)
    ef70:	4798      	blx	r3
    ef72:	2800      	cmp	r0, #0
    ef74:	d0eb      	beq.n	ef4e <vTaskDelay+0x1e>
    ef76:	bd10      	pop	{r4, pc}
    ef78:	2000d8e0 	.word	0x2000d8e0
    ef7c:	e000ed04 	.word	0xe000ed04
    ef80:	0000e999 	.word	0x0000e999
    ef84:	0000ee2d 	.word	0x0000ee2d

0000ef88 <vTaskSwitchContext>:
    ef88:	b510      	push	{r4, lr}
    ef8a:	4c22      	ldr	r4, [pc, #136]	; (f014 <vTaskSwitchContext+0x8c>)
    ef8c:	f8d4 31b4 	ldr.w	r3, [r4, #436]	; 0x1b4
    ef90:	2b00      	cmp	r3, #0
    ef92:	d13a      	bne.n	f00a <vTaskSwitchContext+0x82>
    ef94:	f8c4 31c4 	str.w	r3, [r4, #452]	; 0x1c4
    ef98:	f8d4 214c 	ldr.w	r2, [r4, #332]	; 0x14c
    ef9c:	f8d4 314c 	ldr.w	r3, [r4, #332]	; 0x14c
    efa0:	6812      	ldr	r2, [r2, #0]
    efa2:	6b1b      	ldr	r3, [r3, #48]	; 0x30
    efa4:	429a      	cmp	r2, r3
    efa6:	d806      	bhi.n	efb6 <vTaskSwitchContext+0x2e>
    efa8:	f8d4 014c 	ldr.w	r0, [r4, #332]	; 0x14c
    efac:	f8d4 114c 	ldr.w	r1, [r4, #332]	; 0x14c
    efb0:	4b19      	ldr	r3, [pc, #100]	; (f018 <vTaskSwitchContext+0x90>)
    efb2:	3134      	adds	r1, #52	; 0x34
    efb4:	4798      	blx	r3
    efb6:	f8d4 31b0 	ldr.w	r3, [r4, #432]	; 0x1b0
    efba:	009a      	lsls	r2, r3, #2
    efbc:	18d1      	adds	r1, r2, r3
    efbe:	0089      	lsls	r1, r1, #2
    efc0:	5861      	ldr	r1, [r4, r1]
    efc2:	b939      	cbnz	r1, efd4 <vTaskSwitchContext+0x4c>
    efc4:	b1c3      	cbz	r3, eff8 <vTaskSwitchContext+0x70>
    efc6:	3b01      	subs	r3, #1
    efc8:	009a      	lsls	r2, r3, #2
    efca:	18d1      	adds	r1, r2, r3
    efcc:	f854 1021 	ldr.w	r1, [r4, r1, lsl #2]
    efd0:	2900      	cmp	r1, #0
    efd2:	d0f7      	beq.n	efc4 <vTaskSwitchContext+0x3c>
    efd4:	441a      	add	r2, r3
    efd6:	0092      	lsls	r2, r2, #2
    efd8:	18a0      	adds	r0, r4, r2
    efda:	3208      	adds	r2, #8
    efdc:	6841      	ldr	r1, [r0, #4]
    efde:	6849      	ldr	r1, [r1, #4]
    efe0:	6041      	str	r1, [r0, #4]
    efe2:	4422      	add	r2, r4
    efe4:	4291      	cmp	r1, r2
    efe6:	bf04      	itt	eq
    efe8:	6849      	ldreq	r1, [r1, #4]
    efea:	6041      	streq	r1, [r0, #4]
    efec:	68ca      	ldr	r2, [r1, #12]
    efee:	f8c4 214c 	str.w	r2, [r4, #332]	; 0x14c
    eff2:	f8c4 31b0 	str.w	r3, [r4, #432]	; 0x1b0
    eff6:	bd10      	pop	{r4, pc}
    eff8:	f04f 0380 	mov.w	r3, #128	; 0x80
    effc:	f383 8811 	msr	BASEPRI, r3
    f000:	f3bf 8f6f 	isb	sy
    f004:	f3bf 8f4f 	dsb	sy
    f008:	e7fe      	b.n	f008 <vTaskSwitchContext+0x80>
    f00a:	2301      	movs	r3, #1
    f00c:	f8c4 31c4 	str.w	r3, [r4, #452]	; 0x1c4
    f010:	bd10      	pop	{r4, pc}
    f012:	bf00      	nop
    f014:	2000d8e0 	.word	0x2000d8e0
    f018:	0000c511 	.word	0x0000c511

0000f01c <vTaskPlaceOnEventList>:
    f01c:	b168      	cbz	r0, f03a <vTaskPlaceOnEventList+0x1e>
    f01e:	b510      	push	{r4, lr}
    f020:	4a0a      	ldr	r2, [pc, #40]	; (f04c <vTaskPlaceOnEventList+0x30>)
    f022:	4b0b      	ldr	r3, [pc, #44]	; (f050 <vTaskPlaceOnEventList+0x34>)
    f024:	460c      	mov	r4, r1
    f026:	f8d2 114c 	ldr.w	r1, [r2, #332]	; 0x14c
    f02a:	3118      	adds	r1, #24
    f02c:	4798      	blx	r3
    f02e:	4620      	mov	r0, r4
    f030:	2101      	movs	r1, #1
    f032:	4b08      	ldr	r3, [pc, #32]	; (f054 <vTaskPlaceOnEventList+0x38>)
    f034:	e8bd 4010 	ldmia.w	sp!, {r4, lr}
    f038:	4718      	bx	r3
    f03a:	f04f 0380 	mov.w	r3, #128	; 0x80
    f03e:	f383 8811 	msr	BASEPRI, r3
    f042:	f3bf 8f6f 	isb	sy
    f046:	f3bf 8f4f 	dsb	sy
    f04a:	e7fe      	b.n	f04a <vTaskPlaceOnEventList+0x2e>
    f04c:	2000d8e0 	.word	0x2000d8e0
    f050:	0000daed 	.word	0x0000daed
    f054:	0000e999 	.word	0x0000e999

0000f058 <vTaskPlaceOnEventListRestricted>:
    f058:	b198      	cbz	r0, f082 <vTaskPlaceOnEventListRestricted+0x2a>
    f05a:	b570      	push	{r4, r5, r6, lr}
    f05c:	4614      	mov	r4, r2
    f05e:	4a0d      	ldr	r2, [pc, #52]	; (f094 <vTaskPlaceOnEventListRestricted+0x3c>)
    f060:	4b0d      	ldr	r3, [pc, #52]	; (f098 <vTaskPlaceOnEventListRestricted+0x40>)
    f062:	460d      	mov	r5, r1
    f064:	f8d2 114c 	ldr.w	r1, [r2, #332]	; 0x14c
    f068:	3118      	adds	r1, #24
    f06a:	4798      	blx	r3
    f06c:	2c00      	cmp	r4, #0
    f06e:	bf08      	it	eq
    f070:	4628      	moveq	r0, r5
    f072:	4621      	mov	r1, r4
    f074:	bf18      	it	ne
    f076:	f04f 30ff 	movne.w	r0, #4294967295
    f07a:	4b08      	ldr	r3, [pc, #32]	; (f09c <vTaskPlaceOnEventListRestricted+0x44>)
    f07c:	e8bd 4070 	ldmia.w	sp!, {r4, r5, r6, lr}
    f080:	4718      	bx	r3
    f082:	f04f 0380 	mov.w	r3, #128	; 0x80
    f086:	f383 8811 	msr	BASEPRI, r3
    f08a:	f3bf 8f6f 	isb	sy
    f08e:	f3bf 8f4f 	dsb	sy
    f092:	e7fe      	b.n	f092 <vTaskPlaceOnEventListRestricted+0x3a>
    f094:	2000d8e0 	.word	0x2000d8e0
    f098:	0000dacd 	.word	0x0000dacd
    f09c:	0000e999 	.word	0x0000e999

0000f0a0 <xTaskRemoveFromEventList>:
    f0a0:	b5f8      	push	{r3, r4, r5, r6, r7, lr}
    f0a2:	68c3      	ldr	r3, [r0, #12]
    f0a4:	68dd      	ldr	r5, [r3, #12]
    f0a6:	b325      	cbz	r5, f0f2 <xTaskRemoveFromEventList+0x52>
    f0a8:	f105 0618 	add.w	r6, r5, #24
    f0ac:	4c18      	ldr	r4, [pc, #96]	; (f110 <xTaskRemoveFromEventList+0x70>)
    f0ae:	4f19      	ldr	r7, [pc, #100]	; (f114 <xTaskRemoveFromEventList+0x74>)
    f0b0:	4630      	mov	r0, r6
    f0b2:	47b8      	blx	r7
    f0b4:	f8d4 31b4 	ldr.w	r3, [r4, #436]	; 0x1b4
    f0b8:	bb23      	cbnz	r3, f104 <xTaskRemoveFromEventList+0x64>
    f0ba:	1d2e      	adds	r6, r5, #4
    f0bc:	4630      	mov	r0, r6
    f0be:	47b8      	blx	r7
    f0c0:	6ae8      	ldr	r0, [r5, #44]	; 0x2c
    f0c2:	f8d4 31b0 	ldr.w	r3, [r4, #432]	; 0x1b0
    f0c6:	4298      	cmp	r0, r3
    f0c8:	bf88      	it	hi
    f0ca:	f8c4 01b0 	strhi.w	r0, [r4, #432]	; 0x1b0
    f0ce:	eb00 0080 	add.w	r0, r0, r0, lsl #2
    f0d2:	eb04 0080 	add.w	r0, r4, r0, lsl #2
    f0d6:	4631      	mov	r1, r6
    f0d8:	4b0f      	ldr	r3, [pc, #60]	; (f118 <xTaskRemoveFromEventList+0x78>)
    f0da:	4798      	blx	r3
    f0dc:	f8d4 314c 	ldr.w	r3, [r4, #332]	; 0x14c
    f0e0:	6aea      	ldr	r2, [r5, #44]	; 0x2c
    f0e2:	6adb      	ldr	r3, [r3, #44]	; 0x2c
    f0e4:	429a      	cmp	r2, r3
    f0e6:	bf86      	itte	hi
    f0e8:	2001      	movhi	r0, #1
    f0ea:	f8c4 01c4 	strhi.w	r0, [r4, #452]	; 0x1c4
    f0ee:	2000      	movls	r0, #0
    f0f0:	bdf8      	pop	{r3, r4, r5, r6, r7, pc}
    f0f2:	f04f 0380 	mov.w	r3, #128	; 0x80
    f0f6:	f383 8811 	msr	BASEPRI, r3
    f0fa:	f3bf 8f6f 	isb	sy
    f0fe:	f3bf 8f4f 	dsb	sy
    f102:	e7fe      	b.n	f102 <xTaskRemoveFromEventList+0x62>
    f104:	4631      	mov	r1, r6
    f106:	f504 70b4 	add.w	r0, r4, #360	; 0x168
    f10a:	4b03      	ldr	r3, [pc, #12]	; (f118 <xTaskRemoveFromEventList+0x78>)
    f10c:	4798      	blx	r3
    f10e:	e7e5      	b.n	f0dc <xTaskRemoveFromEventList+0x3c>
    f110:	2000d8e0 	.word	0x2000d8e0
    f114:	0000db21 	.word	0x0000db21
    f118:	0000dacd 	.word	0x0000dacd

0000f11c <vTaskInternalSetTimeOutState>:
    f11c:	4b03      	ldr	r3, [pc, #12]	; (f12c <vTaskInternalSetTimeOutState+0x10>)
    f11e:	f8d3 21bc 	ldr.w	r2, [r3, #444]	; 0x1bc
    f122:	f8d3 3148 	ldr.w	r3, [r3, #328]	; 0x148
    f126:	e880 000c 	stmia.w	r0, {r2, r3}
    f12a:	4770      	bx	lr
    f12c:	2000d8e0 	.word	0x2000d8e0

0000f130 <xTaskCheckForTimeOut>:
    f130:	b5f8      	push	{r3, r4, r5, r6, r7, lr}
    f132:	b350      	cbz	r0, f18a <xTaskCheckForTimeOut+0x5a>
    f134:	b301      	cbz	r1, f178 <xTaskCheckForTimeOut+0x48>
    f136:	460d      	mov	r5, r1
    f138:	4b21      	ldr	r3, [pc, #132]	; (f1c0 <xTaskCheckForTimeOut+0x90>)
    f13a:	4604      	mov	r4, r0
    f13c:	4798      	blx	r3
    f13e:	682b      	ldr	r3, [r5, #0]
    f140:	4920      	ldr	r1, [pc, #128]	; (f1c4 <xTaskCheckForTimeOut+0x94>)
    f142:	6860      	ldr	r0, [r4, #4]
    f144:	f8d1 2148 	ldr.w	r2, [r1, #328]	; 0x148
    f148:	1c5e      	adds	r6, r3, #1
    f14a:	d034      	beq.n	f1b6 <xTaskCheckForTimeOut+0x86>
    f14c:	f8d1 61bc 	ldr.w	r6, [r1, #444]	; 0x1bc
    f150:	6827      	ldr	r7, [r4, #0]
    f152:	42b7      	cmp	r7, r6
    f154:	d006      	beq.n	f164 <xTaskCheckForTimeOut+0x34>
    f156:	4282      	cmp	r2, r0
    f158:	d304      	bcc.n	f164 <xTaskCheckForTimeOut+0x34>
    f15a:	2501      	movs	r5, #1
    f15c:	4b1a      	ldr	r3, [pc, #104]	; (f1c8 <xTaskCheckForTimeOut+0x98>)
    f15e:	4798      	blx	r3
    f160:	4628      	mov	r0, r5
    f162:	bdf8      	pop	{r3, r4, r5, r6, r7, pc}
    f164:	1a12      	subs	r2, r2, r0
    f166:	429a      	cmp	r2, r3
    f168:	d318      	bcc.n	f19c <xTaskCheckForTimeOut+0x6c>
    f16a:	2300      	movs	r3, #0
    f16c:	602b      	str	r3, [r5, #0]
    f16e:	2501      	movs	r5, #1
    f170:	4b15      	ldr	r3, [pc, #84]	; (f1c8 <xTaskCheckForTimeOut+0x98>)
    f172:	4798      	blx	r3
    f174:	4628      	mov	r0, r5
    f176:	bdf8      	pop	{r3, r4, r5, r6, r7, pc}
    f178:	f04f 0380 	mov.w	r3, #128	; 0x80
    f17c:	f383 8811 	msr	BASEPRI, r3
    f180:	f3bf 8f6f 	isb	sy
    f184:	f3bf 8f4f 	dsb	sy
    f188:	e7fe      	b.n	f188 <xTaskCheckForTimeOut+0x58>
    f18a:	f04f 0380 	mov.w	r3, #128	; 0x80
    f18e:	f383 8811 	msr	BASEPRI, r3
    f192:	f3bf 8f6f 	isb	sy
    f196:	f3bf 8f4f 	dsb	sy
    f19a:	e7fe      	b.n	f19a <xTaskCheckForTimeOut+0x6a>
    f19c:	f8d1 01bc 	ldr.w	r0, [r1, #444]	; 0x1bc
    f1a0:	1a9b      	subs	r3, r3, r2
    f1a2:	f8d1 2148 	ldr.w	r2, [r1, #328]	; 0x148
    f1a6:	602b      	str	r3, [r5, #0]
    f1a8:	e884 0005 	stmia.w	r4, {r0, r2}
    f1ac:	2500      	movs	r5, #0
    f1ae:	4b06      	ldr	r3, [pc, #24]	; (f1c8 <xTaskCheckForTimeOut+0x98>)
    f1b0:	4798      	blx	r3
    f1b2:	4628      	mov	r0, r5
    f1b4:	bdf8      	pop	{r3, r4, r5, r6, r7, pc}
    f1b6:	2500      	movs	r5, #0
    f1b8:	4b03      	ldr	r3, [pc, #12]	; (f1c8 <xTaskCheckForTimeOut+0x98>)
    f1ba:	4798      	blx	r3
    f1bc:	4628      	mov	r0, r5
    f1be:	bdf8      	pop	{r3, r4, r5, r6, r7, pc}
    f1c0:	0000dc15 	.word	0x0000dc15
    f1c4:	2000d8e0 	.word	0x2000d8e0
    f1c8:	0000dc59 	.word	0x0000dc59

0000f1cc <vTaskMissedYield>:
    f1cc:	4b02      	ldr	r3, [pc, #8]	; (f1d8 <vTaskMissedYield+0xc>)
    f1ce:	2201      	movs	r2, #1
    f1d0:	f8c3 21c4 	str.w	r2, [r3, #452]	; 0x1c4
    f1d4:	4770      	bx	lr
    f1d6:	bf00      	nop
    f1d8:	2000d8e0 	.word	0x2000d8e0

0000f1dc <vTaskGetInfo>:
    f1dc:	b5f8      	push	{r3, r4, r5, r6, r7, lr}
    f1de:	460d      	mov	r5, r1
    f1e0:	4616      	mov	r6, r2
    f1e2:	2800      	cmp	r0, #0
    f1e4:	d036      	beq.n	f254 <vTaskGetInfo+0x78>
    f1e6:	4604      	mov	r4, r0
    f1e8:	6ae1      	ldr	r1, [r4, #44]	; 0x2c
    f1ea:	6b27      	ldr	r7, [r4, #48]	; 0x30
    f1ec:	6be0      	ldr	r0, [r4, #60]	; 0x3c
    f1ee:	602c      	str	r4, [r5, #0]
    f1f0:	f104 0234 	add.w	r2, r4, #52	; 0x34
    f1f4:	606a      	str	r2, [r5, #4]
    f1f6:	2b05      	cmp	r3, #5
    f1f8:	6c62      	ldr	r2, [r4, #68]	; 0x44
    f1fa:	6129      	str	r1, [r5, #16]
    f1fc:	f04f 0100 	mov.w	r1, #0
    f200:	61ef      	str	r7, [r5, #28]
    f202:	60a8      	str	r0, [r5, #8]
    f204:	616a      	str	r2, [r5, #20]
    f206:	61a9      	str	r1, [r5, #24]
    f208:	d028      	beq.n	f25c <vTaskGetInfo+0x80>
    f20a:	4a19      	ldr	r2, [pc, #100]	; (f270 <vTaskGetInfo+0x94>)
    f20c:	f8d2 014c 	ldr.w	r0, [r2, #332]	; 0x14c
    f210:	4284      	cmp	r4, r0
    f212:	d028      	beq.n	f266 <vTaskGetInfo+0x8a>
    f214:	2b03      	cmp	r3, #3
    f216:	732b      	strb	r3, [r5, #12]
    f218:	d010      	beq.n	f23c <vTaskGetInfo+0x60>
    f21a:	b16e      	cbz	r6, f238 <vTaskGetInfo+0x5c>
    f21c:	6b20      	ldr	r0, [r4, #48]	; 0x30
    f21e:	7803      	ldrb	r3, [r0, #0]
    f220:	2ba5      	cmp	r3, #165	; 0xa5
    f222:	d122      	bne.n	f26a <vTaskGetInfo+0x8e>
    f224:	1c43      	adds	r3, r0, #1
    f226:	1a1c      	subs	r4, r3, r0
    f228:	f813 2b01 	ldrb.w	r2, [r3], #1
    f22c:	2aa5      	cmp	r2, #165	; 0xa5
    f22e:	d0fa      	beq.n	f226 <vTaskGetInfo+0x4a>
    f230:	f3c4 048f 	ubfx	r4, r4, #2, #16
    f234:	842c      	strh	r4, [r5, #32]
    f236:	bdf8      	pop	{r3, r4, r5, r6, r7, pc}
    f238:	842e      	strh	r6, [r5, #32]
    f23a:	bdf8      	pop	{r3, r4, r5, r6, r7, pc}
    f23c:	f8d2 31b4 	ldr.w	r3, [r2, #436]	; 0x1b4
    f240:	6aa1      	ldr	r1, [r4, #40]	; 0x28
    f242:	3301      	adds	r3, #1
    f244:	f8c2 31b4 	str.w	r3, [r2, #436]	; 0x1b4
    f248:	b109      	cbz	r1, f24e <vTaskGetInfo+0x72>
    f24a:	2302      	movs	r3, #2
    f24c:	732b      	strb	r3, [r5, #12]
    f24e:	4b09      	ldr	r3, [pc, #36]	; (f274 <vTaskGetInfo+0x98>)
    f250:	4798      	blx	r3
    f252:	e7e2      	b.n	f21a <vTaskGetInfo+0x3e>
    f254:	4a06      	ldr	r2, [pc, #24]	; (f270 <vTaskGetInfo+0x94>)
    f256:	f8d2 414c 	ldr.w	r4, [r2, #332]	; 0x14c
    f25a:	e7c5      	b.n	f1e8 <vTaskGetInfo+0xc>
    f25c:	4620      	mov	r0, r4
    f25e:	4b06      	ldr	r3, [pc, #24]	; (f278 <vTaskGetInfo+0x9c>)
    f260:	4798      	blx	r3
    f262:	7328      	strb	r0, [r5, #12]
    f264:	e7d9      	b.n	f21a <vTaskGetInfo+0x3e>
    f266:	7329      	strb	r1, [r5, #12]
    f268:	e7d7      	b.n	f21a <vTaskGetInfo+0x3e>
    f26a:	2400      	movs	r4, #0
    f26c:	e7e2      	b.n	f234 <vTaskGetInfo+0x58>
    f26e:	bf00      	nop
    f270:	2000d8e0 	.word	0x2000d8e0
    f274:	0000ee2d 	.word	0x0000ee2d
    f278:	0000ebed 	.word	0x0000ebed

0000f27c <xTaskGetSchedulerState>:
    f27c:	4b06      	ldr	r3, [pc, #24]	; (f298 <xTaskGetSchedulerState+0x1c>)
    f27e:	f8d3 21a8 	ldr.w	r2, [r3, #424]	; 0x1a8
    f282:	b132      	cbz	r2, f292 <xTaskGetSchedulerState+0x16>
    f284:	f8d3 31b4 	ldr.w	r3, [r3, #436]	; 0x1b4
    f288:	2b00      	cmp	r3, #0
    f28a:	bf0c      	ite	eq
    f28c:	2002      	moveq	r0, #2
    f28e:	2000      	movne	r0, #0
    f290:	4770      	bx	lr
    f292:	2001      	movs	r0, #1
    f294:	4770      	bx	lr
    f296:	bf00      	nop
    f298:	2000d8e0 	.word	0x2000d8e0

0000f29c <xTaskPriorityInherit>:
    f29c:	2800      	cmp	r0, #0
    f29e:	d03e      	beq.n	f31e <xTaskPriorityInherit+0x82>
    f2a0:	b570      	push	{r4, r5, r6, lr}
    f2a2:	4c1f      	ldr	r4, [pc, #124]	; (f320 <xTaskPriorityInherit+0x84>)
    f2a4:	6ac3      	ldr	r3, [r0, #44]	; 0x2c
    f2a6:	f8d4 214c 	ldr.w	r2, [r4, #332]	; 0x14c
    f2aa:	6ad2      	ldr	r2, [r2, #44]	; 0x2c
    f2ac:	4293      	cmp	r3, r2
    f2ae:	d215      	bcs.n	f2dc <xTaskPriorityInherit+0x40>
    f2b0:	6982      	ldr	r2, [r0, #24]
    f2b2:	2a00      	cmp	r2, #0
    f2b4:	db05      	blt.n	f2c2 <xTaskPriorityInherit+0x26>
    f2b6:	f8d4 214c 	ldr.w	r2, [r4, #332]	; 0x14c
    f2ba:	6ad2      	ldr	r2, [r2, #44]	; 0x2c
    f2bc:	f1c2 0210 	rsb	r2, r2, #16
    f2c0:	6182      	str	r2, [r0, #24]
    f2c2:	eb03 0383 	add.w	r3, r3, r3, lsl #2
    f2c6:	6942      	ldr	r2, [r0, #20]
    f2c8:	eb04 0383 	add.w	r3, r4, r3, lsl #2
    f2cc:	429a      	cmp	r2, r3
    f2ce:	d00e      	beq.n	f2ee <xTaskPriorityInherit+0x52>
    f2d0:	f8d4 314c 	ldr.w	r3, [r4, #332]	; 0x14c
    f2d4:	6adb      	ldr	r3, [r3, #44]	; 0x2c
    f2d6:	62c3      	str	r3, [r0, #44]	; 0x2c
    f2d8:	2001      	movs	r0, #1
    f2da:	bd70      	pop	{r4, r5, r6, pc}
    f2dc:	f8d4 314c 	ldr.w	r3, [r4, #332]	; 0x14c
    f2e0:	6c40      	ldr	r0, [r0, #68]	; 0x44
    f2e2:	6adb      	ldr	r3, [r3, #44]	; 0x2c
    f2e4:	4298      	cmp	r0, r3
    f2e6:	bf2c      	ite	cs
    f2e8:	2000      	movcs	r0, #0
    f2ea:	2001      	movcc	r0, #1
    f2ec:	bd70      	pop	{r4, r5, r6, pc}
    f2ee:	1d05      	adds	r5, r0, #4
    f2f0:	4606      	mov	r6, r0
    f2f2:	4b0c      	ldr	r3, [pc, #48]	; (f324 <xTaskPriorityInherit+0x88>)
    f2f4:	4628      	mov	r0, r5
    f2f6:	4798      	blx	r3
    f2f8:	f8d4 214c 	ldr.w	r2, [r4, #332]	; 0x14c
    f2fc:	f8d4 31b0 	ldr.w	r3, [r4, #432]	; 0x1b0
    f300:	6ad0      	ldr	r0, [r2, #44]	; 0x2c
    f302:	62f0      	str	r0, [r6, #44]	; 0x2c
    f304:	4298      	cmp	r0, r3
    f306:	d901      	bls.n	f30c <xTaskPriorityInherit+0x70>
    f308:	f8c4 01b0 	str.w	r0, [r4, #432]	; 0x1b0
    f30c:	eb00 0080 	add.w	r0, r0, r0, lsl #2
    f310:	eb04 0080 	add.w	r0, r4, r0, lsl #2
    f314:	4629      	mov	r1, r5
    f316:	4b04      	ldr	r3, [pc, #16]	; (f328 <xTaskPriorityInherit+0x8c>)
    f318:	4798      	blx	r3
    f31a:	2001      	movs	r0, #1
    f31c:	bd70      	pop	{r4, r5, r6, pc}
    f31e:	4770      	bx	lr
    f320:	2000d8e0 	.word	0x2000d8e0
    f324:	0000db21 	.word	0x0000db21
    f328:	0000dacd 	.word	0x0000dacd

0000f32c <xTaskPriorityDisinherit>:
    f32c:	b310      	cbz	r0, f374 <xTaskPriorityDisinherit+0x48>
    f32e:	b570      	push	{r4, r5, r6, lr}
    f330:	4d1e      	ldr	r5, [pc, #120]	; (f3ac <xTaskPriorityDisinherit+0x80>)
    f332:	f8d5 314c 	ldr.w	r3, [r5, #332]	; 0x14c
    f336:	4298      	cmp	r0, r3
    f338:	d008      	beq.n	f34c <xTaskPriorityDisinherit+0x20>
    f33a:	f04f 0380 	mov.w	r3, #128	; 0x80
    f33e:	f383 8811 	msr	BASEPRI, r3
    f342:	f3bf 8f6f 	isb	sy
    f346:	f3bf 8f4f 	dsb	sy
    f34a:	e7fe      	b.n	f34a <xTaskPriorityDisinherit+0x1e>
    f34c:	6c83      	ldr	r3, [r0, #72]	; 0x48
    f34e:	b943      	cbnz	r3, f362 <xTaskPriorityDisinherit+0x36>
    f350:	f04f 0380 	mov.w	r3, #128	; 0x80
    f354:	f383 8811 	msr	BASEPRI, r3
    f358:	f3bf 8f6f 	isb	sy
    f35c:	f3bf 8f4f 	dsb	sy
    f360:	e7fe      	b.n	f360 <xTaskPriorityDisinherit+0x34>
    f362:	6ac1      	ldr	r1, [r0, #44]	; 0x2c
    f364:	6c42      	ldr	r2, [r0, #68]	; 0x44
    f366:	3b01      	subs	r3, #1
    f368:	4291      	cmp	r1, r2
    f36a:	6483      	str	r3, [r0, #72]	; 0x48
    f36c:	d000      	beq.n	f370 <xTaskPriorityDisinherit+0x44>
    f36e:	b11b      	cbz	r3, f378 <xTaskPriorityDisinherit+0x4c>
    f370:	2000      	movs	r0, #0
    f372:	bd70      	pop	{r4, r5, r6, pc}
    f374:	2000      	movs	r0, #0
    f376:	4770      	bx	lr
    f378:	4604      	mov	r4, r0
    f37a:	1d06      	adds	r6, r0, #4
    f37c:	4630      	mov	r0, r6
    f37e:	4b0c      	ldr	r3, [pc, #48]	; (f3b0 <xTaskPriorityDisinherit+0x84>)
    f380:	4798      	blx	r3
    f382:	6c60      	ldr	r0, [r4, #68]	; 0x44
    f384:	f8d5 31b0 	ldr.w	r3, [r5, #432]	; 0x1b0
    f388:	62e0      	str	r0, [r4, #44]	; 0x2c
    f38a:	4298      	cmp	r0, r3
    f38c:	f1c0 0210 	rsb	r2, r0, #16
    f390:	bf88      	it	hi
    f392:	f8c5 01b0 	strhi.w	r0, [r5, #432]	; 0x1b0
    f396:	eb00 0080 	add.w	r0, r0, r0, lsl #2
    f39a:	eb05 0080 	add.w	r0, r5, r0, lsl #2
    f39e:	61a2      	str	r2, [r4, #24]
    f3a0:	4631      	mov	r1, r6
    f3a2:	4b04      	ldr	r3, [pc, #16]	; (f3b4 <xTaskPriorityDisinherit+0x88>)
    f3a4:	4798      	blx	r3
    f3a6:	2001      	movs	r0, #1
    f3a8:	bd70      	pop	{r4, r5, r6, pc}
    f3aa:	bf00      	nop
    f3ac:	2000d8e0 	.word	0x2000d8e0
    f3b0:	0000db21 	.word	0x0000db21
    f3b4:	0000dacd 	.word	0x0000dacd

0000f3b8 <vTaskPriorityDisinheritAfterTimeout>:
    f3b8:	b1a8      	cbz	r0, f3e6 <vTaskPriorityDisinheritAfterTimeout+0x2e>
    f3ba:	b570      	push	{r4, r5, r6, lr}
    f3bc:	6c84      	ldr	r4, [r0, #72]	; 0x48
    f3be:	b944      	cbnz	r4, f3d2 <vTaskPriorityDisinheritAfterTimeout+0x1a>
    f3c0:	f04f 0380 	mov.w	r3, #128	; 0x80
    f3c4:	f383 8811 	msr	BASEPRI, r3
    f3c8:	f3bf 8f6f 	isb	sy
    f3cc:	f3bf 8f4f 	dsb	sy
    f3d0:	e7fe      	b.n	f3d0 <vTaskPriorityDisinheritAfterTimeout+0x18>
    f3d2:	6c42      	ldr	r2, [r0, #68]	; 0x44
    f3d4:	6ac3      	ldr	r3, [r0, #44]	; 0x2c
    f3d6:	428a      	cmp	r2, r1
    f3d8:	bf38      	it	cc
    f3da:	460a      	movcc	r2, r1
    f3dc:	4293      	cmp	r3, r2
    f3de:	d001      	beq.n	f3e4 <vTaskPriorityDisinheritAfterTimeout+0x2c>
    f3e0:	2c01      	cmp	r4, #1
    f3e2:	d001      	beq.n	f3e8 <vTaskPriorityDisinheritAfterTimeout+0x30>
    f3e4:	bd70      	pop	{r4, r5, r6, pc}
    f3e6:	4770      	bx	lr
    f3e8:	4d18      	ldr	r5, [pc, #96]	; (f44c <vTaskPriorityDisinheritAfterTimeout+0x94>)
    f3ea:	f8d5 114c 	ldr.w	r1, [r5, #332]	; 0x14c
    f3ee:	4288      	cmp	r0, r1
    f3f0:	d022      	beq.n	f438 <vTaskPriorityDisinheritAfterTimeout+0x80>
    f3f2:	6981      	ldr	r1, [r0, #24]
    f3f4:	62c2      	str	r2, [r0, #44]	; 0x2c
    f3f6:	2900      	cmp	r1, #0
    f3f8:	bfa4      	itt	ge
    f3fa:	f1c2 0210 	rsbge	r2, r2, #16
    f3fe:	6182      	strge	r2, [r0, #24]
    f400:	eb03 0383 	add.w	r3, r3, r3, lsl #2
    f404:	6942      	ldr	r2, [r0, #20]
    f406:	eb05 0383 	add.w	r3, r5, r3, lsl #2
    f40a:	429a      	cmp	r2, r3
    f40c:	d1ea      	bne.n	f3e4 <vTaskPriorityDisinheritAfterTimeout+0x2c>
    f40e:	4604      	mov	r4, r0
    f410:	1d06      	adds	r6, r0, #4
    f412:	4b0f      	ldr	r3, [pc, #60]	; (f450 <vTaskPriorityDisinheritAfterTimeout+0x98>)
    f414:	4630      	mov	r0, r6
    f416:	4798      	blx	r3
    f418:	6ae0      	ldr	r0, [r4, #44]	; 0x2c
    f41a:	f8d5 31b0 	ldr.w	r3, [r5, #432]	; 0x1b0
    f41e:	4298      	cmp	r0, r3
    f420:	d901      	bls.n	f426 <vTaskPriorityDisinheritAfterTimeout+0x6e>
    f422:	f8c5 01b0 	str.w	r0, [r5, #432]	; 0x1b0
    f426:	eb00 0080 	add.w	r0, r0, r0, lsl #2
    f42a:	eb05 0080 	add.w	r0, r5, r0, lsl #2
    f42e:	4631      	mov	r1, r6
    f430:	4b08      	ldr	r3, [pc, #32]	; (f454 <vTaskPriorityDisinheritAfterTimeout+0x9c>)
    f432:	e8bd 4070 	ldmia.w	sp!, {r4, r5, r6, lr}
    f436:	4718      	bx	r3
    f438:	f04f 0380 	mov.w	r3, #128	; 0x80
    f43c:	f383 8811 	msr	BASEPRI, r3
    f440:	f3bf 8f6f 	isb	sy
    f444:	f3bf 8f4f 	dsb	sy
    f448:	e7fe      	b.n	f448 <vTaskPriorityDisinheritAfterTimeout+0x90>
    f44a:	bf00      	nop
    f44c:	2000d8e0 	.word	0x2000d8e0
    f450:	0000db21 	.word	0x0000db21
    f454:	0000dacd 	.word	0x0000dacd

0000f458 <pvTaskIncrementMutexHeldCount>:
    f458:	4b05      	ldr	r3, [pc, #20]	; (f470 <pvTaskIncrementMutexHeldCount+0x18>)
    f45a:	f8d3 214c 	ldr.w	r2, [r3, #332]	; 0x14c
    f45e:	b122      	cbz	r2, f46a <pvTaskIncrementMutexHeldCount+0x12>
    f460:	f8d3 114c 	ldr.w	r1, [r3, #332]	; 0x14c
    f464:	6c8a      	ldr	r2, [r1, #72]	; 0x48
    f466:	3201      	adds	r2, #1
    f468:	648a      	str	r2, [r1, #72]	; 0x48
    f46a:	f8d3 014c 	ldr.w	r0, [r3, #332]	; 0x14c
    f46e:	4770      	bx	lr
    f470:	2000d8e0 	.word	0x2000d8e0

0000f474 <prvCheckForValidListAndQueue>:
    f474:	e92d 41f0 	stmdb	sp!, {r4, r5, r6, r7, r8, lr}
    f478:	4c0e      	ldr	r4, [pc, #56]	; (f4b4 <prvCheckForValidListAndQueue+0x40>)
    f47a:	4b0f      	ldr	r3, [pc, #60]	; (f4b8 <prvCheckForValidListAndQueue+0x44>)
    f47c:	4798      	blx	r3
    f47e:	6825      	ldr	r5, [r4, #0]
    f480:	b11d      	cbz	r5, f48a <prvCheckForValidListAndQueue+0x16>
    f482:	4b0e      	ldr	r3, [pc, #56]	; (f4bc <prvCheckForValidListAndQueue+0x48>)
    f484:	e8bd 41f0 	ldmia.w	sp!, {r4, r5, r6, r7, r8, lr}
    f488:	4718      	bx	r3
    f48a:	1d27      	adds	r7, r4, #4
    f48c:	4638      	mov	r0, r7
    f48e:	f8df 8034 	ldr.w	r8, [pc, #52]	; f4c4 <prvCheckForValidListAndQueue+0x50>
    f492:	f104 0618 	add.w	r6, r4, #24
    f496:	47c0      	blx	r8
    f498:	4630      	mov	r0, r6
    f49a:	47c0      	blx	r8
    f49c:	462a      	mov	r2, r5
    f49e:	4b08      	ldr	r3, [pc, #32]	; (f4c0 <prvCheckForValidListAndQueue+0x4c>)
    f4a0:	62e7      	str	r7, [r4, #44]	; 0x2c
    f4a2:	210c      	movs	r1, #12
    f4a4:	200a      	movs	r0, #10
    f4a6:	6326      	str	r6, [r4, #48]	; 0x30
    f4a8:	4798      	blx	r3
    f4aa:	4b04      	ldr	r3, [pc, #16]	; (f4bc <prvCheckForValidListAndQueue+0x48>)
    f4ac:	6020      	str	r0, [r4, #0]
    f4ae:	e8bd 41f0 	ldmia.w	sp!, {r4, r5, r6, r7, r8, lr}
    f4b2:	4718      	bx	r3
    f4b4:	2000daa8 	.word	0x2000daa8
    f4b8:	0000dc15 	.word	0x0000dc15
    f4bc:	0000dc59 	.word	0x0000dc59
    f4c0:	0000e1cd 	.word	0x0000e1cd
    f4c4:	0000daad 	.word	0x0000daad

0000f4c8 <prvInsertTimerInActiveList>:
    f4c8:	4291      	cmp	r1, r2
    f4ca:	b510      	push	{r4, lr}
    f4cc:	4604      	mov	r4, r0
    f4ce:	6100      	str	r0, [r0, #16]
    f4d0:	6041      	str	r1, [r0, #4]
    f4d2:	d805      	bhi.n	f4e0 <prvInsertTimerInActiveList+0x18>
    f4d4:	6981      	ldr	r1, [r0, #24]
    f4d6:	1ad2      	subs	r2, r2, r3
    f4d8:	428a      	cmp	r2, r1
    f4da:	d30c      	bcc.n	f4f6 <prvInsertTimerInActiveList+0x2e>
    f4dc:	2001      	movs	r0, #1
    f4de:	bd10      	pop	{r4, pc}
    f4e0:	429a      	cmp	r2, r3
    f4e2:	d201      	bcs.n	f4e8 <prvInsertTimerInActiveList+0x20>
    f4e4:	4299      	cmp	r1, r3
    f4e6:	d2f9      	bcs.n	f4dc <prvInsertTimerInActiveList+0x14>
    f4e8:	4a06      	ldr	r2, [pc, #24]	; (f504 <prvInsertTimerInActiveList+0x3c>)
    f4ea:	4b07      	ldr	r3, [pc, #28]	; (f508 <prvInsertTimerInActiveList+0x40>)
    f4ec:	6ad0      	ldr	r0, [r2, #44]	; 0x2c
    f4ee:	1d21      	adds	r1, r4, #4
    f4f0:	4798      	blx	r3
    f4f2:	2000      	movs	r0, #0
    f4f4:	bd10      	pop	{r4, pc}
    f4f6:	4a03      	ldr	r2, [pc, #12]	; (f504 <prvInsertTimerInActiveList+0x3c>)
    f4f8:	4b03      	ldr	r3, [pc, #12]	; (f508 <prvInsertTimerInActiveList+0x40>)
    f4fa:	6b10      	ldr	r0, [r2, #48]	; 0x30
    f4fc:	1d21      	adds	r1, r4, #4
    f4fe:	4798      	blx	r3
    f500:	2000      	movs	r0, #0
    f502:	bd10      	pop	{r4, pc}
    f504:	2000daa8 	.word	0x2000daa8
    f508:	0000daed 	.word	0x0000daed

0000f50c <xTimerCreateTimerTask>:
    f50c:	b510      	push	{r4, lr}
    f50e:	4b0e      	ldr	r3, [pc, #56]	; (f548 <xTimerCreateTimerTask+0x3c>)
    f510:	b082      	sub	sp, #8
    f512:	4798      	blx	r3
    f514:	4b0d      	ldr	r3, [pc, #52]	; (f54c <xTimerCreateTimerTask+0x40>)
    f516:	681a      	ldr	r2, [r3, #0]
    f518:	b162      	cbz	r2, f534 <xTimerCreateTimerTask+0x28>
    f51a:	3334      	adds	r3, #52	; 0x34
    f51c:	2204      	movs	r2, #4
    f51e:	e88d 000c 	stmia.w	sp, {r2, r3}
    f522:	490b      	ldr	r1, [pc, #44]	; (f550 <xTimerCreateTimerTask+0x44>)
    f524:	480b      	ldr	r0, [pc, #44]	; (f554 <xTimerCreateTimerTask+0x48>)
    f526:	4c0c      	ldr	r4, [pc, #48]	; (f558 <xTimerCreateTimerTask+0x4c>)
    f528:	2300      	movs	r3, #0
    f52a:	22c0      	movs	r2, #192	; 0xc0
    f52c:	47a0      	blx	r4
    f52e:	b108      	cbz	r0, f534 <xTimerCreateTimerTask+0x28>
    f530:	b002      	add	sp, #8
    f532:	bd10      	pop	{r4, pc}
    f534:	f04f 0380 	mov.w	r3, #128	; 0x80
    f538:	f383 8811 	msr	BASEPRI, r3
    f53c:	f3bf 8f6f 	isb	sy
    f540:	f3bf 8f4f 	dsb	sy
    f544:	e7fe      	b.n	f544 <xTimerCreateTimerTask+0x38>
    f546:	bf00      	nop
    f548:	0000f475 	.word	0x0000f475
    f54c:	2000daa8 	.word	0x2000daa8
    f550:	00012498 	.word	0x00012498
    f554:	0000f6b9 	.word	0x0000f6b9
    f558:	0000ea2d 	.word	0x0000ea2d

0000f55c <xTimerCreate>:
    f55c:	e92d 42f0 	stmdb	sp!, {r4, r5, r6, r7, r9, lr}
    f560:	4c10      	ldr	r4, [pc, #64]	; (f5a4 <xTimerCreate+0x48>)
    f562:	4681      	mov	r9, r0
    f564:	202c      	movs	r0, #44	; 0x2c
    f566:	460d      	mov	r5, r1
    f568:	4616      	mov	r6, r2
    f56a:	461f      	mov	r7, r3
    f56c:	47a0      	blx	r4
    f56e:	4604      	mov	r4, r0
    f570:	b1a8      	cbz	r0, f59e <xTimerCreate+0x42>
    f572:	b945      	cbnz	r5, f586 <xTimerCreate+0x2a>
    f574:	f04f 0380 	mov.w	r3, #128	; 0x80
    f578:	f383 8811 	msr	BASEPRI, r3
    f57c:	f3bf 8f6f 	isb	sy
    f580:	f3bf 8f4f 	dsb	sy
    f584:	e7fe      	b.n	f584 <xTimerCreate+0x28>
    f586:	4b08      	ldr	r3, [pc, #32]	; (f5a8 <xTimerCreate+0x4c>)
    f588:	4798      	blx	r3
    f58a:	9b06      	ldr	r3, [sp, #24]
    f58c:	6263      	str	r3, [r4, #36]	; 0x24
    f58e:	f8c4 9000 	str.w	r9, [r4]
    f592:	61a5      	str	r5, [r4, #24]
    f594:	61e6      	str	r6, [r4, #28]
    f596:	6227      	str	r7, [r4, #32]
    f598:	1d20      	adds	r0, r4, #4
    f59a:	4b04      	ldr	r3, [pc, #16]	; (f5ac <xTimerCreate+0x50>)
    f59c:	4798      	blx	r3
    f59e:	4620      	mov	r0, r4
    f5a0:	e8bd 82f0 	ldmia.w	sp!, {r4, r5, r6, r7, r9, pc}
    f5a4:	0000deb9 	.word	0x0000deb9
    f5a8:	0000f475 	.word	0x0000f475
    f5ac:	0000dac5 	.word	0x0000dac5

0000f5b0 <xTimerGenericCommand>:
    f5b0:	2800      	cmp	r0, #0
    f5b2:	d026      	beq.n	f602 <xTimerGenericCommand+0x52>
    f5b4:	b570      	push	{r4, r5, r6, lr}
    f5b6:	4d17      	ldr	r5, [pc, #92]	; (f614 <xTimerGenericCommand+0x64>)
    f5b8:	4604      	mov	r4, r0
    f5ba:	6828      	ldr	r0, [r5, #0]
    f5bc:	b084      	sub	sp, #16
    f5be:	b180      	cbz	r0, f5e2 <xTimerGenericCommand+0x32>
    f5c0:	4616      	mov	r6, r2
    f5c2:	2905      	cmp	r1, #5
    f5c4:	461a      	mov	r2, r3
    f5c6:	9101      	str	r1, [sp, #4]
    f5c8:	9602      	str	r6, [sp, #8]
    f5ca:	9403      	str	r4, [sp, #12]
    f5cc:	dc0b      	bgt.n	f5e6 <xTimerGenericCommand+0x36>
    f5ce:	4b12      	ldr	r3, [pc, #72]	; (f618 <xTimerGenericCommand+0x68>)
    f5d0:	4798      	blx	r3
    f5d2:	2802      	cmp	r0, #2
    f5d4:	d00d      	beq.n	f5f2 <xTimerGenericCommand+0x42>
    f5d6:	2300      	movs	r3, #0
    f5d8:	6828      	ldr	r0, [r5, #0]
    f5da:	4c10      	ldr	r4, [pc, #64]	; (f61c <xTimerGenericCommand+0x6c>)
    f5dc:	461a      	mov	r2, r3
    f5de:	a901      	add	r1, sp, #4
    f5e0:	47a0      	blx	r4
    f5e2:	b004      	add	sp, #16
    f5e4:	bd70      	pop	{r4, r5, r6, pc}
    f5e6:	2300      	movs	r3, #0
    f5e8:	a901      	add	r1, sp, #4
    f5ea:	4c0d      	ldr	r4, [pc, #52]	; (f620 <xTimerGenericCommand+0x70>)
    f5ec:	47a0      	blx	r4
    f5ee:	b004      	add	sp, #16
    f5f0:	bd70      	pop	{r4, r5, r6, pc}
    f5f2:	6828      	ldr	r0, [r5, #0]
    f5f4:	4c09      	ldr	r4, [pc, #36]	; (f61c <xTimerGenericCommand+0x6c>)
    f5f6:	9a08      	ldr	r2, [sp, #32]
    f5f8:	2300      	movs	r3, #0
    f5fa:	a901      	add	r1, sp, #4
    f5fc:	47a0      	blx	r4
    f5fe:	b004      	add	sp, #16
    f600:	bd70      	pop	{r4, r5, r6, pc}
    f602:	f04f 0380 	mov.w	r3, #128	; 0x80
    f606:	f383 8811 	msr	BASEPRI, r3
    f60a:	f3bf 8f6f 	isb	sy
    f60e:	f3bf 8f4f 	dsb	sy
    f612:	e7fe      	b.n	f612 <xTimerGenericCommand+0x62>
    f614:	2000daa8 	.word	0x2000daa8
    f618:	0000f27d 	.word	0x0000f27d
    f61c:	0000e225 	.word	0x0000e225
    f620:	0000e3ed 	.word	0x0000e3ed

0000f624 <prvSwitchTimerLists>:
    f624:	e92d 4ff0 	stmdb	sp!, {r4, r5, r6, r7, r8, r9, sl, fp, lr}
    f628:	4d1f      	ldr	r5, [pc, #124]	; (f6a8 <prvSwitchTimerLists+0x84>)
    f62a:	f8df a080 	ldr.w	sl, [pc, #128]	; f6ac <prvSwitchTimerLists+0x88>
    f62e:	f8df 8080 	ldr.w	r8, [pc, #128]	; f6b0 <prvSwitchTimerLists+0x8c>
    f632:	b083      	sub	sp, #12
    f634:	e00c      	b.n	f650 <prvSwitchTimerLists+0x2c>
    f636:	68db      	ldr	r3, [r3, #12]
    f638:	68dc      	ldr	r4, [r3, #12]
    f63a:	681f      	ldr	r7, [r3, #0]
    f63c:	f104 0904 	add.w	r9, r4, #4
    f640:	4648      	mov	r0, r9
    f642:	47d0      	blx	sl
    f644:	6a63      	ldr	r3, [r4, #36]	; 0x24
    f646:	4620      	mov	r0, r4
    f648:	4798      	blx	r3
    f64a:	69e3      	ldr	r3, [r4, #28]
    f64c:	2b01      	cmp	r3, #1
    f64e:	d009      	beq.n	f664 <prvSwitchTimerLists+0x40>
    f650:	6aeb      	ldr	r3, [r5, #44]	; 0x2c
    f652:	681a      	ldr	r2, [r3, #0]
    f654:	2a00      	cmp	r2, #0
    f656:	d1ee      	bne.n	f636 <prvSwitchTimerLists+0x12>
    f658:	6b2a      	ldr	r2, [r5, #48]	; 0x30
    f65a:	62ea      	str	r2, [r5, #44]	; 0x2c
    f65c:	632b      	str	r3, [r5, #48]	; 0x30
    f65e:	b003      	add	sp, #12
    f660:	e8bd 8ff0 	ldmia.w	sp!, {r4, r5, r6, r7, r8, r9, sl, fp, pc}
    f664:	69a6      	ldr	r6, [r4, #24]
    f666:	f8df b04c 	ldr.w	fp, [pc, #76]	; f6b4 <prvSwitchTimerLists+0x90>
    f66a:	eb07 0c06 	add.w	ip, r7, r6
    f66e:	f04f 0e00 	mov.w	lr, #0
    f672:	4567      	cmp	r7, ip
    f674:	4673      	mov	r3, lr
    f676:	463a      	mov	r2, r7
    f678:	4671      	mov	r1, lr
    f67a:	4620      	mov	r0, r4
    f67c:	d206      	bcs.n	f68c <prvSwitchTimerLists+0x68>
    f67e:	f8c4 c004 	str.w	ip, [r4, #4]
    f682:	6124      	str	r4, [r4, #16]
    f684:	6ae8      	ldr	r0, [r5, #44]	; 0x2c
    f686:	4649      	mov	r1, r9
    f688:	47d8      	blx	fp
    f68a:	e7e1      	b.n	f650 <prvSwitchTimerLists+0x2c>
    f68c:	f8cd e000 	str.w	lr, [sp]
    f690:	47c0      	blx	r8
    f692:	2800      	cmp	r0, #0
    f694:	d1dc      	bne.n	f650 <prvSwitchTimerLists+0x2c>
    f696:	f04f 0380 	mov.w	r3, #128	; 0x80
    f69a:	f383 8811 	msr	BASEPRI, r3
    f69e:	f3bf 8f6f 	isb	sy
    f6a2:	f3bf 8f4f 	dsb	sy
    f6a6:	e7fe      	b.n	f6a6 <prvSwitchTimerLists+0x82>
    f6a8:	2000daa8 	.word	0x2000daa8
    f6ac:	0000db21 	.word	0x0000db21
    f6b0:	0000f5b1 	.word	0x0000f5b1
    f6b4:	0000daed 	.word	0x0000daed

0000f6b8 <prvTimerTask>:
    f6b8:	e92d 4ff0 	stmdb	sp!, {r4, r5, r6, r7, r8, r9, sl, fp, lr}
    f6bc:	4c67      	ldr	r4, [pc, #412]	; (f85c <prvTimerTask+0x1a4>)
    f6be:	f8df 91c0 	ldr.w	r9, [pc, #448]	; f880 <prvTimerTask+0x1c8>
    f6c2:	f8df 81c0 	ldr.w	r8, [pc, #448]	; f884 <prvTimerTask+0x1cc>
    f6c6:	f8df a1c0 	ldr.w	sl, [pc, #448]	; f888 <prvTimerTask+0x1d0>
    f6ca:	4d65      	ldr	r5, [pc, #404]	; (f860 <prvTimerTask+0x1a8>)
    f6cc:	b089      	sub	sp, #36	; 0x24
    f6ce:	6ae3      	ldr	r3, [r4, #44]	; 0x2c
    f6d0:	681e      	ldr	r6, [r3, #0]
    f6d2:	2e00      	cmp	r6, #0
    f6d4:	d041      	beq.n	f75a <prvTimerTask+0xa2>
    f6d6:	68db      	ldr	r3, [r3, #12]
    f6d8:	681e      	ldr	r6, [r3, #0]
    f6da:	47c8      	blx	r9
    f6dc:	4b61      	ldr	r3, [pc, #388]	; (f864 <prvTimerTask+0x1ac>)
    f6de:	4798      	blx	r3
    f6e0:	6ba2      	ldr	r2, [r4, #56]	; 0x38
    f6e2:	4290      	cmp	r0, r2
    f6e4:	4603      	mov	r3, r0
    f6e6:	d346      	bcc.n	f776 <prvTimerTask+0xbe>
    f6e8:	4286      	cmp	r6, r0
    f6ea:	63a0      	str	r0, [r4, #56]	; 0x38
    f6ec:	d94f      	bls.n	f78e <prvTimerTask+0xd6>
    f6ee:	2200      	movs	r2, #0
    f6f0:	1af1      	subs	r1, r6, r3
    f6f2:	6820      	ldr	r0, [r4, #0]
    f6f4:	47d0      	blx	sl
    f6f6:	47c0      	blx	r8
    f6f8:	b938      	cbnz	r0, f70a <prvTimerTask+0x52>
    f6fa:	4a5b      	ldr	r2, [pc, #364]	; (f868 <prvTimerTask+0x1b0>)
    f6fc:	f04f 5380 	mov.w	r3, #268435456	; 0x10000000
    f700:	6013      	str	r3, [r2, #0]
    f702:	f3bf 8f4f 	dsb	sy
    f706:	f3bf 8f6f 	isb	sy
    f70a:	2200      	movs	r2, #0
    f70c:	a905      	add	r1, sp, #20
    f70e:	6820      	ldr	r0, [r4, #0]
    f710:	47a8      	blx	r5
    f712:	2800      	cmp	r0, #0
    f714:	d0db      	beq.n	f6ce <prvTimerTask+0x16>
    f716:	9b05      	ldr	r3, [sp, #20]
    f718:	2b00      	cmp	r3, #0
    f71a:	dbf6      	blt.n	f70a <prvTimerTask+0x52>
    f71c:	9e07      	ldr	r6, [sp, #28]
    f71e:	6973      	ldr	r3, [r6, #20]
    f720:	b113      	cbz	r3, f728 <prvTimerTask+0x70>
    f722:	1d30      	adds	r0, r6, #4
    f724:	4b51      	ldr	r3, [pc, #324]	; (f86c <prvTimerTask+0x1b4>)
    f726:	4798      	blx	r3
    f728:	4b4e      	ldr	r3, [pc, #312]	; (f864 <prvTimerTask+0x1ac>)
    f72a:	4798      	blx	r3
    f72c:	6ba3      	ldr	r3, [r4, #56]	; 0x38
    f72e:	4298      	cmp	r0, r3
    f730:	4602      	mov	r2, r0
    f732:	d327      	bcc.n	f784 <prvTimerTask+0xcc>
    f734:	9b05      	ldr	r3, [sp, #20]
    f736:	63a2      	str	r2, [r4, #56]	; 0x38
    f738:	2b09      	cmp	r3, #9
    f73a:	d8e6      	bhi.n	f70a <prvTimerTask+0x52>
    f73c:	2101      	movs	r1, #1
    f73e:	fa01 f303 	lsl.w	r3, r1, r3
    f742:	f413 7b04 	ands.w	fp, r3, #528	; 0x210
    f746:	d177      	bne.n	f838 <prvTimerTask+0x180>
    f748:	f013 0fc7 	tst.w	r3, #199	; 0xc7
    f74c:	d14f      	bne.n	f7ee <prvTimerTask+0x136>
    f74e:	069b      	lsls	r3, r3, #26
    f750:	d5db      	bpl.n	f70a <prvTimerTask+0x52>
    f752:	4630      	mov	r0, r6
    f754:	4b46      	ldr	r3, [pc, #280]	; (f870 <prvTimerTask+0x1b8>)
    f756:	4798      	blx	r3
    f758:	e7d7      	b.n	f70a <prvTimerTask+0x52>
    f75a:	47c8      	blx	r9
    f75c:	4b41      	ldr	r3, [pc, #260]	; (f864 <prvTimerTask+0x1ac>)
    f75e:	4798      	blx	r3
    f760:	6ba2      	ldr	r2, [r4, #56]	; 0x38
    f762:	4282      	cmp	r2, r0
    f764:	4603      	mov	r3, r0
    f766:	d806      	bhi.n	f776 <prvTimerTask+0xbe>
    f768:	6b22      	ldr	r2, [r4, #48]	; 0x30
    f76a:	63a3      	str	r3, [r4, #56]	; 0x38
    f76c:	6812      	ldr	r2, [r2, #0]
    f76e:	fab2 f282 	clz	r2, r2
    f772:	0952      	lsrs	r2, r2, #5
    f774:	e7bc      	b.n	f6f0 <prvTimerTask+0x38>
    f776:	9303      	str	r3, [sp, #12]
    f778:	4b3e      	ldr	r3, [pc, #248]	; (f874 <prvTimerTask+0x1bc>)
    f77a:	4798      	blx	r3
    f77c:	9b03      	ldr	r3, [sp, #12]
    f77e:	63a3      	str	r3, [r4, #56]	; 0x38
    f780:	47c0      	blx	r8
    f782:	e7c2      	b.n	f70a <prvTimerTask+0x52>
    f784:	4b3b      	ldr	r3, [pc, #236]	; (f874 <prvTimerTask+0x1bc>)
    f786:	9003      	str	r0, [sp, #12]
    f788:	4798      	blx	r3
    f78a:	9a03      	ldr	r2, [sp, #12]
    f78c:	e7d2      	b.n	f734 <prvTimerTask+0x7c>
    f78e:	9303      	str	r3, [sp, #12]
    f790:	47c0      	blx	r8
    f792:	6ae2      	ldr	r2, [r4, #44]	; 0x2c
    f794:	4b35      	ldr	r3, [pc, #212]	; (f86c <prvTimerTask+0x1b4>)
    f796:	68d2      	ldr	r2, [r2, #12]
    f798:	f8d2 b00c 	ldr.w	fp, [r2, #12]
    f79c:	f10b 0004 	add.w	r0, fp, #4
    f7a0:	4798      	blx	r3
    f7a2:	f8db 201c 	ldr.w	r2, [fp, #28]
    f7a6:	9b03      	ldr	r3, [sp, #12]
    f7a8:	2a01      	cmp	r2, #1
    f7aa:	d004      	beq.n	f7b6 <prvTimerTask+0xfe>
    f7ac:	f8db 3024 	ldr.w	r3, [fp, #36]	; 0x24
    f7b0:	4658      	mov	r0, fp
    f7b2:	4798      	blx	r3
    f7b4:	e7a9      	b.n	f70a <prvTimerTask+0x52>
    f7b6:	f8db 1018 	ldr.w	r1, [fp, #24]
    f7ba:	4f2f      	ldr	r7, [pc, #188]	; (f878 <prvTimerTask+0x1c0>)
    f7bc:	461a      	mov	r2, r3
    f7be:	4431      	add	r1, r6
    f7c0:	4633      	mov	r3, r6
    f7c2:	4658      	mov	r0, fp
    f7c4:	47b8      	blx	r7
    f7c6:	2800      	cmp	r0, #0
    f7c8:	d0f0      	beq.n	f7ac <prvTimerTask+0xf4>
    f7ca:	2300      	movs	r3, #0
    f7cc:	4632      	mov	r2, r6
    f7ce:	9300      	str	r3, [sp, #0]
    f7d0:	4619      	mov	r1, r3
    f7d2:	4658      	mov	r0, fp
    f7d4:	4e29      	ldr	r6, [pc, #164]	; (f87c <prvTimerTask+0x1c4>)
    f7d6:	47b0      	blx	r6
    f7d8:	2800      	cmp	r0, #0
    f7da:	d1e7      	bne.n	f7ac <prvTimerTask+0xf4>
    f7dc:	f04f 0380 	mov.w	r3, #128	; 0x80
    f7e0:	f383 8811 	msr	BASEPRI, r3
    f7e4:	f3bf 8f6f 	isb	sy
    f7e8:	f3bf 8f4f 	dsb	sy
    f7ec:	e7fe      	b.n	f7ec <prvTimerTask+0x134>
    f7ee:	9b06      	ldr	r3, [sp, #24]
    f7f0:	69b1      	ldr	r1, [r6, #24]
    f7f2:	4f21      	ldr	r7, [pc, #132]	; (f878 <prvTimerTask+0x1c0>)
    f7f4:	4419      	add	r1, r3
    f7f6:	4630      	mov	r0, r6
    f7f8:	47b8      	blx	r7
    f7fa:	2800      	cmp	r0, #0
    f7fc:	d085      	beq.n	f70a <prvTimerTask+0x52>
    f7fe:	6a73      	ldr	r3, [r6, #36]	; 0x24
    f800:	4630      	mov	r0, r6
    f802:	4798      	blx	r3
    f804:	69f3      	ldr	r3, [r6, #28]
    f806:	2b01      	cmp	r3, #1
    f808:	f47f af7f 	bne.w	f70a <prvTimerTask+0x52>
    f80c:	69b3      	ldr	r3, [r6, #24]
    f80e:	9a06      	ldr	r2, [sp, #24]
    f810:	f8cd b000 	str.w	fp, [sp]
    f814:	441a      	add	r2, r3
    f816:	4630      	mov	r0, r6
    f818:	465b      	mov	r3, fp
    f81a:	4659      	mov	r1, fp
    f81c:	4e17      	ldr	r6, [pc, #92]	; (f87c <prvTimerTask+0x1c4>)
    f81e:	47b0      	blx	r6
    f820:	2800      	cmp	r0, #0
    f822:	f47f af72 	bne.w	f70a <prvTimerTask+0x52>
    f826:	f04f 0380 	mov.w	r3, #128	; 0x80
    f82a:	f383 8811 	msr	BASEPRI, r3
    f82e:	f3bf 8f6f 	isb	sy
    f832:	f3bf 8f4f 	dsb	sy
    f836:	e7fe      	b.n	f836 <prvTimerTask+0x17e>
    f838:	9906      	ldr	r1, [sp, #24]
    f83a:	61b1      	str	r1, [r6, #24]
    f83c:	b129      	cbz	r1, f84a <prvTimerTask+0x192>
    f83e:	4411      	add	r1, r2
    f840:	4630      	mov	r0, r6
    f842:	4613      	mov	r3, r2
    f844:	4e0c      	ldr	r6, [pc, #48]	; (f878 <prvTimerTask+0x1c0>)
    f846:	47b0      	blx	r6
    f848:	e75f      	b.n	f70a <prvTimerTask+0x52>
    f84a:	f04f 0380 	mov.w	r3, #128	; 0x80
    f84e:	f383 8811 	msr	BASEPRI, r3
    f852:	f3bf 8f6f 	isb	sy
    f856:	f3bf 8f4f 	dsb	sy
    f85a:	e7fe      	b.n	f85a <prvTimerTask+0x1a2>
    f85c:	2000daa8 	.word	0x2000daa8
    f860:	0000e5a1 	.word	0x0000e5a1
    f864:	0000ece5 	.word	0x0000ece5
    f868:	e000ed04 	.word	0xe000ed04
    f86c:	0000db21 	.word	0x0000db21
    f870:	0000df1d 	.word	0x0000df1d
    f874:	0000f625 	.word	0x0000f625
    f878:	0000f4c9 	.word	0x0000f4c9
    f87c:	0000f5b1 	.word	0x0000f5b1
    f880:	0000ecd1 	.word	0x0000ecd1
    f884:	0000ee2d 	.word	0x0000ee2d
    f888:	0000e8fd 	.word	0x0000e8fd

0000f88c <log>:
    f88c:	e92d 4370 	stmdb	sp!, {r4, r5, r6, r8, r9, lr}
    f890:	b08a      	sub	sp, #40	; 0x28
    f892:	4604      	mov	r4, r0
    f894:	460d      	mov	r5, r1
    f896:	f000 f877 	bl	f988 <__ieee754_log>
    f89a:	4b35      	ldr	r3, [pc, #212]	; (f970 <log+0xe4>)
    f89c:	f993 6000 	ldrsb.w	r6, [r3]
    f8a0:	1c73      	adds	r3, r6, #1
    f8a2:	4680      	mov	r8, r0
    f8a4:	4689      	mov	r9, r1
    f8a6:	d00d      	beq.n	f8c4 <log+0x38>
    f8a8:	4622      	mov	r2, r4
    f8aa:	462b      	mov	r3, r5
    f8ac:	4620      	mov	r0, r4
    f8ae:	4629      	mov	r1, r5
    f8b0:	f000 feea 	bl	10688 <__aeabi_dcmpun>
    f8b4:	b930      	cbnz	r0, f8c4 <log+0x38>
    f8b6:	2200      	movs	r2, #0
    f8b8:	2300      	movs	r3, #0
    f8ba:	4620      	mov	r0, r4
    f8bc:	4629      	mov	r1, r5
    f8be:	f000 fed9 	bl	10674 <__aeabi_dcmpgt>
    f8c2:	b120      	cbz	r0, f8ce <log+0x42>
    f8c4:	4640      	mov	r0, r8
    f8c6:	4649      	mov	r1, r9
    f8c8:	b00a      	add	sp, #40	; 0x28
    f8ca:	e8bd 8370 	ldmia.w	sp!, {r4, r5, r6, r8, r9, pc}
    f8ce:	4b29      	ldr	r3, [pc, #164]	; (f974 <log+0xe8>)
    f8d0:	9008      	str	r0, [sp, #32]
    f8d2:	e9cd 4502 	strd	r4, r5, [sp, #8]
    f8d6:	e9cd 4504 	strd	r4, r5, [sp, #16]
    f8da:	9301      	str	r3, [sp, #4]
    f8dc:	4620      	mov	r0, r4
    f8de:	4629      	mov	r1, r5
    f8e0:	b9ce      	cbnz	r6, f916 <log+0x8a>
    f8e2:	4d25      	ldr	r5, [pc, #148]	; (f978 <log+0xec>)
    f8e4:	f04f 4460 	mov.w	r4, #3758096384	; 0xe0000000
    f8e8:	2200      	movs	r2, #0
    f8ea:	2300      	movs	r3, #0
    f8ec:	e9cd 4506 	strd	r4, r5, [sp, #24]
    f8f0:	f000 fe98 	bl	10624 <__aeabi_dcmpeq>
    f8f4:	2800      	cmp	r0, #0
    f8f6:	d033      	beq.n	f960 <log+0xd4>
    f8f8:	2302      	movs	r3, #2
    f8fa:	9300      	str	r3, [sp, #0]
    f8fc:	4668      	mov	r0, sp
    f8fe:	f000 fa37 	bl	fd70 <matherr>
    f902:	b1a8      	cbz	r0, f930 <log+0xa4>
    f904:	9b08      	ldr	r3, [sp, #32]
    f906:	b9c3      	cbnz	r3, f93a <log+0xae>
    f908:	e9dd 8906 	ldrd	r8, r9, [sp, #24]
    f90c:	4640      	mov	r0, r8
    f90e:	4649      	mov	r1, r9
    f910:	b00a      	add	sp, #40	; 0x28
    f912:	e8bd 8370 	ldmia.w	sp!, {r4, r5, r6, r8, r9, pc}
    f916:	4d19      	ldr	r5, [pc, #100]	; (f97c <log+0xf0>)
    f918:	2400      	movs	r4, #0
    f91a:	2200      	movs	r2, #0
    f91c:	2300      	movs	r3, #0
    f91e:	e9cd 4506 	strd	r4, r5, [sp, #24]
    f922:	f000 fe7f 	bl	10624 <__aeabi_dcmpeq>
    f926:	b168      	cbz	r0, f944 <log+0xb8>
    f928:	2302      	movs	r3, #2
    f92a:	429e      	cmp	r6, r3
    f92c:	9300      	str	r3, [sp, #0]
    f92e:	d1e5      	bne.n	f8fc <log+0x70>
    f930:	f001 f870 	bl	10a14 <__errno>
    f934:	2322      	movs	r3, #34	; 0x22
    f936:	6003      	str	r3, [r0, #0]
    f938:	e7e4      	b.n	f904 <log+0x78>
    f93a:	f001 f86b 	bl	10a14 <__errno>
    f93e:	9b08      	ldr	r3, [sp, #32]
    f940:	6003      	str	r3, [r0, #0]
    f942:	e7e1      	b.n	f908 <log+0x7c>
    f944:	2301      	movs	r3, #1
    f946:	2e02      	cmp	r6, #2
    f948:	9300      	str	r3, [sp, #0]
    f94a:	d10b      	bne.n	f964 <log+0xd8>
    f94c:	f001 f862 	bl	10a14 <__errno>
    f950:	2321      	movs	r3, #33	; 0x21
    f952:	6003      	str	r3, [r0, #0]
    f954:	480a      	ldr	r0, [pc, #40]	; (f980 <log+0xf4>)
    f956:	f000 fa0d 	bl	fd74 <nan>
    f95a:	e9cd 0106 	strd	r0, r1, [sp, #24]
    f95e:	e7d1      	b.n	f904 <log+0x78>
    f960:	2301      	movs	r3, #1
    f962:	9300      	str	r3, [sp, #0]
    f964:	4668      	mov	r0, sp
    f966:	f000 fa03 	bl	fd70 <matherr>
    f96a:	2800      	cmp	r0, #0
    f96c:	d1f2      	bne.n	f954 <log+0xc8>
    f96e:	e7ed      	b.n	f94c <log+0xc0>
    f970:	20002a8c 	.word	0x20002a8c
    f974:	000124a0 	.word	0x000124a0
    f978:	c7efffff 	.word	0xc7efffff
    f97c:	fff00000 	.word	0xfff00000
    f980:	00011f38 	.word	0x00011f38
    f984:	00000000 	.word	0x00000000

0000f988 <__ieee754_log>:
    f988:	e92d 4ff0 	stmdb	sp!, {r4, r5, r6, r7, r8, r9, sl, fp, lr}
    f98c:	f5b1 1f80 	cmp.w	r1, #1048576	; 0x100000
    f990:	b085      	sub	sp, #20
    f992:	4606      	mov	r6, r0
    f994:	460f      	mov	r7, r1
    f996:	460b      	mov	r3, r1
    f998:	da5a      	bge.n	fa50 <__ieee754_log+0xc8>
    f99a:	4602      	mov	r2, r0
    f99c:	f021 4400 	bic.w	r4, r1, #2147483648	; 0x80000000
    f9a0:	4322      	orrs	r2, r4
    f9a2:	f000 80f8 	beq.w	fb96 <__ieee754_log+0x20e>
    f9a6:	2900      	cmp	r1, #0
    f9a8:	f2c0 817a 	blt.w	fca0 <__ieee754_log+0x318>
    f9ac:	2200      	movs	r2, #0
    f9ae:	4bd6      	ldr	r3, [pc, #856]	; (fd08 <__ieee754_log+0x380>)
    f9b0:	f000 fbd0 	bl	10154 <__aeabi_dmul>
    f9b4:	4ad5      	ldr	r2, [pc, #852]	; (fd0c <__ieee754_log+0x384>)
    f9b6:	460b      	mov	r3, r1
    f9b8:	4293      	cmp	r3, r2
    f9ba:	4606      	mov	r6, r0
    f9bc:	460f      	mov	r7, r1
    f9be:	f06f 0c35 	mvn.w	ip, #53	; 0x35
    f9c2:	dc4a      	bgt.n	fa5a <__ieee754_log+0xd2>
    f9c4:	f3c3 0513 	ubfx	r5, r3, #0, #20
    f9c8:	f505 2e15 	add.w	lr, r5, #610304	; 0x95000
    f9cc:	f60e 7e64 	addw	lr, lr, #3940	; 0xf64
    f9d0:	f40e 1e80 	and.w	lr, lr, #1048576	; 0x100000
    f9d4:	f08e 527f 	eor.w	r2, lr, #1069547520	; 0x3fc00000
    f9d8:	f482 1240 	eor.w	r2, r2, #3145728	; 0x300000
    f9dc:	151c      	asrs	r4, r3, #20
    f9de:	ea42 0705 	orr.w	r7, r2, r5
    f9e2:	f2a4 34ff 	subw	r4, r4, #1023	; 0x3ff
    f9e6:	4464      	add	r4, ip
    f9e8:	2200      	movs	r2, #0
    f9ea:	4bc9      	ldr	r3, [pc, #804]	; (fd10 <__ieee754_log+0x388>)
    f9ec:	4630      	mov	r0, r6
    f9ee:	4639      	mov	r1, r7
    f9f0:	eb04 541e 	add.w	r4, r4, lr, lsr #20
    f9f4:	f000 f9fa 	bl	fdec <__aeabi_dsub>
    f9f8:	1cab      	adds	r3, r5, #2
    f9fa:	f3c3 0313 	ubfx	r3, r3, #0, #20
    f9fe:	2b02      	cmp	r3, #2
    fa00:	4682      	mov	sl, r0
    fa02:	468b      	mov	fp, r1
    fa04:	f04f 0200 	mov.w	r2, #0
    fa08:	dc30      	bgt.n	fa6c <__ieee754_log+0xe4>
    fa0a:	2300      	movs	r3, #0
    fa0c:	f000 fe0a 	bl	10624 <__aeabi_dcmpeq>
    fa10:	2800      	cmp	r0, #0
    fa12:	f000 80c9 	beq.w	fba8 <__ieee754_log+0x220>
    fa16:	2c00      	cmp	r4, #0
    fa18:	f000 814b 	beq.w	fcb2 <__ieee754_log+0x32a>
    fa1c:	4620      	mov	r0, r4
    fa1e:	f000 fb33 	bl	10088 <__aeabi_i2d>
    fa22:	a3a5      	add	r3, pc, #660	; (adr r3, fcb8 <__ieee754_log+0x330>)
    fa24:	e9d3 2300 	ldrd	r2, r3, [r3]
    fa28:	4606      	mov	r6, r0
    fa2a:	460f      	mov	r7, r1
    fa2c:	f000 fb92 	bl	10154 <__aeabi_dmul>
    fa30:	a3a3      	add	r3, pc, #652	; (adr r3, fcc0 <__ieee754_log+0x338>)
    fa32:	e9d3 2300 	ldrd	r2, r3, [r3]
    fa36:	4604      	mov	r4, r0
    fa38:	460d      	mov	r5, r1
    fa3a:	4630      	mov	r0, r6
    fa3c:	4639      	mov	r1, r7
    fa3e:	f000 fb89 	bl	10154 <__aeabi_dmul>
    fa42:	4602      	mov	r2, r0
    fa44:	460b      	mov	r3, r1
    fa46:	4620      	mov	r0, r4
    fa48:	4629      	mov	r1, r5
    fa4a:	f000 f9d1 	bl	fdf0 <__adddf3>
    fa4e:	e00a      	b.n	fa66 <__ieee754_log+0xde>
    fa50:	4aae      	ldr	r2, [pc, #696]	; (fd0c <__ieee754_log+0x384>)
    fa52:	4293      	cmp	r3, r2
    fa54:	f04f 0c00 	mov.w	ip, #0
    fa58:	ddb4      	ble.n	f9c4 <__ieee754_log+0x3c>
    fa5a:	4632      	mov	r2, r6
    fa5c:	463b      	mov	r3, r7
    fa5e:	4630      	mov	r0, r6
    fa60:	4639      	mov	r1, r7
    fa62:	f000 f9c5 	bl	fdf0 <__adddf3>
    fa66:	b005      	add	sp, #20
    fa68:	e8bd 8ff0 	ldmia.w	sp!, {r4, r5, r6, r7, r8, r9, sl, fp, pc}
    fa6c:	f04f 4380 	mov.w	r3, #1073741824	; 0x40000000
    fa70:	f000 f9be 	bl	fdf0 <__adddf3>
    fa74:	4602      	mov	r2, r0
    fa76:	460b      	mov	r3, r1
    fa78:	4650      	mov	r0, sl
    fa7a:	4659      	mov	r1, fp
    fa7c:	f000 fc94 	bl	103a8 <__aeabi_ddiv>
    fa80:	4606      	mov	r6, r0
    fa82:	4620      	mov	r0, r4
    fa84:	460f      	mov	r7, r1
    fa86:	f000 faff 	bl	10088 <__aeabi_i2d>
    fa8a:	4632      	mov	r2, r6
    fa8c:	e9cd 0100 	strd	r0, r1, [sp]
    fa90:	463b      	mov	r3, r7
    fa92:	4630      	mov	r0, r6
    fa94:	4639      	mov	r1, r7
    fa96:	e9cd 6702 	strd	r6, r7, [sp, #8]
    fa9a:	f000 fb5b 	bl	10154 <__aeabi_dmul>
    fa9e:	4602      	mov	r2, r0
    faa0:	460b      	mov	r3, r1
    faa2:	4680      	mov	r8, r0
    faa4:	4689      	mov	r9, r1
    faa6:	f000 fb55 	bl	10154 <__aeabi_dmul>
    faaa:	a387      	add	r3, pc, #540	; (adr r3, fcc8 <__ieee754_log+0x340>)
    faac:	e9d3 2300 	ldrd	r2, r3, [r3]
    fab0:	4606      	mov	r6, r0
    fab2:	460f      	mov	r7, r1
    fab4:	f000 fb4e 	bl	10154 <__aeabi_dmul>
    fab8:	a385      	add	r3, pc, #532	; (adr r3, fcd0 <__ieee754_log+0x348>)
    faba:	e9d3 2300 	ldrd	r2, r3, [r3]
    fabe:	f000 f997 	bl	fdf0 <__adddf3>
    fac2:	4632      	mov	r2, r6
    fac4:	463b      	mov	r3, r7
    fac6:	f000 fb45 	bl	10154 <__aeabi_dmul>
    faca:	a383      	add	r3, pc, #524	; (adr r3, fcd8 <__ieee754_log+0x350>)
    facc:	e9d3 2300 	ldrd	r2, r3, [r3]
    fad0:	f000 f98e 	bl	fdf0 <__adddf3>
    fad4:	4632      	mov	r2, r6
    fad6:	463b      	mov	r3, r7
    fad8:	f000 fb3c 	bl	10154 <__aeabi_dmul>
    fadc:	a380      	add	r3, pc, #512	; (adr r3, fce0 <__ieee754_log+0x358>)
    fade:	e9d3 2300 	ldrd	r2, r3, [r3]
    fae2:	f000 f985 	bl	fdf0 <__adddf3>
    fae6:	4642      	mov	r2, r8
    fae8:	464b      	mov	r3, r9
    faea:	f000 fb33 	bl	10154 <__aeabi_dmul>
    faee:	a37e      	add	r3, pc, #504	; (adr r3, fce8 <__ieee754_log+0x360>)
    faf0:	e9d3 2300 	ldrd	r2, r3, [r3]
    faf4:	4680      	mov	r8, r0
    faf6:	4689      	mov	r9, r1
    faf8:	4630      	mov	r0, r6
    fafa:	4639      	mov	r1, r7
    fafc:	f000 fb2a 	bl	10154 <__aeabi_dmul>
    fb00:	a37b      	add	r3, pc, #492	; (adr r3, fcf0 <__ieee754_log+0x368>)
    fb02:	e9d3 2300 	ldrd	r2, r3, [r3]
    fb06:	f000 f973 	bl	fdf0 <__adddf3>
    fb0a:	4632      	mov	r2, r6
    fb0c:	463b      	mov	r3, r7
    fb0e:	f000 fb21 	bl	10154 <__aeabi_dmul>
    fb12:	a379      	add	r3, pc, #484	; (adr r3, fcf8 <__ieee754_log+0x370>)
    fb14:	e9d3 2300 	ldrd	r2, r3, [r3]
    fb18:	f000 f96a 	bl	fdf0 <__adddf3>
    fb1c:	4632      	mov	r2, r6
    fb1e:	463b      	mov	r3, r7
    fb20:	f000 fb18 	bl	10154 <__aeabi_dmul>
    fb24:	460b      	mov	r3, r1
    fb26:	4602      	mov	r2, r0
    fb28:	4649      	mov	r1, r9
    fb2a:	4640      	mov	r0, r8
    fb2c:	f000 f960 	bl	fdf0 <__adddf3>
    fb30:	f5a5 23c2 	sub.w	r3, r5, #397312	; 0x61000
    fb34:	f5c5 25d7 	rsb	r5, r5, #440320	; 0x6b800
    fb38:	f2a3 437a 	subw	r3, r3, #1146	; 0x47a
    fb3c:	3551      	adds	r5, #81	; 0x51
    fb3e:	431d      	orrs	r5, r3
    fb40:	2d00      	cmp	r5, #0
    fb42:	4680      	mov	r8, r0
    fb44:	4689      	mov	r9, r1
    fb46:	dd56      	ble.n	fbf6 <__ieee754_log+0x26e>
    fb48:	2200      	movs	r2, #0
    fb4a:	4b72      	ldr	r3, [pc, #456]	; (fd14 <__ieee754_log+0x38c>)
    fb4c:	4650      	mov	r0, sl
    fb4e:	4659      	mov	r1, fp
    fb50:	f000 fb00 	bl	10154 <__aeabi_dmul>
    fb54:	4652      	mov	r2, sl
    fb56:	465b      	mov	r3, fp
    fb58:	f000 fafc 	bl	10154 <__aeabi_dmul>
    fb5c:	4606      	mov	r6, r0
    fb5e:	460f      	mov	r7, r1
    fb60:	2c00      	cmp	r4, #0
    fb62:	d168      	bne.n	fc36 <__ieee754_log+0x2ae>
    fb64:	4632      	mov	r2, r6
    fb66:	463b      	mov	r3, r7
    fb68:	4640      	mov	r0, r8
    fb6a:	4649      	mov	r1, r9
    fb6c:	f000 f940 	bl	fdf0 <__adddf3>
    fb70:	e9dd 2302 	ldrd	r2, r3, [sp, #8]
    fb74:	f000 faee 	bl	10154 <__aeabi_dmul>
    fb78:	4602      	mov	r2, r0
    fb7a:	460b      	mov	r3, r1
    fb7c:	4630      	mov	r0, r6
    fb7e:	4639      	mov	r1, r7
    fb80:	f000 f934 	bl	fdec <__aeabi_dsub>
    fb84:	4602      	mov	r2, r0
    fb86:	460b      	mov	r3, r1
    fb88:	4650      	mov	r0, sl
    fb8a:	4659      	mov	r1, fp
    fb8c:	f000 f92e 	bl	fdec <__aeabi_dsub>
    fb90:	b005      	add	sp, #20
    fb92:	e8bd 8ff0 	ldmia.w	sp!, {r4, r5, r6, r7, r8, r9, sl, fp, pc}
    fb96:	2200      	movs	r2, #0
    fb98:	2300      	movs	r3, #0
    fb9a:	2000      	movs	r0, #0
    fb9c:	495e      	ldr	r1, [pc, #376]	; (fd18 <__ieee754_log+0x390>)
    fb9e:	f000 fc03 	bl	103a8 <__aeabi_ddiv>
    fba2:	b005      	add	sp, #20
    fba4:	e8bd 8ff0 	ldmia.w	sp!, {r4, r5, r6, r7, r8, r9, sl, fp, pc}
    fba8:	a355      	add	r3, pc, #340	; (adr r3, fd00 <__ieee754_log+0x378>)
    fbaa:	e9d3 2300 	ldrd	r2, r3, [r3]
    fbae:	4650      	mov	r0, sl
    fbb0:	4659      	mov	r1, fp
    fbb2:	f000 facf 	bl	10154 <__aeabi_dmul>
    fbb6:	4602      	mov	r2, r0
    fbb8:	460b      	mov	r3, r1
    fbba:	2000      	movs	r0, #0
    fbbc:	4955      	ldr	r1, [pc, #340]	; (fd14 <__ieee754_log+0x38c>)
    fbbe:	f000 f915 	bl	fdec <__aeabi_dsub>
    fbc2:	4652      	mov	r2, sl
    fbc4:	4606      	mov	r6, r0
    fbc6:	460f      	mov	r7, r1
    fbc8:	465b      	mov	r3, fp
    fbca:	4650      	mov	r0, sl
    fbcc:	4659      	mov	r1, fp
    fbce:	f000 fac1 	bl	10154 <__aeabi_dmul>
    fbd2:	4602      	mov	r2, r0
    fbd4:	460b      	mov	r3, r1
    fbd6:	4630      	mov	r0, r6
    fbd8:	4639      	mov	r1, r7
    fbda:	f000 fabb 	bl	10154 <__aeabi_dmul>
    fbde:	4606      	mov	r6, r0
    fbe0:	460f      	mov	r7, r1
    fbe2:	2c00      	cmp	r4, #0
    fbe4:	f040 809a 	bne.w	fd1c <__ieee754_log+0x394>
    fbe8:	4602      	mov	r2, r0
    fbea:	460b      	mov	r3, r1
    fbec:	4650      	mov	r0, sl
    fbee:	4659      	mov	r1, fp
    fbf0:	f000 f8fc 	bl	fdec <__aeabi_dsub>
    fbf4:	e737      	b.n	fa66 <__ieee754_log+0xde>
    fbf6:	2c00      	cmp	r4, #0
    fbf8:	f000 80a4 	beq.w	fd44 <__ieee754_log+0x3bc>
    fbfc:	a32e      	add	r3, pc, #184	; (adr r3, fcb8 <__ieee754_log+0x330>)
    fbfe:	e9d3 2300 	ldrd	r2, r3, [r3]
    fc02:	e9dd 0100 	ldrd	r0, r1, [sp]
    fc06:	f000 faa5 	bl	10154 <__aeabi_dmul>
    fc0a:	4642      	mov	r2, r8
    fc0c:	464b      	mov	r3, r9
    fc0e:	4604      	mov	r4, r0
    fc10:	460d      	mov	r5, r1
    fc12:	4650      	mov	r0, sl
    fc14:	4659      	mov	r1, fp
    fc16:	f000 f8e9 	bl	fdec <__aeabi_dsub>
    fc1a:	e9dd 2302 	ldrd	r2, r3, [sp, #8]
    fc1e:	f000 fa99 	bl	10154 <__aeabi_dmul>
    fc22:	a327      	add	r3, pc, #156	; (adr r3, fcc0 <__ieee754_log+0x338>)
    fc24:	e9d3 2300 	ldrd	r2, r3, [r3]
    fc28:	4606      	mov	r6, r0
    fc2a:	460f      	mov	r7, r1
    fc2c:	e9dd 0100 	ldrd	r0, r1, [sp]
    fc30:	f000 fa90 	bl	10154 <__aeabi_dmul>
    fc34:	e021      	b.n	fc7a <__ieee754_log+0x2f2>
    fc36:	a320      	add	r3, pc, #128	; (adr r3, fcb8 <__ieee754_log+0x330>)
    fc38:	e9d3 2300 	ldrd	r2, r3, [r3]
    fc3c:	e9dd 0100 	ldrd	r0, r1, [sp]
    fc40:	f000 fa88 	bl	10154 <__aeabi_dmul>
    fc44:	4632      	mov	r2, r6
    fc46:	463b      	mov	r3, r7
    fc48:	4604      	mov	r4, r0
    fc4a:	460d      	mov	r5, r1
    fc4c:	4640      	mov	r0, r8
    fc4e:	4649      	mov	r1, r9
    fc50:	f000 f8ce 	bl	fdf0 <__adddf3>
    fc54:	e9dd 2302 	ldrd	r2, r3, [sp, #8]
    fc58:	f000 fa7c 	bl	10154 <__aeabi_dmul>
    fc5c:	a318      	add	r3, pc, #96	; (adr r3, fcc0 <__ieee754_log+0x338>)
    fc5e:	e9d3 2300 	ldrd	r2, r3, [r3]
    fc62:	4680      	mov	r8, r0
    fc64:	4689      	mov	r9, r1
    fc66:	e9dd 0100 	ldrd	r0, r1, [sp]
    fc6a:	f000 fa73 	bl	10154 <__aeabi_dmul>
    fc6e:	4602      	mov	r2, r0
    fc70:	460b      	mov	r3, r1
    fc72:	4640      	mov	r0, r8
    fc74:	4649      	mov	r1, r9
    fc76:	f000 f8bb 	bl	fdf0 <__adddf3>
    fc7a:	4602      	mov	r2, r0
    fc7c:	460b      	mov	r3, r1
    fc7e:	4630      	mov	r0, r6
    fc80:	4639      	mov	r1, r7
    fc82:	f000 f8b3 	bl	fdec <__aeabi_dsub>
    fc86:	4652      	mov	r2, sl
    fc88:	465b      	mov	r3, fp
    fc8a:	f000 f8af 	bl	fdec <__aeabi_dsub>
    fc8e:	4602      	mov	r2, r0
    fc90:	460b      	mov	r3, r1
    fc92:	4620      	mov	r0, r4
    fc94:	4629      	mov	r1, r5
    fc96:	f000 f8a9 	bl	fdec <__aeabi_dsub>
    fc9a:	b005      	add	sp, #20
    fc9c:	e8bd 8ff0 	ldmia.w	sp!, {r4, r5, r6, r7, r8, r9, sl, fp, pc}
    fca0:	4602      	mov	r2, r0
    fca2:	460b      	mov	r3, r1
    fca4:	f000 f8a2 	bl	fdec <__aeabi_dsub>
    fca8:	2200      	movs	r2, #0
    fcaa:	2300      	movs	r3, #0
    fcac:	f000 fb7c 	bl	103a8 <__aeabi_ddiv>
    fcb0:	e6d9      	b.n	fa66 <__ieee754_log+0xde>
    fcb2:	2000      	movs	r0, #0
    fcb4:	2100      	movs	r1, #0
    fcb6:	e6d6      	b.n	fa66 <__ieee754_log+0xde>
    fcb8:	fee00000 	.word	0xfee00000
    fcbc:	3fe62e42 	.word	0x3fe62e42
    fcc0:	35793c76 	.word	0x35793c76
    fcc4:	3dea39ef 	.word	0x3dea39ef
    fcc8:	df3e5244 	.word	0xdf3e5244
    fccc:	3fc2f112 	.word	0x3fc2f112
    fcd0:	96cb03de 	.word	0x96cb03de
    fcd4:	3fc74664 	.word	0x3fc74664
    fcd8:	94229359 	.word	0x94229359
    fcdc:	3fd24924 	.word	0x3fd24924
    fce0:	55555593 	.word	0x55555593
    fce4:	3fe55555 	.word	0x3fe55555
    fce8:	d078c69f 	.word	0xd078c69f
    fcec:	3fc39a09 	.word	0x3fc39a09
    fcf0:	1d8e78af 	.word	0x1d8e78af
    fcf4:	3fcc71c5 	.word	0x3fcc71c5
    fcf8:	9997fa04 	.word	0x9997fa04
    fcfc:	3fd99999 	.word	0x3fd99999
    fd00:	55555555 	.word	0x55555555
    fd04:	3fd55555 	.word	0x3fd55555
    fd08:	43500000 	.word	0x43500000
    fd0c:	7fefffff 	.word	0x7fefffff
    fd10:	3ff00000 	.word	0x3ff00000
    fd14:	3fe00000 	.word	0x3fe00000
    fd18:	c3500000 	.word	0xc3500000
    fd1c:	4620      	mov	r0, r4
    fd1e:	f000 f9b3 	bl	10088 <__aeabi_i2d>
    fd22:	a30f      	add	r3, pc, #60	; (adr r3, fd60 <__ieee754_log+0x3d8>)
    fd24:	e9d3 2300 	ldrd	r2, r3, [r3]
    fd28:	4680      	mov	r8, r0
    fd2a:	4689      	mov	r9, r1
    fd2c:	f000 fa12 	bl	10154 <__aeabi_dmul>
    fd30:	a30d      	add	r3, pc, #52	; (adr r3, fd68 <__ieee754_log+0x3e0>)
    fd32:	e9d3 2300 	ldrd	r2, r3, [r3]
    fd36:	4604      	mov	r4, r0
    fd38:	460d      	mov	r5, r1
    fd3a:	4640      	mov	r0, r8
    fd3c:	4649      	mov	r1, r9
    fd3e:	f000 fa09 	bl	10154 <__aeabi_dmul>
    fd42:	e79a      	b.n	fc7a <__ieee754_log+0x2f2>
    fd44:	4602      	mov	r2, r0
    fd46:	460b      	mov	r3, r1
    fd48:	4650      	mov	r0, sl
    fd4a:	4659      	mov	r1, fp
    fd4c:	f000 f84e 	bl	fdec <__aeabi_dsub>
    fd50:	e9dd 2302 	ldrd	r2, r3, [sp, #8]
    fd54:	f000 f9fe 	bl	10154 <__aeabi_dmul>
    fd58:	e714      	b.n	fb84 <__ieee754_log+0x1fc>
    fd5a:	bf00      	nop
    fd5c:	f3af 8000 	nop.w
    fd60:	fee00000 	.word	0xfee00000
    fd64:	3fe62e42 	.word	0x3fe62e42
    fd68:	35793c76 	.word	0x35793c76
    fd6c:	3dea39ef 	.word	0x3dea39ef

0000fd70 <matherr>:
    fd70:	2000      	movs	r0, #0
    fd72:	4770      	bx	lr

0000fd74 <nan>:
    fd74:	2000      	movs	r0, #0
    fd76:	4901      	ldr	r1, [pc, #4]	; (fd7c <nan+0x8>)
    fd78:	4770      	bx	lr
    fd7a:	bf00      	nop
    fd7c:	7ff80000 	.word	0x7ff80000

0000fd80 <Crc16>:
    fd80:	b570      	push	{r4, r5, r6, lr}
    fd82:	4605      	mov	r5, r0
    fd84:	f241 0621 	movw	r6, #4129	; 0x1021
    fd88:	1a2b      	subs	r3, r5, r0
    fd8a:	b29b      	uxth	r3, r3
    fd8c:	4299      	cmp	r1, r3
    fd8e:	d802      	bhi.n	fd96 <Crc16+0x16>
    fd90:	43d2      	mvns	r2, r2
    fd92:	b290      	uxth	r0, r2
    fd94:	bd70      	pop	{r4, r5, r6, pc}
    fd96:	f815 3b01 	ldrb.w	r3, [r5], #1
    fd9a:	ea82 2203 	eor.w	r2, r2, r3, lsl #8
    fd9e:	b293      	uxth	r3, r2
    fda0:	2408      	movs	r4, #8
    fda2:	f413 4f00 	tst.w	r3, #32768	; 0x8000
    fda6:	ea4f 0343 	mov.w	r3, r3, lsl #1
    fdaa:	bf18      	it	ne
    fdac:	4073      	eorne	r3, r6
    fdae:	3c01      	subs	r4, #1
    fdb0:	b29b      	uxth	r3, r3
    fdb2:	b2a4      	uxth	r4, r4
    fdb4:	461a      	mov	r2, r3
    fdb6:	2c00      	cmp	r4, #0
    fdb8:	d1f3      	bne.n	fda2 <Crc16+0x22>
    fdba:	e7e5      	b.n	fd88 <Crc16+0x8>

0000fdbc <Crc16Fast>:
    fdbc:	b510      	push	{r4, lr}
    fdbe:	4c08      	ldr	r4, [pc, #32]	; (fde0 <Crc16Fast+0x24>)
    fdc0:	4401      	add	r1, r0
    fdc2:	4288      	cmp	r0, r1
    fdc4:	d101      	bne.n	fdca <Crc16Fast+0xe>
    fdc6:	4610      	mov	r0, r2
    fdc8:	bd10      	pop	{r4, pc}
    fdca:	f810 3b01 	ldrb.w	r3, [r0], #1
    fdce:	ea83 2312 	eor.w	r3, r3, r2, lsr #8
    fdd2:	f834 3013 	ldrh.w	r3, [r4, r3, lsl #1]
    fdd6:	ea83 2202 	eor.w	r2, r3, r2, lsl #8
    fdda:	b292      	uxth	r2, r2
    fddc:	e7f1      	b.n	fdc2 <Crc16Fast+0x6>
    fdde:	bf00      	nop
    fde0:	000124a4 	.word	0x000124a4

0000fde4 <__aeabi_drsub>:
    fde4:	f081 4100 	eor.w	r1, r1, #2147483648	; 0x80000000
    fde8:	e002      	b.n	fdf0 <__adddf3>
    fdea:	bf00      	nop

0000fdec <__aeabi_dsub>:
    fdec:	f083 4300 	eor.w	r3, r3, #2147483648	; 0x80000000

0000fdf0 <__adddf3>:
    fdf0:	b530      	push	{r4, r5, lr}
    fdf2:	ea4f 0441 	mov.w	r4, r1, lsl #1
    fdf6:	ea4f 0543 	mov.w	r5, r3, lsl #1
    fdfa:	ea94 0f05 	teq	r4, r5
    fdfe:	bf08      	it	eq
    fe00:	ea90 0f02 	teqeq	r0, r2
    fe04:	bf1f      	itttt	ne
    fe06:	ea54 0c00 	orrsne.w	ip, r4, r0
    fe0a:	ea55 0c02 	orrsne.w	ip, r5, r2
    fe0e:	ea7f 5c64 	mvnsne.w	ip, r4, asr #21
    fe12:	ea7f 5c65 	mvnsne.w	ip, r5, asr #21
    fe16:	f000 80e2 	beq.w	ffde <__adddf3+0x1ee>
    fe1a:	ea4f 5454 	mov.w	r4, r4, lsr #21
    fe1e:	ebd4 5555 	rsbs	r5, r4, r5, lsr #21
    fe22:	bfb8      	it	lt
    fe24:	426d      	neglt	r5, r5
    fe26:	dd0c      	ble.n	fe42 <__adddf3+0x52>
    fe28:	442c      	add	r4, r5
    fe2a:	ea80 0202 	eor.w	r2, r0, r2
    fe2e:	ea81 0303 	eor.w	r3, r1, r3
    fe32:	ea82 0000 	eor.w	r0, r2, r0
    fe36:	ea83 0101 	eor.w	r1, r3, r1
    fe3a:	ea80 0202 	eor.w	r2, r0, r2
    fe3e:	ea81 0303 	eor.w	r3, r1, r3
    fe42:	2d36      	cmp	r5, #54	; 0x36
    fe44:	bf88      	it	hi
    fe46:	bd30      	pophi	{r4, r5, pc}
    fe48:	f011 4f00 	tst.w	r1, #2147483648	; 0x80000000
    fe4c:	ea4f 3101 	mov.w	r1, r1, lsl #12
    fe50:	f44f 1c80 	mov.w	ip, #1048576	; 0x100000
    fe54:	ea4c 3111 	orr.w	r1, ip, r1, lsr #12
    fe58:	d002      	beq.n	fe60 <__adddf3+0x70>
    fe5a:	4240      	negs	r0, r0
    fe5c:	eb61 0141 	sbc.w	r1, r1, r1, lsl #1
    fe60:	f013 4f00 	tst.w	r3, #2147483648	; 0x80000000
    fe64:	ea4f 3303 	mov.w	r3, r3, lsl #12
    fe68:	ea4c 3313 	orr.w	r3, ip, r3, lsr #12
    fe6c:	d002      	beq.n	fe74 <__adddf3+0x84>
    fe6e:	4252      	negs	r2, r2
    fe70:	eb63 0343 	sbc.w	r3, r3, r3, lsl #1
    fe74:	ea94 0f05 	teq	r4, r5
    fe78:	f000 80a7 	beq.w	ffca <__adddf3+0x1da>
    fe7c:	f1a4 0401 	sub.w	r4, r4, #1
    fe80:	f1d5 0e20 	rsbs	lr, r5, #32
    fe84:	db0d      	blt.n	fea2 <__adddf3+0xb2>
    fe86:	fa02 fc0e 	lsl.w	ip, r2, lr
    fe8a:	fa22 f205 	lsr.w	r2, r2, r5
    fe8e:	1880      	adds	r0, r0, r2
    fe90:	f141 0100 	adc.w	r1, r1, #0
    fe94:	fa03 f20e 	lsl.w	r2, r3, lr
    fe98:	1880      	adds	r0, r0, r2
    fe9a:	fa43 f305 	asr.w	r3, r3, r5
    fe9e:	4159      	adcs	r1, r3
    fea0:	e00e      	b.n	fec0 <__adddf3+0xd0>
    fea2:	f1a5 0520 	sub.w	r5, r5, #32
    fea6:	f10e 0e20 	add.w	lr, lr, #32
    feaa:	2a01      	cmp	r2, #1
    feac:	fa03 fc0e 	lsl.w	ip, r3, lr
    feb0:	bf28      	it	cs
    feb2:	f04c 0c02 	orrcs.w	ip, ip, #2
    feb6:	fa43 f305 	asr.w	r3, r3, r5
    feba:	18c0      	adds	r0, r0, r3
    febc:	eb51 71e3 	adcs.w	r1, r1, r3, asr #31
    fec0:	f001 4500 	and.w	r5, r1, #2147483648	; 0x80000000
    fec4:	d507      	bpl.n	fed6 <__adddf3+0xe6>
    fec6:	f04f 0e00 	mov.w	lr, #0
    feca:	f1dc 0c00 	rsbs	ip, ip, #0
    fece:	eb7e 0000 	sbcs.w	r0, lr, r0
    fed2:	eb6e 0101 	sbc.w	r1, lr, r1
    fed6:	f5b1 1f80 	cmp.w	r1, #1048576	; 0x100000
    feda:	d31b      	bcc.n	ff14 <__adddf3+0x124>
    fedc:	f5b1 1f00 	cmp.w	r1, #2097152	; 0x200000
    fee0:	d30c      	bcc.n	fefc <__adddf3+0x10c>
    fee2:	0849      	lsrs	r1, r1, #1
    fee4:	ea5f 0030 	movs.w	r0, r0, rrx
    fee8:	ea4f 0c3c 	mov.w	ip, ip, rrx
    feec:	f104 0401 	add.w	r4, r4, #1
    fef0:	ea4f 5244 	mov.w	r2, r4, lsl #21
    fef4:	f512 0f80 	cmn.w	r2, #4194304	; 0x400000
    fef8:	f080 809a 	bcs.w	10030 <__adddf3+0x240>
    fefc:	f1bc 4f00 	cmp.w	ip, #2147483648	; 0x80000000
    ff00:	bf08      	it	eq
    ff02:	ea5f 0c50 	movseq.w	ip, r0, lsr #1
    ff06:	f150 0000 	adcs.w	r0, r0, #0
    ff0a:	eb41 5104 	adc.w	r1, r1, r4, lsl #20
    ff0e:	ea41 0105 	orr.w	r1, r1, r5
    ff12:	bd30      	pop	{r4, r5, pc}
    ff14:	ea5f 0c4c 	movs.w	ip, ip, lsl #1
    ff18:	4140      	adcs	r0, r0
    ff1a:	eb41 0101 	adc.w	r1, r1, r1
    ff1e:	f411 1f80 	tst.w	r1, #1048576	; 0x100000
    ff22:	f1a4 0401 	sub.w	r4, r4, #1
    ff26:	d1e9      	bne.n	fefc <__adddf3+0x10c>
    ff28:	f091 0f00 	teq	r1, #0
    ff2c:	bf04      	itt	eq
    ff2e:	4601      	moveq	r1, r0
    ff30:	2000      	moveq	r0, #0
    ff32:	fab1 f381 	clz	r3, r1
    ff36:	bf08      	it	eq
    ff38:	3320      	addeq	r3, #32
    ff3a:	f1a3 030b 	sub.w	r3, r3, #11
    ff3e:	f1b3 0220 	subs.w	r2, r3, #32
    ff42:	da0c      	bge.n	ff5e <__adddf3+0x16e>
    ff44:	320c      	adds	r2, #12
    ff46:	dd08      	ble.n	ff5a <__adddf3+0x16a>
    ff48:	f102 0c14 	add.w	ip, r2, #20
    ff4c:	f1c2 020c 	rsb	r2, r2, #12
    ff50:	fa01 f00c 	lsl.w	r0, r1, ip
    ff54:	fa21 f102 	lsr.w	r1, r1, r2
    ff58:	e00c      	b.n	ff74 <__adddf3+0x184>
    ff5a:	f102 0214 	add.w	r2, r2, #20
    ff5e:	bfd8      	it	le
    ff60:	f1c2 0c20 	rsble	ip, r2, #32
    ff64:	fa01 f102 	lsl.w	r1, r1, r2
    ff68:	fa20 fc0c 	lsr.w	ip, r0, ip
    ff6c:	bfdc      	itt	le
    ff6e:	ea41 010c 	orrle.w	r1, r1, ip
    ff72:	4090      	lslle	r0, r2
    ff74:	1ae4      	subs	r4, r4, r3
    ff76:	bfa2      	ittt	ge
    ff78:	eb01 5104 	addge.w	r1, r1, r4, lsl #20
    ff7c:	4329      	orrge	r1, r5
    ff7e:	bd30      	popge	{r4, r5, pc}
    ff80:	ea6f 0404 	mvn.w	r4, r4
    ff84:	3c1f      	subs	r4, #31
    ff86:	da1c      	bge.n	ffc2 <__adddf3+0x1d2>
    ff88:	340c      	adds	r4, #12
    ff8a:	dc0e      	bgt.n	ffaa <__adddf3+0x1ba>
    ff8c:	f104 0414 	add.w	r4, r4, #20
    ff90:	f1c4 0220 	rsb	r2, r4, #32
    ff94:	fa20 f004 	lsr.w	r0, r0, r4
    ff98:	fa01 f302 	lsl.w	r3, r1, r2
    ff9c:	ea40 0003 	orr.w	r0, r0, r3
    ffa0:	fa21 f304 	lsr.w	r3, r1, r4
    ffa4:	ea45 0103 	orr.w	r1, r5, r3
    ffa8:	bd30      	pop	{r4, r5, pc}
    ffaa:	f1c4 040c 	rsb	r4, r4, #12
    ffae:	f1c4 0220 	rsb	r2, r4, #32
    ffb2:	fa20 f002 	lsr.w	r0, r0, r2
    ffb6:	fa01 f304 	lsl.w	r3, r1, r4
    ffba:	ea40 0003 	orr.w	r0, r0, r3
    ffbe:	4629      	mov	r1, r5
    ffc0:	bd30      	pop	{r4, r5, pc}
    ffc2:	fa21 f004 	lsr.w	r0, r1, r4
    ffc6:	4629      	mov	r1, r5
    ffc8:	bd30      	pop	{r4, r5, pc}
    ffca:	f094 0f00 	teq	r4, #0
    ffce:	f483 1380 	eor.w	r3, r3, #1048576	; 0x100000
    ffd2:	bf06      	itte	eq
    ffd4:	f481 1180 	eoreq.w	r1, r1, #1048576	; 0x100000
    ffd8:	3401      	addeq	r4, #1
    ffda:	3d01      	subne	r5, #1
    ffdc:	e74e      	b.n	fe7c <__adddf3+0x8c>
    ffde:	ea7f 5c64 	mvns.w	ip, r4, asr #21
    ffe2:	bf18      	it	ne
    ffe4:	ea7f 5c65 	mvnsne.w	ip, r5, asr #21
    ffe8:	d029      	beq.n	1003e <__adddf3+0x24e>
    ffea:	ea94 0f05 	teq	r4, r5
    ffee:	bf08      	it	eq
    fff0:	ea90 0f02 	teqeq	r0, r2
    fff4:	d005      	beq.n	10002 <__adddf3+0x212>
    fff6:	ea54 0c00 	orrs.w	ip, r4, r0
    fffa:	bf04      	itt	eq
    fffc:	4619      	moveq	r1, r3
    fffe:	4610      	moveq	r0, r2
   10000:	bd30      	pop	{r4, r5, pc}
   10002:	ea91 0f03 	teq	r1, r3
   10006:	bf1e      	ittt	ne
   10008:	2100      	movne	r1, #0
   1000a:	2000      	movne	r0, #0
   1000c:	bd30      	popne	{r4, r5, pc}
   1000e:	ea5f 5c54 	movs.w	ip, r4, lsr #21
   10012:	d105      	bne.n	10020 <__adddf3+0x230>
   10014:	0040      	lsls	r0, r0, #1
   10016:	4149      	adcs	r1, r1
   10018:	bf28      	it	cs
   1001a:	f041 4100 	orrcs.w	r1, r1, #2147483648	; 0x80000000
   1001e:	bd30      	pop	{r4, r5, pc}
   10020:	f514 0480 	adds.w	r4, r4, #4194304	; 0x400000
   10024:	bf3c      	itt	cc
   10026:	f501 1180 	addcc.w	r1, r1, #1048576	; 0x100000
   1002a:	bd30      	popcc	{r4, r5, pc}
   1002c:	f001 4500 	and.w	r5, r1, #2147483648	; 0x80000000
   10030:	f045 41fe 	orr.w	r1, r5, #2130706432	; 0x7f000000
   10034:	f441 0170 	orr.w	r1, r1, #15728640	; 0xf00000
   10038:	f04f 0000 	mov.w	r0, #0
   1003c:	bd30      	pop	{r4, r5, pc}
   1003e:	ea7f 5c64 	mvns.w	ip, r4, asr #21
   10042:	bf1a      	itte	ne
   10044:	4619      	movne	r1, r3
   10046:	4610      	movne	r0, r2
   10048:	ea7f 5c65 	mvnseq.w	ip, r5, asr #21
   1004c:	bf1c      	itt	ne
   1004e:	460b      	movne	r3, r1
   10050:	4602      	movne	r2, r0
   10052:	ea50 3401 	orrs.w	r4, r0, r1, lsl #12
   10056:	bf06      	itte	eq
   10058:	ea52 3503 	orrseq.w	r5, r2, r3, lsl #12
   1005c:	ea91 0f03 	teqeq	r1, r3
   10060:	f441 2100 	orrne.w	r1, r1, #524288	; 0x80000
   10064:	bd30      	pop	{r4, r5, pc}
   10066:	bf00      	nop

00010068 <__aeabi_ui2d>:
   10068:	f090 0f00 	teq	r0, #0
   1006c:	bf04      	itt	eq
   1006e:	2100      	moveq	r1, #0
   10070:	4770      	bxeq	lr
   10072:	b530      	push	{r4, r5, lr}
   10074:	f44f 6480 	mov.w	r4, #1024	; 0x400
   10078:	f104 0432 	add.w	r4, r4, #50	; 0x32
   1007c:	f04f 0500 	mov.w	r5, #0
   10080:	f04f 0100 	mov.w	r1, #0
   10084:	e750      	b.n	ff28 <__adddf3+0x138>
   10086:	bf00      	nop

00010088 <__aeabi_i2d>:
   10088:	f090 0f00 	teq	r0, #0
   1008c:	bf04      	itt	eq
   1008e:	2100      	moveq	r1, #0
   10090:	4770      	bxeq	lr
   10092:	b530      	push	{r4, r5, lr}
   10094:	f44f 6480 	mov.w	r4, #1024	; 0x400
   10098:	f104 0432 	add.w	r4, r4, #50	; 0x32
   1009c:	f010 4500 	ands.w	r5, r0, #2147483648	; 0x80000000
   100a0:	bf48      	it	mi
   100a2:	4240      	negmi	r0, r0
   100a4:	f04f 0100 	mov.w	r1, #0
   100a8:	e73e      	b.n	ff28 <__adddf3+0x138>
   100aa:	bf00      	nop

000100ac <__aeabi_f2d>:
   100ac:	0042      	lsls	r2, r0, #1
   100ae:	ea4f 01e2 	mov.w	r1, r2, asr #3
   100b2:	ea4f 0131 	mov.w	r1, r1, rrx
   100b6:	ea4f 7002 	mov.w	r0, r2, lsl #28
   100ba:	bf1f      	itttt	ne
   100bc:	f012 437f 	andsne.w	r3, r2, #4278190080	; 0xff000000
   100c0:	f093 4f7f 	teqne	r3, #4278190080	; 0xff000000
   100c4:	f081 5160 	eorne.w	r1, r1, #939524096	; 0x38000000
   100c8:	4770      	bxne	lr
   100ca:	f092 0f00 	teq	r2, #0
   100ce:	bf14      	ite	ne
   100d0:	f093 4f7f 	teqne	r3, #4278190080	; 0xff000000
   100d4:	4770      	bxeq	lr
   100d6:	b530      	push	{r4, r5, lr}
   100d8:	f44f 7460 	mov.w	r4, #896	; 0x380
   100dc:	f001 4500 	and.w	r5, r1, #2147483648	; 0x80000000
   100e0:	f021 4100 	bic.w	r1, r1, #2147483648	; 0x80000000
   100e4:	e720      	b.n	ff28 <__adddf3+0x138>
   100e6:	bf00      	nop

000100e8 <__aeabi_ul2d>:
   100e8:	ea50 0201 	orrs.w	r2, r0, r1
   100ec:	bf08      	it	eq
   100ee:	4770      	bxeq	lr
   100f0:	b530      	push	{r4, r5, lr}
   100f2:	f04f 0500 	mov.w	r5, #0
   100f6:	e00a      	b.n	1010e <__aeabi_l2d+0x16>

000100f8 <__aeabi_l2d>:
   100f8:	ea50 0201 	orrs.w	r2, r0, r1
   100fc:	bf08      	it	eq
   100fe:	4770      	bxeq	lr
   10100:	b530      	push	{r4, r5, lr}
   10102:	f011 4500 	ands.w	r5, r1, #2147483648	; 0x80000000
   10106:	d502      	bpl.n	1010e <__aeabi_l2d+0x16>
   10108:	4240      	negs	r0, r0
   1010a:	eb61 0141 	sbc.w	r1, r1, r1, lsl #1
   1010e:	f44f 6480 	mov.w	r4, #1024	; 0x400
   10112:	f104 0432 	add.w	r4, r4, #50	; 0x32
   10116:	ea5f 5c91 	movs.w	ip, r1, lsr #22
   1011a:	f43f aedc 	beq.w	fed6 <__adddf3+0xe6>
   1011e:	f04f 0203 	mov.w	r2, #3
   10122:	ea5f 0cdc 	movs.w	ip, ip, lsr #3
   10126:	bf18      	it	ne
   10128:	3203      	addne	r2, #3
   1012a:	ea5f 0cdc 	movs.w	ip, ip, lsr #3
   1012e:	bf18      	it	ne
   10130:	3203      	addne	r2, #3
   10132:	eb02 02dc 	add.w	r2, r2, ip, lsr #3
   10136:	f1c2 0320 	rsb	r3, r2, #32
   1013a:	fa00 fc03 	lsl.w	ip, r0, r3
   1013e:	fa20 f002 	lsr.w	r0, r0, r2
   10142:	fa01 fe03 	lsl.w	lr, r1, r3
   10146:	ea40 000e 	orr.w	r0, r0, lr
   1014a:	fa21 f102 	lsr.w	r1, r1, r2
   1014e:	4414      	add	r4, r2
   10150:	e6c1      	b.n	fed6 <__adddf3+0xe6>
   10152:	bf00      	nop

00010154 <__aeabi_dmul>:
   10154:	b570      	push	{r4, r5, r6, lr}
   10156:	f04f 0cff 	mov.w	ip, #255	; 0xff
   1015a:	f44c 6ce0 	orr.w	ip, ip, #1792	; 0x700
   1015e:	ea1c 5411 	ands.w	r4, ip, r1, lsr #20
   10162:	bf1d      	ittte	ne
   10164:	ea1c 5513 	andsne.w	r5, ip, r3, lsr #20
   10168:	ea94 0f0c 	teqne	r4, ip
   1016c:	ea95 0f0c 	teqne	r5, ip
   10170:	f000 f8de 	bleq	10330 <__aeabi_dmul+0x1dc>
   10174:	442c      	add	r4, r5
   10176:	ea81 0603 	eor.w	r6, r1, r3
   1017a:	ea21 514c 	bic.w	r1, r1, ip, lsl #21
   1017e:	ea23 534c 	bic.w	r3, r3, ip, lsl #21
   10182:	ea50 3501 	orrs.w	r5, r0, r1, lsl #12
   10186:	bf18      	it	ne
   10188:	ea52 3503 	orrsne.w	r5, r2, r3, lsl #12
   1018c:	f441 1180 	orr.w	r1, r1, #1048576	; 0x100000
   10190:	f443 1380 	orr.w	r3, r3, #1048576	; 0x100000
   10194:	d038      	beq.n	10208 <__aeabi_dmul+0xb4>
   10196:	fba0 ce02 	umull	ip, lr, r0, r2
   1019a:	f04f 0500 	mov.w	r5, #0
   1019e:	fbe1 e502 	umlal	lr, r5, r1, r2
   101a2:	f006 4200 	and.w	r2, r6, #2147483648	; 0x80000000
   101a6:	fbe0 e503 	umlal	lr, r5, r0, r3
   101aa:	f04f 0600 	mov.w	r6, #0
   101ae:	fbe1 5603 	umlal	r5, r6, r1, r3
   101b2:	f09c 0f00 	teq	ip, #0
   101b6:	bf18      	it	ne
   101b8:	f04e 0e01 	orrne.w	lr, lr, #1
   101bc:	f1a4 04ff 	sub.w	r4, r4, #255	; 0xff
   101c0:	f5b6 7f00 	cmp.w	r6, #512	; 0x200
   101c4:	f564 7440 	sbc.w	r4, r4, #768	; 0x300
   101c8:	d204      	bcs.n	101d4 <__aeabi_dmul+0x80>
   101ca:	ea5f 0e4e 	movs.w	lr, lr, lsl #1
   101ce:	416d      	adcs	r5, r5
   101d0:	eb46 0606 	adc.w	r6, r6, r6
   101d4:	ea42 21c6 	orr.w	r1, r2, r6, lsl #11
   101d8:	ea41 5155 	orr.w	r1, r1, r5, lsr #21
   101dc:	ea4f 20c5 	mov.w	r0, r5, lsl #11
   101e0:	ea40 505e 	orr.w	r0, r0, lr, lsr #21
   101e4:	ea4f 2ece 	mov.w	lr, lr, lsl #11
   101e8:	f1b4 0cfd 	subs.w	ip, r4, #253	; 0xfd
   101ec:	bf88      	it	hi
   101ee:	f5bc 6fe0 	cmphi.w	ip, #1792	; 0x700
   101f2:	d81e      	bhi.n	10232 <__aeabi_dmul+0xde>
   101f4:	f1be 4f00 	cmp.w	lr, #2147483648	; 0x80000000
   101f8:	bf08      	it	eq
   101fa:	ea5f 0e50 	movseq.w	lr, r0, lsr #1
   101fe:	f150 0000 	adcs.w	r0, r0, #0
   10202:	eb41 5104 	adc.w	r1, r1, r4, lsl #20
   10206:	bd70      	pop	{r4, r5, r6, pc}
   10208:	f006 4600 	and.w	r6, r6, #2147483648	; 0x80000000
   1020c:	ea46 0101 	orr.w	r1, r6, r1
   10210:	ea40 0002 	orr.w	r0, r0, r2
   10214:	ea81 0103 	eor.w	r1, r1, r3
   10218:	ebb4 045c 	subs.w	r4, r4, ip, lsr #1
   1021c:	bfc2      	ittt	gt
   1021e:	ebd4 050c 	rsbsgt	r5, r4, ip
   10222:	ea41 5104 	orrgt.w	r1, r1, r4, lsl #20
   10226:	bd70      	popgt	{r4, r5, r6, pc}
   10228:	f441 1180 	orr.w	r1, r1, #1048576	; 0x100000
   1022c:	f04f 0e00 	mov.w	lr, #0
   10230:	3c01      	subs	r4, #1
   10232:	f300 80ab 	bgt.w	1038c <__aeabi_dmul+0x238>
   10236:	f114 0f36 	cmn.w	r4, #54	; 0x36
   1023a:	bfde      	ittt	le
   1023c:	2000      	movle	r0, #0
   1023e:	f001 4100 	andle.w	r1, r1, #2147483648	; 0x80000000
   10242:	bd70      	pople	{r4, r5, r6, pc}
   10244:	f1c4 0400 	rsb	r4, r4, #0
   10248:	3c20      	subs	r4, #32
   1024a:	da35      	bge.n	102b8 <__aeabi_dmul+0x164>
   1024c:	340c      	adds	r4, #12
   1024e:	dc1b      	bgt.n	10288 <__aeabi_dmul+0x134>
   10250:	f104 0414 	add.w	r4, r4, #20
   10254:	f1c4 0520 	rsb	r5, r4, #32
   10258:	fa00 f305 	lsl.w	r3, r0, r5
   1025c:	fa20 f004 	lsr.w	r0, r0, r4
   10260:	fa01 f205 	lsl.w	r2, r1, r5
   10264:	ea40 0002 	orr.w	r0, r0, r2
   10268:	f001 4200 	and.w	r2, r1, #2147483648	; 0x80000000
   1026c:	f021 4100 	bic.w	r1, r1, #2147483648	; 0x80000000
   10270:	eb10 70d3 	adds.w	r0, r0, r3, lsr #31
   10274:	fa21 f604 	lsr.w	r6, r1, r4
   10278:	eb42 0106 	adc.w	r1, r2, r6
   1027c:	ea5e 0e43 	orrs.w	lr, lr, r3, lsl #1
   10280:	bf08      	it	eq
   10282:	ea20 70d3 	biceq.w	r0, r0, r3, lsr #31
   10286:	bd70      	pop	{r4, r5, r6, pc}
   10288:	f1c4 040c 	rsb	r4, r4, #12
   1028c:	f1c4 0520 	rsb	r5, r4, #32
   10290:	fa00 f304 	lsl.w	r3, r0, r4
   10294:	fa20 f005 	lsr.w	r0, r0, r5
   10298:	fa01 f204 	lsl.w	r2, r1, r4
   1029c:	ea40 0002 	orr.w	r0, r0, r2
   102a0:	f001 4100 	and.w	r1, r1, #2147483648	; 0x80000000
   102a4:	eb10 70d3 	adds.w	r0, r0, r3, lsr #31
   102a8:	f141 0100 	adc.w	r1, r1, #0
   102ac:	ea5e 0e43 	orrs.w	lr, lr, r3, lsl #1
   102b0:	bf08      	it	eq
   102b2:	ea20 70d3 	biceq.w	r0, r0, r3, lsr #31
   102b6:	bd70      	pop	{r4, r5, r6, pc}
   102b8:	f1c4 0520 	rsb	r5, r4, #32
   102bc:	fa00 f205 	lsl.w	r2, r0, r5
   102c0:	ea4e 0e02 	orr.w	lr, lr, r2
   102c4:	fa20 f304 	lsr.w	r3, r0, r4
   102c8:	fa01 f205 	lsl.w	r2, r1, r5
   102cc:	ea43 0302 	orr.w	r3, r3, r2
   102d0:	fa21 f004 	lsr.w	r0, r1, r4
   102d4:	f001 4100 	and.w	r1, r1, #2147483648	; 0x80000000
   102d8:	fa21 f204 	lsr.w	r2, r1, r4
   102dc:	ea20 0002 	bic.w	r0, r0, r2
   102e0:	eb00 70d3 	add.w	r0, r0, r3, lsr #31
   102e4:	ea5e 0e43 	orrs.w	lr, lr, r3, lsl #1
   102e8:	bf08      	it	eq
   102ea:	ea20 70d3 	biceq.w	r0, r0, r3, lsr #31
   102ee:	bd70      	pop	{r4, r5, r6, pc}
   102f0:	f094 0f00 	teq	r4, #0
   102f4:	d10f      	bne.n	10316 <__aeabi_dmul+0x1c2>
   102f6:	f001 4600 	and.w	r6, r1, #2147483648	; 0x80000000
   102fa:	0040      	lsls	r0, r0, #1
   102fc:	eb41 0101 	adc.w	r1, r1, r1
   10300:	f411 1f80 	tst.w	r1, #1048576	; 0x100000
   10304:	bf08      	it	eq
   10306:	3c01      	subeq	r4, #1
   10308:	d0f7      	beq.n	102fa <__aeabi_dmul+0x1a6>
   1030a:	ea41 0106 	orr.w	r1, r1, r6
   1030e:	f095 0f00 	teq	r5, #0
   10312:	bf18      	it	ne
   10314:	4770      	bxne	lr
   10316:	f003 4600 	and.w	r6, r3, #2147483648	; 0x80000000
   1031a:	0052      	lsls	r2, r2, #1
   1031c:	eb43 0303 	adc.w	r3, r3, r3
   10320:	f413 1f80 	tst.w	r3, #1048576	; 0x100000
   10324:	bf08      	it	eq
   10326:	3d01      	subeq	r5, #1
   10328:	d0f7      	beq.n	1031a <__aeabi_dmul+0x1c6>
   1032a:	ea43 0306 	orr.w	r3, r3, r6
   1032e:	4770      	bx	lr
   10330:	ea94 0f0c 	teq	r4, ip
   10334:	ea0c 5513 	and.w	r5, ip, r3, lsr #20
   10338:	bf18      	it	ne
   1033a:	ea95 0f0c 	teqne	r5, ip
   1033e:	d00c      	beq.n	1035a <__aeabi_dmul+0x206>
   10340:	ea50 0641 	orrs.w	r6, r0, r1, lsl #1
   10344:	bf18      	it	ne
   10346:	ea52 0643 	orrsne.w	r6, r2, r3, lsl #1
   1034a:	d1d1      	bne.n	102f0 <__aeabi_dmul+0x19c>
   1034c:	ea81 0103 	eor.w	r1, r1, r3
   10350:	f001 4100 	and.w	r1, r1, #2147483648	; 0x80000000
   10354:	f04f 0000 	mov.w	r0, #0
   10358:	bd70      	pop	{r4, r5, r6, pc}
   1035a:	ea50 0641 	orrs.w	r6, r0, r1, lsl #1
   1035e:	bf06      	itte	eq
   10360:	4610      	moveq	r0, r2
   10362:	4619      	moveq	r1, r3
   10364:	ea52 0643 	orrsne.w	r6, r2, r3, lsl #1
   10368:	d019      	beq.n	1039e <__aeabi_dmul+0x24a>
   1036a:	ea94 0f0c 	teq	r4, ip
   1036e:	d102      	bne.n	10376 <__aeabi_dmul+0x222>
   10370:	ea50 3601 	orrs.w	r6, r0, r1, lsl #12
   10374:	d113      	bne.n	1039e <__aeabi_dmul+0x24a>
   10376:	ea95 0f0c 	teq	r5, ip
   1037a:	d105      	bne.n	10388 <__aeabi_dmul+0x234>
   1037c:	ea52 3603 	orrs.w	r6, r2, r3, lsl #12
   10380:	bf1c      	itt	ne
   10382:	4610      	movne	r0, r2
   10384:	4619      	movne	r1, r3
   10386:	d10a      	bne.n	1039e <__aeabi_dmul+0x24a>
   10388:	ea81 0103 	eor.w	r1, r1, r3
   1038c:	f001 4100 	and.w	r1, r1, #2147483648	; 0x80000000
   10390:	f041 41fe 	orr.w	r1, r1, #2130706432	; 0x7f000000
   10394:	f441 0170 	orr.w	r1, r1, #15728640	; 0xf00000
   10398:	f04f 0000 	mov.w	r0, #0
   1039c:	bd70      	pop	{r4, r5, r6, pc}
   1039e:	f041 41fe 	orr.w	r1, r1, #2130706432	; 0x7f000000
   103a2:	f441 0178 	orr.w	r1, r1, #16252928	; 0xf80000
   103a6:	bd70      	pop	{r4, r5, r6, pc}

000103a8 <__aeabi_ddiv>:
   103a8:	b570      	push	{r4, r5, r6, lr}
   103aa:	f04f 0cff 	mov.w	ip, #255	; 0xff
   103ae:	f44c 6ce0 	orr.w	ip, ip, #1792	; 0x700
   103b2:	ea1c 5411 	ands.w	r4, ip, r1, lsr #20
   103b6:	bf1d      	ittte	ne
   103b8:	ea1c 5513 	andsne.w	r5, ip, r3, lsr #20
   103bc:	ea94 0f0c 	teqne	r4, ip
   103c0:	ea95 0f0c 	teqne	r5, ip
   103c4:	f000 f8a7 	bleq	10516 <__aeabi_ddiv+0x16e>
   103c8:	eba4 0405 	sub.w	r4, r4, r5
   103cc:	ea81 0e03 	eor.w	lr, r1, r3
   103d0:	ea52 3503 	orrs.w	r5, r2, r3, lsl #12
   103d4:	ea4f 3101 	mov.w	r1, r1, lsl #12
   103d8:	f000 8088 	beq.w	104ec <__aeabi_ddiv+0x144>
   103dc:	ea4f 3303 	mov.w	r3, r3, lsl #12
   103e0:	f04f 5580 	mov.w	r5, #268435456	; 0x10000000
   103e4:	ea45 1313 	orr.w	r3, r5, r3, lsr #4
   103e8:	ea43 6312 	orr.w	r3, r3, r2, lsr #24
   103ec:	ea4f 2202 	mov.w	r2, r2, lsl #8
   103f0:	ea45 1511 	orr.w	r5, r5, r1, lsr #4
   103f4:	ea45 6510 	orr.w	r5, r5, r0, lsr #24
   103f8:	ea4f 2600 	mov.w	r6, r0, lsl #8
   103fc:	f00e 4100 	and.w	r1, lr, #2147483648	; 0x80000000
   10400:	429d      	cmp	r5, r3
   10402:	bf08      	it	eq
   10404:	4296      	cmpeq	r6, r2
   10406:	f144 04fd 	adc.w	r4, r4, #253	; 0xfd
   1040a:	f504 7440 	add.w	r4, r4, #768	; 0x300
   1040e:	d202      	bcs.n	10416 <__aeabi_ddiv+0x6e>
   10410:	085b      	lsrs	r3, r3, #1
   10412:	ea4f 0232 	mov.w	r2, r2, rrx
   10416:	1ab6      	subs	r6, r6, r2
   10418:	eb65 0503 	sbc.w	r5, r5, r3
   1041c:	085b      	lsrs	r3, r3, #1
   1041e:	ea4f 0232 	mov.w	r2, r2, rrx
   10422:	f44f 1080 	mov.w	r0, #1048576	; 0x100000
   10426:	f44f 2c00 	mov.w	ip, #524288	; 0x80000
   1042a:	ebb6 0e02 	subs.w	lr, r6, r2
   1042e:	eb75 0e03 	sbcs.w	lr, r5, r3
   10432:	bf22      	ittt	cs
   10434:	1ab6      	subcs	r6, r6, r2
   10436:	4675      	movcs	r5, lr
   10438:	ea40 000c 	orrcs.w	r0, r0, ip
   1043c:	085b      	lsrs	r3, r3, #1
   1043e:	ea4f 0232 	mov.w	r2, r2, rrx
   10442:	ebb6 0e02 	subs.w	lr, r6, r2
   10446:	eb75 0e03 	sbcs.w	lr, r5, r3
   1044a:	bf22      	ittt	cs
   1044c:	1ab6      	subcs	r6, r6, r2
   1044e:	4675      	movcs	r5, lr
   10450:	ea40 005c 	orrcs.w	r0, r0, ip, lsr #1
   10454:	085b      	lsrs	r3, r3, #1
   10456:	ea4f 0232 	mov.w	r2, r2, rrx
   1045a:	ebb6 0e02 	subs.w	lr, r6, r2
   1045e:	eb75 0e03 	sbcs.w	lr, r5, r3
   10462:	bf22      	ittt	cs
   10464:	1ab6      	subcs	r6, r6, r2
   10466:	4675      	movcs	r5, lr
   10468:	ea40 009c 	orrcs.w	r0, r0, ip, lsr #2
   1046c:	085b      	lsrs	r3, r3, #1
   1046e:	ea4f 0232 	mov.w	r2, r2, rrx
   10472:	ebb6 0e02 	subs.w	lr, r6, r2
   10476:	eb75 0e03 	sbcs.w	lr, r5, r3
   1047a:	bf22      	ittt	cs
   1047c:	1ab6      	subcs	r6, r6, r2
   1047e:	4675      	movcs	r5, lr
   10480:	ea40 00dc 	orrcs.w	r0, r0, ip, lsr #3
   10484:	ea55 0e06 	orrs.w	lr, r5, r6
   10488:	d018      	beq.n	104bc <__aeabi_ddiv+0x114>
   1048a:	ea4f 1505 	mov.w	r5, r5, lsl #4
   1048e:	ea45 7516 	orr.w	r5, r5, r6, lsr #28
   10492:	ea4f 1606 	mov.w	r6, r6, lsl #4
   10496:	ea4f 03c3 	mov.w	r3, r3, lsl #3
   1049a:	ea43 7352 	orr.w	r3, r3, r2, lsr #29
   1049e:	ea4f 02c2 	mov.w	r2, r2, lsl #3
   104a2:	ea5f 1c1c 	movs.w	ip, ip, lsr #4
   104a6:	d1c0      	bne.n	1042a <__aeabi_ddiv+0x82>
   104a8:	f411 1f80 	tst.w	r1, #1048576	; 0x100000
   104ac:	d10b      	bne.n	104c6 <__aeabi_ddiv+0x11e>
   104ae:	ea41 0100 	orr.w	r1, r1, r0
   104b2:	f04f 0000 	mov.w	r0, #0
   104b6:	f04f 4c00 	mov.w	ip, #2147483648	; 0x80000000
   104ba:	e7b6      	b.n	1042a <__aeabi_ddiv+0x82>
   104bc:	f411 1f80 	tst.w	r1, #1048576	; 0x100000
   104c0:	bf04      	itt	eq
   104c2:	4301      	orreq	r1, r0
   104c4:	2000      	moveq	r0, #0
   104c6:	f1b4 0cfd 	subs.w	ip, r4, #253	; 0xfd
   104ca:	bf88      	it	hi
   104cc:	f5bc 6fe0 	cmphi.w	ip, #1792	; 0x700
   104d0:	f63f aeaf 	bhi.w	10232 <__aeabi_dmul+0xde>
   104d4:	ebb5 0c03 	subs.w	ip, r5, r3
   104d8:	bf04      	itt	eq
   104da:	ebb6 0c02 	subseq.w	ip, r6, r2
   104de:	ea5f 0c50 	movseq.w	ip, r0, lsr #1
   104e2:	f150 0000 	adcs.w	r0, r0, #0
   104e6:	eb41 5104 	adc.w	r1, r1, r4, lsl #20
   104ea:	bd70      	pop	{r4, r5, r6, pc}
   104ec:	f00e 4e00 	and.w	lr, lr, #2147483648	; 0x80000000
   104f0:	ea4e 3111 	orr.w	r1, lr, r1, lsr #12
   104f4:	eb14 045c 	adds.w	r4, r4, ip, lsr #1
   104f8:	bfc2      	ittt	gt
   104fa:	ebd4 050c 	rsbsgt	r5, r4, ip
   104fe:	ea41 5104 	orrgt.w	r1, r1, r4, lsl #20
   10502:	bd70      	popgt	{r4, r5, r6, pc}
   10504:	f441 1180 	orr.w	r1, r1, #1048576	; 0x100000
   10508:	f04f 0e00 	mov.w	lr, #0
   1050c:	3c01      	subs	r4, #1
   1050e:	e690      	b.n	10232 <__aeabi_dmul+0xde>
   10510:	ea45 0e06 	orr.w	lr, r5, r6
   10514:	e68d      	b.n	10232 <__aeabi_dmul+0xde>
   10516:	ea0c 5513 	and.w	r5, ip, r3, lsr #20
   1051a:	ea94 0f0c 	teq	r4, ip
   1051e:	bf08      	it	eq
   10520:	ea95 0f0c 	teqeq	r5, ip
   10524:	f43f af3b 	beq.w	1039e <__aeabi_dmul+0x24a>
   10528:	ea94 0f0c 	teq	r4, ip
   1052c:	d10a      	bne.n	10544 <__aeabi_ddiv+0x19c>
   1052e:	ea50 3401 	orrs.w	r4, r0, r1, lsl #12
   10532:	f47f af34 	bne.w	1039e <__aeabi_dmul+0x24a>
   10536:	ea95 0f0c 	teq	r5, ip
   1053a:	f47f af25 	bne.w	10388 <__aeabi_dmul+0x234>
   1053e:	4610      	mov	r0, r2
   10540:	4619      	mov	r1, r3
   10542:	e72c      	b.n	1039e <__aeabi_dmul+0x24a>
   10544:	ea95 0f0c 	teq	r5, ip
   10548:	d106      	bne.n	10558 <__aeabi_ddiv+0x1b0>
   1054a:	ea52 3503 	orrs.w	r5, r2, r3, lsl #12
   1054e:	f43f aefd 	beq.w	1034c <__aeabi_dmul+0x1f8>
   10552:	4610      	mov	r0, r2
   10554:	4619      	mov	r1, r3
   10556:	e722      	b.n	1039e <__aeabi_dmul+0x24a>
   10558:	ea50 0641 	orrs.w	r6, r0, r1, lsl #1
   1055c:	bf18      	it	ne
   1055e:	ea52 0643 	orrsne.w	r6, r2, r3, lsl #1
   10562:	f47f aec5 	bne.w	102f0 <__aeabi_dmul+0x19c>
   10566:	ea50 0441 	orrs.w	r4, r0, r1, lsl #1
   1056a:	f47f af0d 	bne.w	10388 <__aeabi_dmul+0x234>
   1056e:	ea52 0543 	orrs.w	r5, r2, r3, lsl #1
   10572:	f47f aeeb 	bne.w	1034c <__aeabi_dmul+0x1f8>
   10576:	e712      	b.n	1039e <__aeabi_dmul+0x24a>

00010578 <__gedf2>:
   10578:	f04f 3cff 	mov.w	ip, #4294967295
   1057c:	e006      	b.n	1058c <__cmpdf2+0x4>
   1057e:	bf00      	nop

00010580 <__ledf2>:
   10580:	f04f 0c01 	mov.w	ip, #1
   10584:	e002      	b.n	1058c <__cmpdf2+0x4>
   10586:	bf00      	nop

00010588 <__cmpdf2>:
   10588:	f04f 0c01 	mov.w	ip, #1
   1058c:	f84d cd04 	str.w	ip, [sp, #-4]!
   10590:	ea4f 0c41 	mov.w	ip, r1, lsl #1
   10594:	ea7f 5c6c 	mvns.w	ip, ip, asr #21
   10598:	ea4f 0c43 	mov.w	ip, r3, lsl #1
   1059c:	bf18      	it	ne
   1059e:	ea7f 5c6c 	mvnsne.w	ip, ip, asr #21
   105a2:	d01b      	beq.n	105dc <__cmpdf2+0x54>
   105a4:	b001      	add	sp, #4
   105a6:	ea50 0c41 	orrs.w	ip, r0, r1, lsl #1
   105aa:	bf0c      	ite	eq
   105ac:	ea52 0c43 	orrseq.w	ip, r2, r3, lsl #1
   105b0:	ea91 0f03 	teqne	r1, r3
   105b4:	bf02      	ittt	eq
   105b6:	ea90 0f02 	teqeq	r0, r2
   105ba:	2000      	moveq	r0, #0
   105bc:	4770      	bxeq	lr
   105be:	f110 0f00 	cmn.w	r0, #0
   105c2:	ea91 0f03 	teq	r1, r3
   105c6:	bf58      	it	pl
   105c8:	4299      	cmppl	r1, r3
   105ca:	bf08      	it	eq
   105cc:	4290      	cmpeq	r0, r2
   105ce:	bf2c      	ite	cs
   105d0:	17d8      	asrcs	r0, r3, #31
   105d2:	ea6f 70e3 	mvncc.w	r0, r3, asr #31
   105d6:	f040 0001 	orr.w	r0, r0, #1
   105da:	4770      	bx	lr
   105dc:	ea4f 0c41 	mov.w	ip, r1, lsl #1
   105e0:	ea7f 5c6c 	mvns.w	ip, ip, asr #21
   105e4:	d102      	bne.n	105ec <__cmpdf2+0x64>
   105e6:	ea50 3c01 	orrs.w	ip, r0, r1, lsl #12
   105ea:	d107      	bne.n	105fc <__cmpdf2+0x74>
   105ec:	ea4f 0c43 	mov.w	ip, r3, lsl #1
   105f0:	ea7f 5c6c 	mvns.w	ip, ip, asr #21
   105f4:	d1d6      	bne.n	105a4 <__cmpdf2+0x1c>
   105f6:	ea52 3c03 	orrs.w	ip, r2, r3, lsl #12
   105fa:	d0d3      	beq.n	105a4 <__cmpdf2+0x1c>
   105fc:	f85d 0b04 	ldr.w	r0, [sp], #4
   10600:	4770      	bx	lr
   10602:	bf00      	nop

00010604 <__aeabi_cdrcmple>:
   10604:	4684      	mov	ip, r0
   10606:	4610      	mov	r0, r2
   10608:	4662      	mov	r2, ip
   1060a:	468c      	mov	ip, r1
   1060c:	4619      	mov	r1, r3
   1060e:	4663      	mov	r3, ip
   10610:	e000      	b.n	10614 <__aeabi_cdcmpeq>
   10612:	bf00      	nop

00010614 <__aeabi_cdcmpeq>:
   10614:	b501      	push	{r0, lr}
   10616:	f7ff ffb7 	bl	10588 <__cmpdf2>
   1061a:	2800      	cmp	r0, #0
   1061c:	bf48      	it	mi
   1061e:	f110 0f00 	cmnmi.w	r0, #0
   10622:	bd01      	pop	{r0, pc}

00010624 <__aeabi_dcmpeq>:
   10624:	f84d ed08 	str.w	lr, [sp, #-8]!
   10628:	f7ff fff4 	bl	10614 <__aeabi_cdcmpeq>
   1062c:	bf0c      	ite	eq
   1062e:	2001      	moveq	r0, #1
   10630:	2000      	movne	r0, #0
   10632:	f85d fb08 	ldr.w	pc, [sp], #8
   10636:	bf00      	nop

00010638 <__aeabi_dcmplt>:
   10638:	f84d ed08 	str.w	lr, [sp, #-8]!
   1063c:	f7ff ffea 	bl	10614 <__aeabi_cdcmpeq>
   10640:	bf34      	ite	cc
   10642:	2001      	movcc	r0, #1
   10644:	2000      	movcs	r0, #0
   10646:	f85d fb08 	ldr.w	pc, [sp], #8
   1064a:	bf00      	nop

0001064c <__aeabi_dcmple>:
   1064c:	f84d ed08 	str.w	lr, [sp, #-8]!
   10650:	f7ff ffe0 	bl	10614 <__aeabi_cdcmpeq>
   10654:	bf94      	ite	ls
   10656:	2001      	movls	r0, #1
   10658:	2000      	movhi	r0, #0
   1065a:	f85d fb08 	ldr.w	pc, [sp], #8
   1065e:	bf00      	nop

00010660 <__aeabi_dcmpge>:
   10660:	f84d ed08 	str.w	lr, [sp, #-8]!
   10664:	f7ff ffce 	bl	10604 <__aeabi_cdrcmple>
   10668:	bf94      	ite	ls
   1066a:	2001      	movls	r0, #1
   1066c:	2000      	movhi	r0, #0
   1066e:	f85d fb08 	ldr.w	pc, [sp], #8
   10672:	bf00      	nop

00010674 <__aeabi_dcmpgt>:
   10674:	f84d ed08 	str.w	lr, [sp, #-8]!
   10678:	f7ff ffc4 	bl	10604 <__aeabi_cdrcmple>
   1067c:	bf34      	ite	cc
   1067e:	2001      	movcc	r0, #1
   10680:	2000      	movcs	r0, #0
   10682:	f85d fb08 	ldr.w	pc, [sp], #8
   10686:	bf00      	nop

00010688 <__aeabi_dcmpun>:
   10688:	ea4f 0c41 	mov.w	ip, r1, lsl #1
   1068c:	ea7f 5c6c 	mvns.w	ip, ip, asr #21
   10690:	d102      	bne.n	10698 <__aeabi_dcmpun+0x10>
   10692:	ea50 3c01 	orrs.w	ip, r0, r1, lsl #12
   10696:	d10a      	bne.n	106ae <__aeabi_dcmpun+0x26>
   10698:	ea4f 0c43 	mov.w	ip, r3, lsl #1
   1069c:	ea7f 5c6c 	mvns.w	ip, ip, asr #21
   106a0:	d102      	bne.n	106a8 <__aeabi_dcmpun+0x20>
   106a2:	ea52 3c03 	orrs.w	ip, r2, r3, lsl #12
   106a6:	d102      	bne.n	106ae <__aeabi_dcmpun+0x26>
   106a8:	f04f 0000 	mov.w	r0, #0
   106ac:	4770      	bx	lr
   106ae:	f04f 0001 	mov.w	r0, #1
   106b2:	4770      	bx	lr

000106b4 <__aeabi_d2iz>:
   106b4:	ea4f 0241 	mov.w	r2, r1, lsl #1
   106b8:	f512 1200 	adds.w	r2, r2, #2097152	; 0x200000
   106bc:	d215      	bcs.n	106ea <__aeabi_d2iz+0x36>
   106be:	d511      	bpl.n	106e4 <__aeabi_d2iz+0x30>
   106c0:	f46f 7378 	mvn.w	r3, #992	; 0x3e0
   106c4:	ebb3 5262 	subs.w	r2, r3, r2, asr #21
   106c8:	d912      	bls.n	106f0 <__aeabi_d2iz+0x3c>
   106ca:	ea4f 23c1 	mov.w	r3, r1, lsl #11
   106ce:	f043 4300 	orr.w	r3, r3, #2147483648	; 0x80000000
   106d2:	ea43 5350 	orr.w	r3, r3, r0, lsr #21
   106d6:	f011 4f00 	tst.w	r1, #2147483648	; 0x80000000
   106da:	fa23 f002 	lsr.w	r0, r3, r2
   106de:	bf18      	it	ne
   106e0:	4240      	negne	r0, r0
   106e2:	4770      	bx	lr
   106e4:	f04f 0000 	mov.w	r0, #0
   106e8:	4770      	bx	lr
   106ea:	ea50 3001 	orrs.w	r0, r0, r1, lsl #12
   106ee:	d105      	bne.n	106fc <__aeabi_d2iz+0x48>
   106f0:	f011 4000 	ands.w	r0, r1, #2147483648	; 0x80000000
   106f4:	bf08      	it	eq
   106f6:	f06f 4000 	mvneq.w	r0, #2147483648	; 0x80000000
   106fa:	4770      	bx	lr
   106fc:	f04f 0000 	mov.w	r0, #0
   10700:	4770      	bx	lr
   10702:	bf00      	nop

00010704 <__aeabi_uldivmod>:
   10704:	b953      	cbnz	r3, 1071c <__aeabi_uldivmod+0x18>
   10706:	b94a      	cbnz	r2, 1071c <__aeabi_uldivmod+0x18>
   10708:	2900      	cmp	r1, #0
   1070a:	bf08      	it	eq
   1070c:	2800      	cmpeq	r0, #0
   1070e:	bf1c      	itt	ne
   10710:	f04f 31ff 	movne.w	r1, #4294967295
   10714:	f04f 30ff 	movne.w	r0, #4294967295
   10718:	f000 b97a 	b.w	10a10 <__aeabi_idiv0>
   1071c:	f1ad 0c08 	sub.w	ip, sp, #8
   10720:	e96d ce04 	strd	ip, lr, [sp, #-16]!
   10724:	f000 f806 	bl	10734 <__udivmoddi4>
   10728:	f8dd e004 	ldr.w	lr, [sp, #4]
   1072c:	e9dd 2302 	ldrd	r2, r3, [sp, #8]
   10730:	b004      	add	sp, #16
   10732:	4770      	bx	lr

00010734 <__udivmoddi4>:
   10734:	e92d 47f0 	stmdb	sp!, {r4, r5, r6, r7, r8, r9, sl, lr}
   10738:	468c      	mov	ip, r1
   1073a:	460d      	mov	r5, r1
   1073c:	4604      	mov	r4, r0
   1073e:	9e08      	ldr	r6, [sp, #32]
   10740:	2b00      	cmp	r3, #0
   10742:	d151      	bne.n	107e8 <__udivmoddi4+0xb4>
   10744:	428a      	cmp	r2, r1
   10746:	4617      	mov	r7, r2
   10748:	d96d      	bls.n	10826 <__udivmoddi4+0xf2>
   1074a:	fab2 fe82 	clz	lr, r2
   1074e:	f1be 0f00 	cmp.w	lr, #0
   10752:	d00b      	beq.n	1076c <__udivmoddi4+0x38>
   10754:	f1ce 0c20 	rsb	ip, lr, #32
   10758:	fa01 f50e 	lsl.w	r5, r1, lr
   1075c:	fa20 fc0c 	lsr.w	ip, r0, ip
   10760:	fa02 f70e 	lsl.w	r7, r2, lr
   10764:	ea4c 0c05 	orr.w	ip, ip, r5
   10768:	fa00 f40e 	lsl.w	r4, r0, lr
   1076c:	ea4f 4a17 	mov.w	sl, r7, lsr #16
   10770:	0c25      	lsrs	r5, r4, #16
   10772:	fbbc f8fa 	udiv	r8, ip, sl
   10776:	fa1f f987 	uxth.w	r9, r7
   1077a:	fb0a cc18 	mls	ip, sl, r8, ip
   1077e:	ea45 450c 	orr.w	r5, r5, ip, lsl #16
   10782:	fb08 f309 	mul.w	r3, r8, r9
   10786:	42ab      	cmp	r3, r5
   10788:	d90a      	bls.n	107a0 <__udivmoddi4+0x6c>
   1078a:	19ed      	adds	r5, r5, r7
   1078c:	f108 32ff 	add.w	r2, r8, #4294967295
   10790:	f080 8123 	bcs.w	109da <__udivmoddi4+0x2a6>
   10794:	42ab      	cmp	r3, r5
   10796:	f240 8120 	bls.w	109da <__udivmoddi4+0x2a6>
   1079a:	f1a8 0802 	sub.w	r8, r8, #2
   1079e:	443d      	add	r5, r7
   107a0:	1aed      	subs	r5, r5, r3
   107a2:	b2a4      	uxth	r4, r4
   107a4:	fbb5 f0fa 	udiv	r0, r5, sl
   107a8:	fb0a 5510 	mls	r5, sl, r0, r5
   107ac:	ea44 4405 	orr.w	r4, r4, r5, lsl #16
   107b0:	fb00 f909 	mul.w	r9, r0, r9
   107b4:	45a1      	cmp	r9, r4
   107b6:	d909      	bls.n	107cc <__udivmoddi4+0x98>
   107b8:	19e4      	adds	r4, r4, r7
   107ba:	f100 33ff 	add.w	r3, r0, #4294967295
   107be:	f080 810a 	bcs.w	109d6 <__udivmoddi4+0x2a2>
   107c2:	45a1      	cmp	r9, r4
   107c4:	f240 8107 	bls.w	109d6 <__udivmoddi4+0x2a2>
   107c8:	3802      	subs	r0, #2
   107ca:	443c      	add	r4, r7
   107cc:	eba4 0409 	sub.w	r4, r4, r9
   107d0:	ea40 4008 	orr.w	r0, r0, r8, lsl #16
   107d4:	2100      	movs	r1, #0
   107d6:	2e00      	cmp	r6, #0
   107d8:	d061      	beq.n	1089e <__udivmoddi4+0x16a>
   107da:	fa24 f40e 	lsr.w	r4, r4, lr
   107de:	2300      	movs	r3, #0
   107e0:	6034      	str	r4, [r6, #0]
   107e2:	6073      	str	r3, [r6, #4]
   107e4:	e8bd 87f0 	ldmia.w	sp!, {r4, r5, r6, r7, r8, r9, sl, pc}
   107e8:	428b      	cmp	r3, r1
   107ea:	d907      	bls.n	107fc <__udivmoddi4+0xc8>
   107ec:	2e00      	cmp	r6, #0
   107ee:	d054      	beq.n	1089a <__udivmoddi4+0x166>
   107f0:	2100      	movs	r1, #0
   107f2:	e886 0021 	stmia.w	r6, {r0, r5}
   107f6:	4608      	mov	r0, r1
   107f8:	e8bd 87f0 	ldmia.w	sp!, {r4, r5, r6, r7, r8, r9, sl, pc}
   107fc:	fab3 f183 	clz	r1, r3
   10800:	2900      	cmp	r1, #0
   10802:	f040 808e 	bne.w	10922 <__udivmoddi4+0x1ee>
   10806:	42ab      	cmp	r3, r5
   10808:	d302      	bcc.n	10810 <__udivmoddi4+0xdc>
   1080a:	4282      	cmp	r2, r0
   1080c:	f200 80fa 	bhi.w	10a04 <__udivmoddi4+0x2d0>
   10810:	1a84      	subs	r4, r0, r2
   10812:	eb65 0503 	sbc.w	r5, r5, r3
   10816:	2001      	movs	r0, #1
   10818:	46ac      	mov	ip, r5
   1081a:	2e00      	cmp	r6, #0
   1081c:	d03f      	beq.n	1089e <__udivmoddi4+0x16a>
   1081e:	e886 1010 	stmia.w	r6, {r4, ip}
   10822:	e8bd 87f0 	ldmia.w	sp!, {r4, r5, r6, r7, r8, r9, sl, pc}
   10826:	b912      	cbnz	r2, 1082e <__udivmoddi4+0xfa>
   10828:	2701      	movs	r7, #1
   1082a:	fbb7 f7f2 	udiv	r7, r7, r2
   1082e:	fab7 fe87 	clz	lr, r7
   10832:	f1be 0f00 	cmp.w	lr, #0
   10836:	d134      	bne.n	108a2 <__udivmoddi4+0x16e>
   10838:	1beb      	subs	r3, r5, r7
   1083a:	0c3a      	lsrs	r2, r7, #16
   1083c:	fa1f fc87 	uxth.w	ip, r7
   10840:	2101      	movs	r1, #1
   10842:	fbb3 f8f2 	udiv	r8, r3, r2
   10846:	0c25      	lsrs	r5, r4, #16
   10848:	fb02 3318 	mls	r3, r2, r8, r3
   1084c:	ea45 4503 	orr.w	r5, r5, r3, lsl #16
   10850:	fb0c f308 	mul.w	r3, ip, r8
   10854:	42ab      	cmp	r3, r5
   10856:	d907      	bls.n	10868 <__udivmoddi4+0x134>
   10858:	19ed      	adds	r5, r5, r7
   1085a:	f108 30ff 	add.w	r0, r8, #4294967295
   1085e:	d202      	bcs.n	10866 <__udivmoddi4+0x132>
   10860:	42ab      	cmp	r3, r5
   10862:	f200 80d1 	bhi.w	10a08 <__udivmoddi4+0x2d4>
   10866:	4680      	mov	r8, r0
   10868:	1aed      	subs	r5, r5, r3
   1086a:	b2a3      	uxth	r3, r4
   1086c:	fbb5 f0f2 	udiv	r0, r5, r2
   10870:	fb02 5510 	mls	r5, r2, r0, r5
   10874:	ea43 4405 	orr.w	r4, r3, r5, lsl #16
   10878:	fb0c fc00 	mul.w	ip, ip, r0
   1087c:	45a4      	cmp	ip, r4
   1087e:	d907      	bls.n	10890 <__udivmoddi4+0x15c>
   10880:	19e4      	adds	r4, r4, r7
   10882:	f100 33ff 	add.w	r3, r0, #4294967295
   10886:	d202      	bcs.n	1088e <__udivmoddi4+0x15a>
   10888:	45a4      	cmp	ip, r4
   1088a:	f200 80b8 	bhi.w	109fe <__udivmoddi4+0x2ca>
   1088e:	4618      	mov	r0, r3
   10890:	eba4 040c 	sub.w	r4, r4, ip
   10894:	ea40 4008 	orr.w	r0, r0, r8, lsl #16
   10898:	e79d      	b.n	107d6 <__udivmoddi4+0xa2>
   1089a:	4631      	mov	r1, r6
   1089c:	4630      	mov	r0, r6
   1089e:	e8bd 87f0 	ldmia.w	sp!, {r4, r5, r6, r7, r8, r9, sl, pc}
   108a2:	f1ce 0420 	rsb	r4, lr, #32
   108a6:	fa05 f30e 	lsl.w	r3, r5, lr
   108aa:	fa07 f70e 	lsl.w	r7, r7, lr
   108ae:	fa20 f804 	lsr.w	r8, r0, r4
   108b2:	0c3a      	lsrs	r2, r7, #16
   108b4:	fa25 f404 	lsr.w	r4, r5, r4
   108b8:	ea48 0803 	orr.w	r8, r8, r3
   108bc:	fbb4 f1f2 	udiv	r1, r4, r2
   108c0:	ea4f 4518 	mov.w	r5, r8, lsr #16
   108c4:	fb02 4411 	mls	r4, r2, r1, r4
   108c8:	fa1f fc87 	uxth.w	ip, r7
   108cc:	ea45 4504 	orr.w	r5, r5, r4, lsl #16
   108d0:	fb01 f30c 	mul.w	r3, r1, ip
   108d4:	42ab      	cmp	r3, r5
   108d6:	fa00 f40e 	lsl.w	r4, r0, lr
   108da:	d909      	bls.n	108f0 <__udivmoddi4+0x1bc>
   108dc:	19ed      	adds	r5, r5, r7
   108de:	f101 30ff 	add.w	r0, r1, #4294967295
   108e2:	f080 808a 	bcs.w	109fa <__udivmoddi4+0x2c6>
   108e6:	42ab      	cmp	r3, r5
   108e8:	f240 8087 	bls.w	109fa <__udivmoddi4+0x2c6>
   108ec:	3902      	subs	r1, #2
   108ee:	443d      	add	r5, r7
   108f0:	1aeb      	subs	r3, r5, r3
   108f2:	fa1f f588 	uxth.w	r5, r8
   108f6:	fbb3 f0f2 	udiv	r0, r3, r2
   108fa:	fb02 3310 	mls	r3, r2, r0, r3
   108fe:	ea45 4503 	orr.w	r5, r5, r3, lsl #16
   10902:	fb00 f30c 	mul.w	r3, r0, ip
   10906:	42ab      	cmp	r3, r5
   10908:	d907      	bls.n	1091a <__udivmoddi4+0x1e6>
   1090a:	19ed      	adds	r5, r5, r7
   1090c:	f100 38ff 	add.w	r8, r0, #4294967295
   10910:	d26f      	bcs.n	109f2 <__udivmoddi4+0x2be>
   10912:	42ab      	cmp	r3, r5
   10914:	d96d      	bls.n	109f2 <__udivmoddi4+0x2be>
   10916:	3802      	subs	r0, #2
   10918:	443d      	add	r5, r7
   1091a:	1aeb      	subs	r3, r5, r3
   1091c:	ea40 4101 	orr.w	r1, r0, r1, lsl #16
   10920:	e78f      	b.n	10842 <__udivmoddi4+0x10e>
   10922:	f1c1 0720 	rsb	r7, r1, #32
   10926:	fa22 f807 	lsr.w	r8, r2, r7
   1092a:	408b      	lsls	r3, r1
   1092c:	fa05 f401 	lsl.w	r4, r5, r1
   10930:	ea48 0303 	orr.w	r3, r8, r3
   10934:	fa20 fe07 	lsr.w	lr, r0, r7
   10938:	ea4f 4c13 	mov.w	ip, r3, lsr #16
   1093c:	40fd      	lsrs	r5, r7
   1093e:	ea4e 0e04 	orr.w	lr, lr, r4
   10942:	fbb5 f9fc 	udiv	r9, r5, ip
   10946:	ea4f 441e 	mov.w	r4, lr, lsr #16
   1094a:	fb0c 5519 	mls	r5, ip, r9, r5
   1094e:	fa1f f883 	uxth.w	r8, r3
   10952:	ea44 4505 	orr.w	r5, r4, r5, lsl #16
   10956:	fb09 f408 	mul.w	r4, r9, r8
   1095a:	42ac      	cmp	r4, r5
   1095c:	fa02 f201 	lsl.w	r2, r2, r1
   10960:	fa00 fa01 	lsl.w	sl, r0, r1
   10964:	d908      	bls.n	10978 <__udivmoddi4+0x244>
   10966:	18ed      	adds	r5, r5, r3
   10968:	f109 30ff 	add.w	r0, r9, #4294967295
   1096c:	d243      	bcs.n	109f6 <__udivmoddi4+0x2c2>
   1096e:	42ac      	cmp	r4, r5
   10970:	d941      	bls.n	109f6 <__udivmoddi4+0x2c2>
   10972:	f1a9 0902 	sub.w	r9, r9, #2
   10976:	441d      	add	r5, r3
   10978:	1b2d      	subs	r5, r5, r4
   1097a:	fa1f fe8e 	uxth.w	lr, lr
   1097e:	fbb5 f0fc 	udiv	r0, r5, ip
   10982:	fb0c 5510 	mls	r5, ip, r0, r5
   10986:	ea4e 4405 	orr.w	r4, lr, r5, lsl #16
   1098a:	fb00 f808 	mul.w	r8, r0, r8
   1098e:	45a0      	cmp	r8, r4
   10990:	d907      	bls.n	109a2 <__udivmoddi4+0x26e>
   10992:	18e4      	adds	r4, r4, r3
   10994:	f100 35ff 	add.w	r5, r0, #4294967295
   10998:	d229      	bcs.n	109ee <__udivmoddi4+0x2ba>
   1099a:	45a0      	cmp	r8, r4
   1099c:	d927      	bls.n	109ee <__udivmoddi4+0x2ba>
   1099e:	3802      	subs	r0, #2
   109a0:	441c      	add	r4, r3
   109a2:	ea40 4009 	orr.w	r0, r0, r9, lsl #16
   109a6:	eba4 0408 	sub.w	r4, r4, r8
   109aa:	fba0 8902 	umull	r8, r9, r0, r2
   109ae:	454c      	cmp	r4, r9
   109b0:	46c6      	mov	lr, r8
   109b2:	464d      	mov	r5, r9
   109b4:	d315      	bcc.n	109e2 <__udivmoddi4+0x2ae>
   109b6:	d012      	beq.n	109de <__udivmoddi4+0x2aa>
   109b8:	b156      	cbz	r6, 109d0 <__udivmoddi4+0x29c>
   109ba:	ebba 030e 	subs.w	r3, sl, lr
   109be:	eb64 0405 	sbc.w	r4, r4, r5
   109c2:	fa04 f707 	lsl.w	r7, r4, r7
   109c6:	40cb      	lsrs	r3, r1
   109c8:	431f      	orrs	r7, r3
   109ca:	40cc      	lsrs	r4, r1
   109cc:	6037      	str	r7, [r6, #0]
   109ce:	6074      	str	r4, [r6, #4]
   109d0:	2100      	movs	r1, #0
   109d2:	e8bd 87f0 	ldmia.w	sp!, {r4, r5, r6, r7, r8, r9, sl, pc}
   109d6:	4618      	mov	r0, r3
   109d8:	e6f8      	b.n	107cc <__udivmoddi4+0x98>
   109da:	4690      	mov	r8, r2
   109dc:	e6e0      	b.n	107a0 <__udivmoddi4+0x6c>
   109de:	45c2      	cmp	sl, r8
   109e0:	d2ea      	bcs.n	109b8 <__udivmoddi4+0x284>
   109e2:	ebb8 0e02 	subs.w	lr, r8, r2
   109e6:	eb69 0503 	sbc.w	r5, r9, r3
   109ea:	3801      	subs	r0, #1
   109ec:	e7e4      	b.n	109b8 <__udivmoddi4+0x284>
   109ee:	4628      	mov	r0, r5
   109f0:	e7d7      	b.n	109a2 <__udivmoddi4+0x26e>
   109f2:	4640      	mov	r0, r8
   109f4:	e791      	b.n	1091a <__udivmoddi4+0x1e6>
   109f6:	4681      	mov	r9, r0
   109f8:	e7be      	b.n	10978 <__udivmoddi4+0x244>
   109fa:	4601      	mov	r1, r0
   109fc:	e778      	b.n	108f0 <__udivmoddi4+0x1bc>
   109fe:	3802      	subs	r0, #2
   10a00:	443c      	add	r4, r7
   10a02:	e745      	b.n	10890 <__udivmoddi4+0x15c>
   10a04:	4608      	mov	r0, r1
   10a06:	e708      	b.n	1081a <__udivmoddi4+0xe6>
   10a08:	f1a8 0802 	sub.w	r8, r8, #2
   10a0c:	443d      	add	r5, r7
   10a0e:	e72b      	b.n	10868 <__udivmoddi4+0x134>

00010a10 <__aeabi_idiv0>:
   10a10:	4770      	bx	lr
   10a12:	bf00      	nop

00010a14 <__errno>:
   10a14:	4b01      	ldr	r3, [pc, #4]	; (10a1c <__errno+0x8>)
   10a16:	6818      	ldr	r0, [r3, #0]
   10a18:	4770      	bx	lr
   10a1a:	bf00      	nop
   10a1c:	20002a90 	.word	0x20002a90

00010a20 <__libc_init_array>:
   10a20:	b570      	push	{r4, r5, r6, lr}
   10a22:	4e0d      	ldr	r6, [pc, #52]	; (10a58 <__libc_init_array+0x38>)
   10a24:	4c0d      	ldr	r4, [pc, #52]	; (10a5c <__libc_init_array+0x3c>)
   10a26:	1ba4      	subs	r4, r4, r6
   10a28:	10a4      	asrs	r4, r4, #2
   10a2a:	2500      	movs	r5, #0
   10a2c:	42a5      	cmp	r5, r4
   10a2e:	d109      	bne.n	10a44 <__libc_init_array+0x24>
   10a30:	4e0b      	ldr	r6, [pc, #44]	; (10a60 <__libc_init_array+0x40>)
   10a32:	4c0c      	ldr	r4, [pc, #48]	; (10a64 <__libc_init_array+0x44>)
   10a34:	f001 fe80 	bl	12738 <_init>
   10a38:	1ba4      	subs	r4, r4, r6
   10a3a:	10a4      	asrs	r4, r4, #2
   10a3c:	2500      	movs	r5, #0
   10a3e:	42a5      	cmp	r5, r4
   10a40:	d105      	bne.n	10a4e <__libc_init_array+0x2e>
   10a42:	bd70      	pop	{r4, r5, r6, pc}
   10a44:	f856 3025 	ldr.w	r3, [r6, r5, lsl #2]
   10a48:	4798      	blx	r3
   10a4a:	3501      	adds	r5, #1
   10a4c:	e7ee      	b.n	10a2c <__libc_init_array+0xc>
   10a4e:	f856 3025 	ldr.w	r3, [r6, r5, lsl #2]
   10a52:	4798      	blx	r3
   10a54:	3501      	adds	r5, #1
   10a56:	e7f2      	b.n	10a3e <__libc_init_array+0x1e>
   10a58:	00012744 	.word	0x00012744
   10a5c:	00012744 	.word	0x00012744
   10a60:	00012744 	.word	0x00012744
   10a64:	00012748 	.word	0x00012748

00010a68 <memcpy>:
   10a68:	b510      	push	{r4, lr}
   10a6a:	1e43      	subs	r3, r0, #1
   10a6c:	440a      	add	r2, r1
   10a6e:	4291      	cmp	r1, r2
   10a70:	d100      	bne.n	10a74 <memcpy+0xc>
   10a72:	bd10      	pop	{r4, pc}
   10a74:	f811 4b01 	ldrb.w	r4, [r1], #1
   10a78:	f803 4f01 	strb.w	r4, [r3, #1]!
   10a7c:	e7f7      	b.n	10a6e <memcpy+0x6>

00010a7e <memset>:
   10a7e:	4402      	add	r2, r0
   10a80:	4603      	mov	r3, r0
   10a82:	4293      	cmp	r3, r2
   10a84:	d100      	bne.n	10a88 <memset+0xa>
   10a86:	4770      	bx	lr
   10a88:	f803 1b01 	strb.w	r1, [r3], #1
   10a8c:	e7f9      	b.n	10a82 <memset+0x4>
	...

00010a90 <siprintf>:
   10a90:	b40e      	push	{r1, r2, r3}
   10a92:	b500      	push	{lr}
   10a94:	b09c      	sub	sp, #112	; 0x70
   10a96:	f44f 7102 	mov.w	r1, #520	; 0x208
   10a9a:	ab1d      	add	r3, sp, #116	; 0x74
   10a9c:	f8ad 1014 	strh.w	r1, [sp, #20]
   10aa0:	9002      	str	r0, [sp, #8]
   10aa2:	9006      	str	r0, [sp, #24]
   10aa4:	f06f 4100 	mvn.w	r1, #2147483648	; 0x80000000
   10aa8:	480a      	ldr	r0, [pc, #40]	; (10ad4 <siprintf+0x44>)
   10aaa:	9104      	str	r1, [sp, #16]
   10aac:	9107      	str	r1, [sp, #28]
   10aae:	f64f 71ff 	movw	r1, #65535	; 0xffff
   10ab2:	f853 2b04 	ldr.w	r2, [r3], #4
   10ab6:	f8ad 1016 	strh.w	r1, [sp, #22]
   10aba:	6800      	ldr	r0, [r0, #0]
   10abc:	9301      	str	r3, [sp, #4]
   10abe:	a902      	add	r1, sp, #8
   10ac0:	f000 f8e2 	bl	10c88 <_svfiprintf_r>
   10ac4:	9b02      	ldr	r3, [sp, #8]
   10ac6:	2200      	movs	r2, #0
   10ac8:	701a      	strb	r2, [r3, #0]
   10aca:	b01c      	add	sp, #112	; 0x70
   10acc:	f85d eb04 	ldr.w	lr, [sp], #4
   10ad0:	b003      	add	sp, #12
   10ad2:	4770      	bx	lr
   10ad4:	20002a90 	.word	0x20002a90

00010ad8 <strlen>:
   10ad8:	4603      	mov	r3, r0
   10ada:	f813 2b01 	ldrb.w	r2, [r3], #1
   10ade:	2a00      	cmp	r2, #0
   10ae0:	d1fb      	bne.n	10ada <strlen+0x2>
   10ae2:	1a18      	subs	r0, r3, r0
   10ae4:	3801      	subs	r0, #1
   10ae6:	4770      	bx	lr

00010ae8 <strncpy>:
   10ae8:	b570      	push	{r4, r5, r6, lr}
   10aea:	4604      	mov	r4, r0
   10aec:	b902      	cbnz	r2, 10af0 <strncpy+0x8>
   10aee:	bd70      	pop	{r4, r5, r6, pc}
   10af0:	4623      	mov	r3, r4
   10af2:	f811 5b01 	ldrb.w	r5, [r1], #1
   10af6:	f803 5b01 	strb.w	r5, [r3], #1
   10afa:	1e56      	subs	r6, r2, #1
   10afc:	b91d      	cbnz	r5, 10b06 <strncpy+0x1e>
   10afe:	4414      	add	r4, r2
   10b00:	42a3      	cmp	r3, r4
   10b02:	d103      	bne.n	10b0c <strncpy+0x24>
   10b04:	bd70      	pop	{r4, r5, r6, pc}
   10b06:	461c      	mov	r4, r3
   10b08:	4632      	mov	r2, r6
   10b0a:	e7ef      	b.n	10aec <strncpy+0x4>
   10b0c:	f803 5b01 	strb.w	r5, [r3], #1
   10b10:	e7f6      	b.n	10b00 <strncpy+0x18>
	...

00010b14 <_malloc_r>:
   10b14:	b570      	push	{r4, r5, r6, lr}
   10b16:	1ccd      	adds	r5, r1, #3
   10b18:	f025 0503 	bic.w	r5, r5, #3
   10b1c:	3508      	adds	r5, #8
   10b1e:	2d0c      	cmp	r5, #12
   10b20:	bf38      	it	cc
   10b22:	250c      	movcc	r5, #12
   10b24:	2d00      	cmp	r5, #0
   10b26:	4606      	mov	r6, r0
   10b28:	db01      	blt.n	10b2e <_malloc_r+0x1a>
   10b2a:	42a9      	cmp	r1, r5
   10b2c:	d903      	bls.n	10b36 <_malloc_r+0x22>
   10b2e:	230c      	movs	r3, #12
   10b30:	6033      	str	r3, [r6, #0]
   10b32:	2000      	movs	r0, #0
   10b34:	bd70      	pop	{r4, r5, r6, pc}
   10b36:	f000 fbad 	bl	11294 <__malloc_lock>
   10b3a:	4a23      	ldr	r2, [pc, #140]	; (10bc8 <_malloc_r+0xb4>)
   10b3c:	6814      	ldr	r4, [r2, #0]
   10b3e:	4621      	mov	r1, r4
   10b40:	b991      	cbnz	r1, 10b68 <_malloc_r+0x54>
   10b42:	4c22      	ldr	r4, [pc, #136]	; (10bcc <_malloc_r+0xb8>)
   10b44:	6823      	ldr	r3, [r4, #0]
   10b46:	b91b      	cbnz	r3, 10b50 <_malloc_r+0x3c>
   10b48:	4630      	mov	r0, r6
   10b4a:	f000 fb27 	bl	1119c <_sbrk_r>
   10b4e:	6020      	str	r0, [r4, #0]
   10b50:	4629      	mov	r1, r5
   10b52:	4630      	mov	r0, r6
   10b54:	f000 fb22 	bl	1119c <_sbrk_r>
   10b58:	1c43      	adds	r3, r0, #1
   10b5a:	d126      	bne.n	10baa <_malloc_r+0x96>
   10b5c:	230c      	movs	r3, #12
   10b5e:	6033      	str	r3, [r6, #0]
   10b60:	4630      	mov	r0, r6
   10b62:	f000 fb98 	bl	11296 <__malloc_unlock>
   10b66:	e7e4      	b.n	10b32 <_malloc_r+0x1e>
   10b68:	680b      	ldr	r3, [r1, #0]
   10b6a:	1b5b      	subs	r3, r3, r5
   10b6c:	d41a      	bmi.n	10ba4 <_malloc_r+0x90>
   10b6e:	2b0b      	cmp	r3, #11
   10b70:	d90f      	bls.n	10b92 <_malloc_r+0x7e>
   10b72:	600b      	str	r3, [r1, #0]
   10b74:	50cd      	str	r5, [r1, r3]
   10b76:	18cc      	adds	r4, r1, r3
   10b78:	4630      	mov	r0, r6
   10b7a:	f000 fb8c 	bl	11296 <__malloc_unlock>
   10b7e:	f104 000b 	add.w	r0, r4, #11
   10b82:	1d23      	adds	r3, r4, #4
   10b84:	f020 0007 	bic.w	r0, r0, #7
   10b88:	1ac3      	subs	r3, r0, r3
   10b8a:	d01b      	beq.n	10bc4 <_malloc_r+0xb0>
   10b8c:	425a      	negs	r2, r3
   10b8e:	50e2      	str	r2, [r4, r3]
   10b90:	bd70      	pop	{r4, r5, r6, pc}
   10b92:	428c      	cmp	r4, r1
   10b94:	bf0d      	iteet	eq
   10b96:	6863      	ldreq	r3, [r4, #4]
   10b98:	684b      	ldrne	r3, [r1, #4]
   10b9a:	6063      	strne	r3, [r4, #4]
   10b9c:	6013      	streq	r3, [r2, #0]
   10b9e:	bf18      	it	ne
   10ba0:	460c      	movne	r4, r1
   10ba2:	e7e9      	b.n	10b78 <_malloc_r+0x64>
   10ba4:	460c      	mov	r4, r1
   10ba6:	6849      	ldr	r1, [r1, #4]
   10ba8:	e7ca      	b.n	10b40 <_malloc_r+0x2c>
   10baa:	1cc4      	adds	r4, r0, #3
   10bac:	f024 0403 	bic.w	r4, r4, #3
   10bb0:	42a0      	cmp	r0, r4
   10bb2:	d005      	beq.n	10bc0 <_malloc_r+0xac>
   10bb4:	1a21      	subs	r1, r4, r0
   10bb6:	4630      	mov	r0, r6
   10bb8:	f000 faf0 	bl	1119c <_sbrk_r>
   10bbc:	3001      	adds	r0, #1
   10bbe:	d0cd      	beq.n	10b5c <_malloc_r+0x48>
   10bc0:	6025      	str	r5, [r4, #0]
   10bc2:	e7d9      	b.n	10b78 <_malloc_r+0x64>
   10bc4:	bd70      	pop	{r4, r5, r6, pc}
   10bc6:	bf00      	nop
   10bc8:	2000dae4 	.word	0x2000dae4
   10bcc:	2000dae8 	.word	0x2000dae8

00010bd0 <__ssputs_r>:
   10bd0:	e92d 47f0 	stmdb	sp!, {r4, r5, r6, r7, r8, r9, sl, lr}
   10bd4:	688e      	ldr	r6, [r1, #8]
   10bd6:	429e      	cmp	r6, r3
   10bd8:	4682      	mov	sl, r0
   10bda:	460c      	mov	r4, r1
   10bdc:	4691      	mov	r9, r2
   10bde:	4698      	mov	r8, r3
   10be0:	d835      	bhi.n	10c4e <__ssputs_r+0x7e>
   10be2:	898a      	ldrh	r2, [r1, #12]
   10be4:	f412 6f90 	tst.w	r2, #1152	; 0x480
   10be8:	d031      	beq.n	10c4e <__ssputs_r+0x7e>
   10bea:	6825      	ldr	r5, [r4, #0]
   10bec:	6909      	ldr	r1, [r1, #16]
   10bee:	1a6f      	subs	r7, r5, r1
   10bf0:	6965      	ldr	r5, [r4, #20]
   10bf2:	2302      	movs	r3, #2
   10bf4:	eb05 0545 	add.w	r5, r5, r5, lsl #1
   10bf8:	fb95 f5f3 	sdiv	r5, r5, r3
   10bfc:	f108 0301 	add.w	r3, r8, #1
   10c00:	443b      	add	r3, r7
   10c02:	429d      	cmp	r5, r3
   10c04:	bf38      	it	cc
   10c06:	461d      	movcc	r5, r3
   10c08:	0553      	lsls	r3, r2, #21
   10c0a:	d531      	bpl.n	10c70 <__ssputs_r+0xa0>
   10c0c:	4629      	mov	r1, r5
   10c0e:	f7ff ff81 	bl	10b14 <_malloc_r>
   10c12:	4606      	mov	r6, r0
   10c14:	b950      	cbnz	r0, 10c2c <__ssputs_r+0x5c>
   10c16:	230c      	movs	r3, #12
   10c18:	f8ca 3000 	str.w	r3, [sl]
   10c1c:	89a3      	ldrh	r3, [r4, #12]
   10c1e:	f043 0340 	orr.w	r3, r3, #64	; 0x40
   10c22:	81a3      	strh	r3, [r4, #12]
   10c24:	f04f 30ff 	mov.w	r0, #4294967295
   10c28:	e8bd 87f0 	ldmia.w	sp!, {r4, r5, r6, r7, r8, r9, sl, pc}
   10c2c:	463a      	mov	r2, r7
   10c2e:	6921      	ldr	r1, [r4, #16]
   10c30:	f7ff ff1a 	bl	10a68 <memcpy>
   10c34:	89a3      	ldrh	r3, [r4, #12]
   10c36:	f423 6390 	bic.w	r3, r3, #1152	; 0x480
   10c3a:	f043 0380 	orr.w	r3, r3, #128	; 0x80
   10c3e:	81a3      	strh	r3, [r4, #12]
   10c40:	6126      	str	r6, [r4, #16]
   10c42:	6165      	str	r5, [r4, #20]
   10c44:	443e      	add	r6, r7
   10c46:	1bed      	subs	r5, r5, r7
   10c48:	6026      	str	r6, [r4, #0]
   10c4a:	60a5      	str	r5, [r4, #8]
   10c4c:	4646      	mov	r6, r8
   10c4e:	4546      	cmp	r6, r8
   10c50:	bf28      	it	cs
   10c52:	4646      	movcs	r6, r8
   10c54:	4632      	mov	r2, r6
   10c56:	4649      	mov	r1, r9
   10c58:	6820      	ldr	r0, [r4, #0]
   10c5a:	f000 fb01 	bl	11260 <memmove>
   10c5e:	68a3      	ldr	r3, [r4, #8]
   10c60:	1b9b      	subs	r3, r3, r6
   10c62:	60a3      	str	r3, [r4, #8]
   10c64:	6823      	ldr	r3, [r4, #0]
   10c66:	441e      	add	r6, r3
   10c68:	6026      	str	r6, [r4, #0]
   10c6a:	2000      	movs	r0, #0
   10c6c:	e8bd 87f0 	ldmia.w	sp!, {r4, r5, r6, r7, r8, r9, sl, pc}
   10c70:	462a      	mov	r2, r5
   10c72:	f000 fb5f 	bl	11334 <_realloc_r>
   10c76:	4606      	mov	r6, r0
   10c78:	2800      	cmp	r0, #0
   10c7a:	d1e1      	bne.n	10c40 <__ssputs_r+0x70>
   10c7c:	6921      	ldr	r1, [r4, #16]
   10c7e:	4650      	mov	r0, sl
   10c80:	f000 fb0a 	bl	11298 <_free_r>
   10c84:	e7c7      	b.n	10c16 <__ssputs_r+0x46>
	...

00010c88 <_svfiprintf_r>:
   10c88:	e92d 4ff0 	stmdb	sp!, {r4, r5, r6, r7, r8, r9, sl, fp, lr}
   10c8c:	b09d      	sub	sp, #116	; 0x74
   10c8e:	4680      	mov	r8, r0
   10c90:	9303      	str	r3, [sp, #12]
   10c92:	898b      	ldrh	r3, [r1, #12]
   10c94:	061c      	lsls	r4, r3, #24
   10c96:	460d      	mov	r5, r1
   10c98:	4616      	mov	r6, r2
   10c9a:	d50f      	bpl.n	10cbc <_svfiprintf_r+0x34>
   10c9c:	690b      	ldr	r3, [r1, #16]
   10c9e:	b96b      	cbnz	r3, 10cbc <_svfiprintf_r+0x34>
   10ca0:	2140      	movs	r1, #64	; 0x40
   10ca2:	f7ff ff37 	bl	10b14 <_malloc_r>
   10ca6:	6028      	str	r0, [r5, #0]
   10ca8:	6128      	str	r0, [r5, #16]
   10caa:	b928      	cbnz	r0, 10cb8 <_svfiprintf_r+0x30>
   10cac:	230c      	movs	r3, #12
   10cae:	f8c8 3000 	str.w	r3, [r8]
   10cb2:	f04f 30ff 	mov.w	r0, #4294967295
   10cb6:	e0c5      	b.n	10e44 <_svfiprintf_r+0x1bc>
   10cb8:	2340      	movs	r3, #64	; 0x40
   10cba:	616b      	str	r3, [r5, #20]
   10cbc:	2300      	movs	r3, #0
   10cbe:	9309      	str	r3, [sp, #36]	; 0x24
   10cc0:	2320      	movs	r3, #32
   10cc2:	f88d 3029 	strb.w	r3, [sp, #41]	; 0x29
   10cc6:	2330      	movs	r3, #48	; 0x30
   10cc8:	f88d 302a 	strb.w	r3, [sp, #42]	; 0x2a
   10ccc:	f04f 0b01 	mov.w	fp, #1
   10cd0:	4637      	mov	r7, r6
   10cd2:	463c      	mov	r4, r7
   10cd4:	f814 3b01 	ldrb.w	r3, [r4], #1
   10cd8:	2b00      	cmp	r3, #0
   10cda:	d13c      	bne.n	10d56 <_svfiprintf_r+0xce>
   10cdc:	ebb7 0a06 	subs.w	sl, r7, r6
   10ce0:	d00b      	beq.n	10cfa <_svfiprintf_r+0x72>
   10ce2:	4653      	mov	r3, sl
   10ce4:	4632      	mov	r2, r6
   10ce6:	4629      	mov	r1, r5
   10ce8:	4640      	mov	r0, r8
   10cea:	f7ff ff71 	bl	10bd0 <__ssputs_r>
   10cee:	3001      	adds	r0, #1
   10cf0:	f000 80a3 	beq.w	10e3a <_svfiprintf_r+0x1b2>
   10cf4:	9b09      	ldr	r3, [sp, #36]	; 0x24
   10cf6:	4453      	add	r3, sl
   10cf8:	9309      	str	r3, [sp, #36]	; 0x24
   10cfa:	783b      	ldrb	r3, [r7, #0]
   10cfc:	2b00      	cmp	r3, #0
   10cfe:	f000 809c 	beq.w	10e3a <_svfiprintf_r+0x1b2>
   10d02:	2300      	movs	r3, #0
   10d04:	f04f 32ff 	mov.w	r2, #4294967295
   10d08:	9304      	str	r3, [sp, #16]
   10d0a:	9307      	str	r3, [sp, #28]
   10d0c:	9205      	str	r2, [sp, #20]
   10d0e:	9306      	str	r3, [sp, #24]
   10d10:	f88d 3053 	strb.w	r3, [sp, #83]	; 0x53
   10d14:	931a      	str	r3, [sp, #104]	; 0x68
   10d16:	2205      	movs	r2, #5
   10d18:	7821      	ldrb	r1, [r4, #0]
   10d1a:	4850      	ldr	r0, [pc, #320]	; (10e5c <_svfiprintf_r+0x1d4>)
   10d1c:	f000 fa50 	bl	111c0 <memchr>
   10d20:	1c67      	adds	r7, r4, #1
   10d22:	9b04      	ldr	r3, [sp, #16]
   10d24:	b9d8      	cbnz	r0, 10d5e <_svfiprintf_r+0xd6>
   10d26:	06d9      	lsls	r1, r3, #27
   10d28:	bf44      	itt	mi
   10d2a:	2220      	movmi	r2, #32
   10d2c:	f88d 2053 	strbmi.w	r2, [sp, #83]	; 0x53
   10d30:	071a      	lsls	r2, r3, #28
   10d32:	bf44      	itt	mi
   10d34:	222b      	movmi	r2, #43	; 0x2b
   10d36:	f88d 2053 	strbmi.w	r2, [sp, #83]	; 0x53
   10d3a:	7822      	ldrb	r2, [r4, #0]
   10d3c:	2a2a      	cmp	r2, #42	; 0x2a
   10d3e:	d016      	beq.n	10d6e <_svfiprintf_r+0xe6>
   10d40:	9a07      	ldr	r2, [sp, #28]
   10d42:	2100      	movs	r1, #0
   10d44:	200a      	movs	r0, #10
   10d46:	4627      	mov	r7, r4
   10d48:	3401      	adds	r4, #1
   10d4a:	783b      	ldrb	r3, [r7, #0]
   10d4c:	3b30      	subs	r3, #48	; 0x30
   10d4e:	2b09      	cmp	r3, #9
   10d50:	d951      	bls.n	10df6 <_svfiprintf_r+0x16e>
   10d52:	b1c9      	cbz	r1, 10d88 <_svfiprintf_r+0x100>
   10d54:	e011      	b.n	10d7a <_svfiprintf_r+0xf2>
   10d56:	2b25      	cmp	r3, #37	; 0x25
   10d58:	d0c0      	beq.n	10cdc <_svfiprintf_r+0x54>
   10d5a:	4627      	mov	r7, r4
   10d5c:	e7b9      	b.n	10cd2 <_svfiprintf_r+0x4a>
   10d5e:	4a3f      	ldr	r2, [pc, #252]	; (10e5c <_svfiprintf_r+0x1d4>)
   10d60:	1a80      	subs	r0, r0, r2
   10d62:	fa0b f000 	lsl.w	r0, fp, r0
   10d66:	4318      	orrs	r0, r3
   10d68:	9004      	str	r0, [sp, #16]
   10d6a:	463c      	mov	r4, r7
   10d6c:	e7d3      	b.n	10d16 <_svfiprintf_r+0x8e>
   10d6e:	9a03      	ldr	r2, [sp, #12]
   10d70:	1d11      	adds	r1, r2, #4
   10d72:	6812      	ldr	r2, [r2, #0]
   10d74:	9103      	str	r1, [sp, #12]
   10d76:	2a00      	cmp	r2, #0
   10d78:	db01      	blt.n	10d7e <_svfiprintf_r+0xf6>
   10d7a:	9207      	str	r2, [sp, #28]
   10d7c:	e004      	b.n	10d88 <_svfiprintf_r+0x100>
   10d7e:	4252      	negs	r2, r2
   10d80:	f043 0302 	orr.w	r3, r3, #2
   10d84:	9207      	str	r2, [sp, #28]
   10d86:	9304      	str	r3, [sp, #16]
   10d88:	783b      	ldrb	r3, [r7, #0]
   10d8a:	2b2e      	cmp	r3, #46	; 0x2e
   10d8c:	d10e      	bne.n	10dac <_svfiprintf_r+0x124>
   10d8e:	787b      	ldrb	r3, [r7, #1]
   10d90:	2b2a      	cmp	r3, #42	; 0x2a
   10d92:	f107 0101 	add.w	r1, r7, #1
   10d96:	d132      	bne.n	10dfe <_svfiprintf_r+0x176>
   10d98:	9b03      	ldr	r3, [sp, #12]
   10d9a:	1d1a      	adds	r2, r3, #4
   10d9c:	681b      	ldr	r3, [r3, #0]
   10d9e:	9203      	str	r2, [sp, #12]
   10da0:	2b00      	cmp	r3, #0
   10da2:	bfb8      	it	lt
   10da4:	f04f 33ff 	movlt.w	r3, #4294967295
   10da8:	3702      	adds	r7, #2
   10daa:	9305      	str	r3, [sp, #20]
   10dac:	4c2c      	ldr	r4, [pc, #176]	; (10e60 <_svfiprintf_r+0x1d8>)
   10dae:	7839      	ldrb	r1, [r7, #0]
   10db0:	2203      	movs	r2, #3
   10db2:	4620      	mov	r0, r4
   10db4:	f000 fa04 	bl	111c0 <memchr>
   10db8:	b138      	cbz	r0, 10dca <_svfiprintf_r+0x142>
   10dba:	2340      	movs	r3, #64	; 0x40
   10dbc:	1b00      	subs	r0, r0, r4
   10dbe:	fa03 f000 	lsl.w	r0, r3, r0
   10dc2:	9b04      	ldr	r3, [sp, #16]
   10dc4:	4303      	orrs	r3, r0
   10dc6:	9304      	str	r3, [sp, #16]
   10dc8:	3701      	adds	r7, #1
   10dca:	7839      	ldrb	r1, [r7, #0]
   10dcc:	4825      	ldr	r0, [pc, #148]	; (10e64 <_svfiprintf_r+0x1dc>)
   10dce:	f88d 1028 	strb.w	r1, [sp, #40]	; 0x28
   10dd2:	2206      	movs	r2, #6
   10dd4:	1c7e      	adds	r6, r7, #1
   10dd6:	f000 f9f3 	bl	111c0 <memchr>
   10dda:	2800      	cmp	r0, #0
   10ddc:	d035      	beq.n	10e4a <_svfiprintf_r+0x1c2>
   10dde:	4b22      	ldr	r3, [pc, #136]	; (10e68 <_svfiprintf_r+0x1e0>)
   10de0:	b9fb      	cbnz	r3, 10e22 <_svfiprintf_r+0x19a>
   10de2:	9b03      	ldr	r3, [sp, #12]
   10de4:	3307      	adds	r3, #7
   10de6:	f023 0307 	bic.w	r3, r3, #7
   10dea:	3308      	adds	r3, #8
   10dec:	9303      	str	r3, [sp, #12]
   10dee:	9b09      	ldr	r3, [sp, #36]	; 0x24
   10df0:	444b      	add	r3, r9
   10df2:	9309      	str	r3, [sp, #36]	; 0x24
   10df4:	e76c      	b.n	10cd0 <_svfiprintf_r+0x48>
   10df6:	fb00 3202 	mla	r2, r0, r2, r3
   10dfa:	2101      	movs	r1, #1
   10dfc:	e7a3      	b.n	10d46 <_svfiprintf_r+0xbe>
   10dfe:	2300      	movs	r3, #0
   10e00:	9305      	str	r3, [sp, #20]
   10e02:	4618      	mov	r0, r3
   10e04:	240a      	movs	r4, #10
   10e06:	460f      	mov	r7, r1
   10e08:	3101      	adds	r1, #1
   10e0a:	783a      	ldrb	r2, [r7, #0]
   10e0c:	3a30      	subs	r2, #48	; 0x30
   10e0e:	2a09      	cmp	r2, #9
   10e10:	d903      	bls.n	10e1a <_svfiprintf_r+0x192>
   10e12:	2b00      	cmp	r3, #0
   10e14:	d0ca      	beq.n	10dac <_svfiprintf_r+0x124>
   10e16:	9005      	str	r0, [sp, #20]
   10e18:	e7c8      	b.n	10dac <_svfiprintf_r+0x124>
   10e1a:	fb04 2000 	mla	r0, r4, r0, r2
   10e1e:	2301      	movs	r3, #1
   10e20:	e7f1      	b.n	10e06 <_svfiprintf_r+0x17e>
   10e22:	ab03      	add	r3, sp, #12
   10e24:	9300      	str	r3, [sp, #0]
   10e26:	462a      	mov	r2, r5
   10e28:	4b10      	ldr	r3, [pc, #64]	; (10e6c <_svfiprintf_r+0x1e4>)
   10e2a:	a904      	add	r1, sp, #16
   10e2c:	4640      	mov	r0, r8
   10e2e:	f3af 8000 	nop.w
   10e32:	f1b0 3fff 	cmp.w	r0, #4294967295
   10e36:	4681      	mov	r9, r0
   10e38:	d1d9      	bne.n	10dee <_svfiprintf_r+0x166>
   10e3a:	89ab      	ldrh	r3, [r5, #12]
   10e3c:	065b      	lsls	r3, r3, #25
   10e3e:	f53f af38 	bmi.w	10cb2 <_svfiprintf_r+0x2a>
   10e42:	9809      	ldr	r0, [sp, #36]	; 0x24
   10e44:	b01d      	add	sp, #116	; 0x74
   10e46:	e8bd 8ff0 	ldmia.w	sp!, {r4, r5, r6, r7, r8, r9, sl, fp, pc}
   10e4a:	ab03      	add	r3, sp, #12
   10e4c:	9300      	str	r3, [sp, #0]
   10e4e:	462a      	mov	r2, r5
   10e50:	4b06      	ldr	r3, [pc, #24]	; (10e6c <_svfiprintf_r+0x1e4>)
   10e52:	a904      	add	r1, sp, #16
   10e54:	4640      	mov	r0, r8
   10e56:	f000 f881 	bl	10f5c <_printf_i>
   10e5a:	e7ea      	b.n	10e32 <_svfiprintf_r+0x1aa>
   10e5c:	00012704 	.word	0x00012704
   10e60:	0001270a 	.word	0x0001270a
   10e64:	0001270e 	.word	0x0001270e
   10e68:	00000000 	.word	0x00000000
   10e6c:	00010bd1 	.word	0x00010bd1

00010e70 <_printf_common>:
   10e70:	e92d 47f0 	stmdb	sp!, {r4, r5, r6, r7, r8, r9, sl, lr}
   10e74:	4691      	mov	r9, r2
   10e76:	461f      	mov	r7, r3
   10e78:	688a      	ldr	r2, [r1, #8]
   10e7a:	690b      	ldr	r3, [r1, #16]
   10e7c:	f8dd 8020 	ldr.w	r8, [sp, #32]
   10e80:	4293      	cmp	r3, r2
   10e82:	bfb8      	it	lt
   10e84:	4613      	movlt	r3, r2
   10e86:	f8c9 3000 	str.w	r3, [r9]
   10e8a:	f891 2043 	ldrb.w	r2, [r1, #67]	; 0x43
   10e8e:	4606      	mov	r6, r0
   10e90:	460c      	mov	r4, r1
   10e92:	b112      	cbz	r2, 10e9a <_printf_common+0x2a>
   10e94:	3301      	adds	r3, #1
   10e96:	f8c9 3000 	str.w	r3, [r9]
   10e9a:	6823      	ldr	r3, [r4, #0]
   10e9c:	0699      	lsls	r1, r3, #26
   10e9e:	bf42      	ittt	mi
   10ea0:	f8d9 3000 	ldrmi.w	r3, [r9]
   10ea4:	3302      	addmi	r3, #2
   10ea6:	f8c9 3000 	strmi.w	r3, [r9]
   10eaa:	6825      	ldr	r5, [r4, #0]
   10eac:	f015 0506 	ands.w	r5, r5, #6
   10eb0:	d107      	bne.n	10ec2 <_printf_common+0x52>
   10eb2:	f104 0a19 	add.w	sl, r4, #25
   10eb6:	68e3      	ldr	r3, [r4, #12]
   10eb8:	f8d9 2000 	ldr.w	r2, [r9]
   10ebc:	1a9b      	subs	r3, r3, r2
   10ebe:	429d      	cmp	r5, r3
   10ec0:	db29      	blt.n	10f16 <_printf_common+0xa6>
   10ec2:	f894 3043 	ldrb.w	r3, [r4, #67]	; 0x43
   10ec6:	6822      	ldr	r2, [r4, #0]
   10ec8:	3300      	adds	r3, #0
   10eca:	bf18      	it	ne
   10ecc:	2301      	movne	r3, #1
   10ece:	0692      	lsls	r2, r2, #26
   10ed0:	d42e      	bmi.n	10f30 <_printf_common+0xc0>
   10ed2:	f104 0243 	add.w	r2, r4, #67	; 0x43
   10ed6:	4639      	mov	r1, r7
   10ed8:	4630      	mov	r0, r6
   10eda:	47c0      	blx	r8
   10edc:	3001      	adds	r0, #1
   10ede:	d021      	beq.n	10f24 <_printf_common+0xb4>
   10ee0:	6823      	ldr	r3, [r4, #0]
   10ee2:	68e5      	ldr	r5, [r4, #12]
   10ee4:	f8d9 2000 	ldr.w	r2, [r9]
   10ee8:	f003 0306 	and.w	r3, r3, #6
   10eec:	2b04      	cmp	r3, #4
   10eee:	bf08      	it	eq
   10ef0:	1aad      	subeq	r5, r5, r2
   10ef2:	68a3      	ldr	r3, [r4, #8]
   10ef4:	6922      	ldr	r2, [r4, #16]
   10ef6:	bf0c      	ite	eq
   10ef8:	ea25 75e5 	biceq.w	r5, r5, r5, asr #31
   10efc:	2500      	movne	r5, #0
   10efe:	4293      	cmp	r3, r2
   10f00:	bfc4      	itt	gt
   10f02:	1a9b      	subgt	r3, r3, r2
   10f04:	18ed      	addgt	r5, r5, r3
   10f06:	f04f 0900 	mov.w	r9, #0
   10f0a:	341a      	adds	r4, #26
   10f0c:	454d      	cmp	r5, r9
   10f0e:	d11b      	bne.n	10f48 <_printf_common+0xd8>
   10f10:	2000      	movs	r0, #0
   10f12:	e8bd 87f0 	ldmia.w	sp!, {r4, r5, r6, r7, r8, r9, sl, pc}
   10f16:	2301      	movs	r3, #1
   10f18:	4652      	mov	r2, sl
   10f1a:	4639      	mov	r1, r7
   10f1c:	4630      	mov	r0, r6
   10f1e:	47c0      	blx	r8
   10f20:	3001      	adds	r0, #1
   10f22:	d103      	bne.n	10f2c <_printf_common+0xbc>
   10f24:	f04f 30ff 	mov.w	r0, #4294967295
   10f28:	e8bd 87f0 	ldmia.w	sp!, {r4, r5, r6, r7, r8, r9, sl, pc}
   10f2c:	3501      	adds	r5, #1
   10f2e:	e7c2      	b.n	10eb6 <_printf_common+0x46>
   10f30:	18e1      	adds	r1, r4, r3
   10f32:	1c5a      	adds	r2, r3, #1
   10f34:	2030      	movs	r0, #48	; 0x30
   10f36:	f881 0043 	strb.w	r0, [r1, #67]	; 0x43
   10f3a:	4422      	add	r2, r4
   10f3c:	f894 1045 	ldrb.w	r1, [r4, #69]	; 0x45
   10f40:	f882 1043 	strb.w	r1, [r2, #67]	; 0x43
   10f44:	3302      	adds	r3, #2
   10f46:	e7c4      	b.n	10ed2 <_printf_common+0x62>
   10f48:	2301      	movs	r3, #1
   10f4a:	4622      	mov	r2, r4
   10f4c:	4639      	mov	r1, r7
   10f4e:	4630      	mov	r0, r6
   10f50:	47c0      	blx	r8
   10f52:	3001      	adds	r0, #1
   10f54:	d0e6      	beq.n	10f24 <_printf_common+0xb4>
   10f56:	f109 0901 	add.w	r9, r9, #1
   10f5a:	e7d7      	b.n	10f0c <_printf_common+0x9c>

00010f5c <_printf_i>:
   10f5c:	e92d 43f0 	stmdb	sp!, {r4, r5, r6, r7, r8, r9, lr}
   10f60:	4617      	mov	r7, r2
   10f62:	7e0a      	ldrb	r2, [r1, #24]
   10f64:	b085      	sub	sp, #20
   10f66:	2a6e      	cmp	r2, #110	; 0x6e
   10f68:	4698      	mov	r8, r3
   10f6a:	4606      	mov	r6, r0
   10f6c:	460c      	mov	r4, r1
   10f6e:	9b0c      	ldr	r3, [sp, #48]	; 0x30
   10f70:	f101 0e43 	add.w	lr, r1, #67	; 0x43
   10f74:	f000 80bc 	beq.w	110f0 <_printf_i+0x194>
   10f78:	d81a      	bhi.n	10fb0 <_printf_i+0x54>
   10f7a:	2a63      	cmp	r2, #99	; 0x63
   10f7c:	d02e      	beq.n	10fdc <_printf_i+0x80>
   10f7e:	d80a      	bhi.n	10f96 <_printf_i+0x3a>
   10f80:	2a00      	cmp	r2, #0
   10f82:	f000 80c8 	beq.w	11116 <_printf_i+0x1ba>
   10f86:	2a58      	cmp	r2, #88	; 0x58
   10f88:	f000 808a 	beq.w	110a0 <_printf_i+0x144>
   10f8c:	f104 0542 	add.w	r5, r4, #66	; 0x42
   10f90:	f884 2042 	strb.w	r2, [r4, #66]	; 0x42
   10f94:	e02a      	b.n	10fec <_printf_i+0x90>
   10f96:	2a64      	cmp	r2, #100	; 0x64
   10f98:	d001      	beq.n	10f9e <_printf_i+0x42>
   10f9a:	2a69      	cmp	r2, #105	; 0x69
   10f9c:	d1f6      	bne.n	10f8c <_printf_i+0x30>
   10f9e:	6821      	ldr	r1, [r4, #0]
   10fa0:	681a      	ldr	r2, [r3, #0]
   10fa2:	f011 0f80 	tst.w	r1, #128	; 0x80
   10fa6:	d023      	beq.n	10ff0 <_printf_i+0x94>
   10fa8:	1d11      	adds	r1, r2, #4
   10faa:	6019      	str	r1, [r3, #0]
   10fac:	6813      	ldr	r3, [r2, #0]
   10fae:	e027      	b.n	11000 <_printf_i+0xa4>
   10fb0:	2a73      	cmp	r2, #115	; 0x73
   10fb2:	f000 80b4 	beq.w	1111e <_printf_i+0x1c2>
   10fb6:	d808      	bhi.n	10fca <_printf_i+0x6e>
   10fb8:	2a6f      	cmp	r2, #111	; 0x6f
   10fba:	d02a      	beq.n	11012 <_printf_i+0xb6>
   10fbc:	2a70      	cmp	r2, #112	; 0x70
   10fbe:	d1e5      	bne.n	10f8c <_printf_i+0x30>
   10fc0:	680a      	ldr	r2, [r1, #0]
   10fc2:	f042 0220 	orr.w	r2, r2, #32
   10fc6:	600a      	str	r2, [r1, #0]
   10fc8:	e003      	b.n	10fd2 <_printf_i+0x76>
   10fca:	2a75      	cmp	r2, #117	; 0x75
   10fcc:	d021      	beq.n	11012 <_printf_i+0xb6>
   10fce:	2a78      	cmp	r2, #120	; 0x78
   10fd0:	d1dc      	bne.n	10f8c <_printf_i+0x30>
   10fd2:	2278      	movs	r2, #120	; 0x78
   10fd4:	f884 2045 	strb.w	r2, [r4, #69]	; 0x45
   10fd8:	496e      	ldr	r1, [pc, #440]	; (11194 <_printf_i+0x238>)
   10fda:	e064      	b.n	110a6 <_printf_i+0x14a>
   10fdc:	681a      	ldr	r2, [r3, #0]
   10fde:	f101 0542 	add.w	r5, r1, #66	; 0x42
   10fe2:	1d11      	adds	r1, r2, #4
   10fe4:	6019      	str	r1, [r3, #0]
   10fe6:	6813      	ldr	r3, [r2, #0]
   10fe8:	f884 3042 	strb.w	r3, [r4, #66]	; 0x42
   10fec:	2301      	movs	r3, #1
   10fee:	e0a3      	b.n	11138 <_printf_i+0x1dc>
   10ff0:	f011 0f40 	tst.w	r1, #64	; 0x40
   10ff4:	f102 0104 	add.w	r1, r2, #4
   10ff8:	6019      	str	r1, [r3, #0]
   10ffa:	d0d7      	beq.n	10fac <_printf_i+0x50>
   10ffc:	f9b2 3000 	ldrsh.w	r3, [r2]
   11000:	2b00      	cmp	r3, #0
   11002:	da03      	bge.n	1100c <_printf_i+0xb0>
   11004:	222d      	movs	r2, #45	; 0x2d
   11006:	425b      	negs	r3, r3
   11008:	f884 2043 	strb.w	r2, [r4, #67]	; 0x43
   1100c:	4962      	ldr	r1, [pc, #392]	; (11198 <_printf_i+0x23c>)
   1100e:	220a      	movs	r2, #10
   11010:	e017      	b.n	11042 <_printf_i+0xe6>
   11012:	6820      	ldr	r0, [r4, #0]
   11014:	6819      	ldr	r1, [r3, #0]
   11016:	f010 0f80 	tst.w	r0, #128	; 0x80
   1101a:	d003      	beq.n	11024 <_printf_i+0xc8>
   1101c:	1d08      	adds	r0, r1, #4
   1101e:	6018      	str	r0, [r3, #0]
   11020:	680b      	ldr	r3, [r1, #0]
   11022:	e006      	b.n	11032 <_printf_i+0xd6>
   11024:	f010 0f40 	tst.w	r0, #64	; 0x40
   11028:	f101 0004 	add.w	r0, r1, #4
   1102c:	6018      	str	r0, [r3, #0]
   1102e:	d0f7      	beq.n	11020 <_printf_i+0xc4>
   11030:	880b      	ldrh	r3, [r1, #0]
   11032:	4959      	ldr	r1, [pc, #356]	; (11198 <_printf_i+0x23c>)
   11034:	2a6f      	cmp	r2, #111	; 0x6f
   11036:	bf14      	ite	ne
   11038:	220a      	movne	r2, #10
   1103a:	2208      	moveq	r2, #8
   1103c:	2000      	movs	r0, #0
   1103e:	f884 0043 	strb.w	r0, [r4, #67]	; 0x43
   11042:	6865      	ldr	r5, [r4, #4]
   11044:	60a5      	str	r5, [r4, #8]
   11046:	2d00      	cmp	r5, #0
   11048:	f2c0 809c 	blt.w	11184 <_printf_i+0x228>
   1104c:	6820      	ldr	r0, [r4, #0]
   1104e:	f020 0004 	bic.w	r0, r0, #4
   11052:	6020      	str	r0, [r4, #0]
   11054:	2b00      	cmp	r3, #0
   11056:	d13f      	bne.n	110d8 <_printf_i+0x17c>
   11058:	2d00      	cmp	r5, #0
   1105a:	f040 8095 	bne.w	11188 <_printf_i+0x22c>
   1105e:	4675      	mov	r5, lr
   11060:	2a08      	cmp	r2, #8
   11062:	d10b      	bne.n	1107c <_printf_i+0x120>
   11064:	6823      	ldr	r3, [r4, #0]
   11066:	07da      	lsls	r2, r3, #31
   11068:	d508      	bpl.n	1107c <_printf_i+0x120>
   1106a:	6923      	ldr	r3, [r4, #16]
   1106c:	6862      	ldr	r2, [r4, #4]
   1106e:	429a      	cmp	r2, r3
   11070:	bfde      	ittt	le
   11072:	2330      	movle	r3, #48	; 0x30
   11074:	f805 3c01 	strble.w	r3, [r5, #-1]
   11078:	f105 35ff 	addle.w	r5, r5, #4294967295
   1107c:	ebae 0305 	sub.w	r3, lr, r5
   11080:	6123      	str	r3, [r4, #16]
   11082:	f8cd 8000 	str.w	r8, [sp]
   11086:	463b      	mov	r3, r7
   11088:	aa03      	add	r2, sp, #12
   1108a:	4621      	mov	r1, r4
   1108c:	4630      	mov	r0, r6
   1108e:	f7ff feef 	bl	10e70 <_printf_common>
   11092:	3001      	adds	r0, #1
   11094:	d155      	bne.n	11142 <_printf_i+0x1e6>
   11096:	f04f 30ff 	mov.w	r0, #4294967295
   1109a:	b005      	add	sp, #20
   1109c:	e8bd 83f0 	ldmia.w	sp!, {r4, r5, r6, r7, r8, r9, pc}
   110a0:	f881 2045 	strb.w	r2, [r1, #69]	; 0x45
   110a4:	493c      	ldr	r1, [pc, #240]	; (11198 <_printf_i+0x23c>)
   110a6:	6822      	ldr	r2, [r4, #0]
   110a8:	6818      	ldr	r0, [r3, #0]
   110aa:	f012 0f80 	tst.w	r2, #128	; 0x80
   110ae:	f100 0504 	add.w	r5, r0, #4
   110b2:	601d      	str	r5, [r3, #0]
   110b4:	d001      	beq.n	110ba <_printf_i+0x15e>
   110b6:	6803      	ldr	r3, [r0, #0]
   110b8:	e002      	b.n	110c0 <_printf_i+0x164>
   110ba:	0655      	lsls	r5, r2, #25
   110bc:	d5fb      	bpl.n	110b6 <_printf_i+0x15a>
   110be:	8803      	ldrh	r3, [r0, #0]
   110c0:	07d0      	lsls	r0, r2, #31
   110c2:	bf44      	itt	mi
   110c4:	f042 0220 	orrmi.w	r2, r2, #32
   110c8:	6022      	strmi	r2, [r4, #0]
   110ca:	b91b      	cbnz	r3, 110d4 <_printf_i+0x178>
   110cc:	6822      	ldr	r2, [r4, #0]
   110ce:	f022 0220 	bic.w	r2, r2, #32
   110d2:	6022      	str	r2, [r4, #0]
   110d4:	2210      	movs	r2, #16
   110d6:	e7b1      	b.n	1103c <_printf_i+0xe0>
   110d8:	4675      	mov	r5, lr
   110da:	fbb3 f0f2 	udiv	r0, r3, r2
   110de:	fb02 3310 	mls	r3, r2, r0, r3
   110e2:	5ccb      	ldrb	r3, [r1, r3]
   110e4:	f805 3d01 	strb.w	r3, [r5, #-1]!
   110e8:	4603      	mov	r3, r0
   110ea:	2800      	cmp	r0, #0
   110ec:	d1f5      	bne.n	110da <_printf_i+0x17e>
   110ee:	e7b7      	b.n	11060 <_printf_i+0x104>
   110f0:	6808      	ldr	r0, [r1, #0]
   110f2:	681a      	ldr	r2, [r3, #0]
   110f4:	6949      	ldr	r1, [r1, #20]
   110f6:	f010 0f80 	tst.w	r0, #128	; 0x80
   110fa:	d004      	beq.n	11106 <_printf_i+0x1aa>
   110fc:	1d10      	adds	r0, r2, #4
   110fe:	6018      	str	r0, [r3, #0]
   11100:	6813      	ldr	r3, [r2, #0]
   11102:	6019      	str	r1, [r3, #0]
   11104:	e007      	b.n	11116 <_printf_i+0x1ba>
   11106:	f010 0f40 	tst.w	r0, #64	; 0x40
   1110a:	f102 0004 	add.w	r0, r2, #4
   1110e:	6018      	str	r0, [r3, #0]
   11110:	6813      	ldr	r3, [r2, #0]
   11112:	d0f6      	beq.n	11102 <_printf_i+0x1a6>
   11114:	8019      	strh	r1, [r3, #0]
   11116:	2300      	movs	r3, #0
   11118:	6123      	str	r3, [r4, #16]
   1111a:	4675      	mov	r5, lr
   1111c:	e7b1      	b.n	11082 <_printf_i+0x126>
   1111e:	681a      	ldr	r2, [r3, #0]
   11120:	1d11      	adds	r1, r2, #4
   11122:	6019      	str	r1, [r3, #0]
   11124:	6815      	ldr	r5, [r2, #0]
   11126:	6862      	ldr	r2, [r4, #4]
   11128:	2100      	movs	r1, #0
   1112a:	4628      	mov	r0, r5
   1112c:	f000 f848 	bl	111c0 <memchr>
   11130:	b108      	cbz	r0, 11136 <_printf_i+0x1da>
   11132:	1b40      	subs	r0, r0, r5
   11134:	6060      	str	r0, [r4, #4]
   11136:	6863      	ldr	r3, [r4, #4]
   11138:	6123      	str	r3, [r4, #16]
   1113a:	2300      	movs	r3, #0
   1113c:	f884 3043 	strb.w	r3, [r4, #67]	; 0x43
   11140:	e79f      	b.n	11082 <_printf_i+0x126>
   11142:	6923      	ldr	r3, [r4, #16]
   11144:	462a      	mov	r2, r5
   11146:	4639      	mov	r1, r7
   11148:	4630      	mov	r0, r6
   1114a:	47c0      	blx	r8
   1114c:	3001      	adds	r0, #1
   1114e:	d0a2      	beq.n	11096 <_printf_i+0x13a>
   11150:	6823      	ldr	r3, [r4, #0]
   11152:	079b      	lsls	r3, r3, #30
   11154:	d507      	bpl.n	11166 <_printf_i+0x20a>
   11156:	2500      	movs	r5, #0
   11158:	f104 0919 	add.w	r9, r4, #25
   1115c:	68e3      	ldr	r3, [r4, #12]
   1115e:	9a03      	ldr	r2, [sp, #12]
   11160:	1a9b      	subs	r3, r3, r2
   11162:	429d      	cmp	r5, r3
   11164:	db05      	blt.n	11172 <_printf_i+0x216>
   11166:	68e0      	ldr	r0, [r4, #12]
   11168:	9b03      	ldr	r3, [sp, #12]
   1116a:	4298      	cmp	r0, r3
   1116c:	bfb8      	it	lt
   1116e:	4618      	movlt	r0, r3
   11170:	e793      	b.n	1109a <_printf_i+0x13e>
   11172:	2301      	movs	r3, #1
   11174:	464a      	mov	r2, r9
   11176:	4639      	mov	r1, r7
   11178:	4630      	mov	r0, r6
   1117a:	47c0      	blx	r8
   1117c:	3001      	adds	r0, #1
   1117e:	d08a      	beq.n	11096 <_printf_i+0x13a>
   11180:	3501      	adds	r5, #1
   11182:	e7eb      	b.n	1115c <_printf_i+0x200>
   11184:	2b00      	cmp	r3, #0
   11186:	d1a7      	bne.n	110d8 <_printf_i+0x17c>
   11188:	780b      	ldrb	r3, [r1, #0]
   1118a:	f884 3042 	strb.w	r3, [r4, #66]	; 0x42
   1118e:	f104 0542 	add.w	r5, r4, #66	; 0x42
   11192:	e765      	b.n	11060 <_printf_i+0x104>
   11194:	00012726 	.word	0x00012726
   11198:	00012715 	.word	0x00012715

0001119c <_sbrk_r>:
   1119c:	b538      	push	{r3, r4, r5, lr}
   1119e:	4c06      	ldr	r4, [pc, #24]	; (111b8 <_sbrk_r+0x1c>)
   111a0:	2300      	movs	r3, #0
   111a2:	4605      	mov	r5, r0
   111a4:	4608      	mov	r0, r1
   111a6:	6023      	str	r3, [r4, #0]
   111a8:	f7f7 fd48 	bl	8c3c <_sbrk>
   111ac:	1c43      	adds	r3, r0, #1
   111ae:	d102      	bne.n	111b6 <_sbrk_r+0x1a>
   111b0:	6823      	ldr	r3, [r4, #0]
   111b2:	b103      	cbz	r3, 111b6 <_sbrk_r+0x1a>
   111b4:	602b      	str	r3, [r5, #0]
   111b6:	bd38      	pop	{r3, r4, r5, pc}
   111b8:	2000fa08 	.word	0x2000fa08
   111bc:	00000000 	.word	0x00000000

000111c0 <memchr>:
   111c0:	f001 01ff 	and.w	r1, r1, #255	; 0xff
   111c4:	2a10      	cmp	r2, #16
   111c6:	db2b      	blt.n	11220 <memchr+0x60>
   111c8:	f010 0f07 	tst.w	r0, #7
   111cc:	d008      	beq.n	111e0 <memchr+0x20>
   111ce:	f810 3b01 	ldrb.w	r3, [r0], #1
   111d2:	3a01      	subs	r2, #1
   111d4:	428b      	cmp	r3, r1
   111d6:	d02d      	beq.n	11234 <memchr+0x74>
   111d8:	f010 0f07 	tst.w	r0, #7
   111dc:	b342      	cbz	r2, 11230 <memchr+0x70>
   111de:	d1f6      	bne.n	111ce <memchr+0xe>
   111e0:	b4f0      	push	{r4, r5, r6, r7}
   111e2:	ea41 2101 	orr.w	r1, r1, r1, lsl #8
   111e6:	ea41 4101 	orr.w	r1, r1, r1, lsl #16
   111ea:	f022 0407 	bic.w	r4, r2, #7
   111ee:	f07f 0700 	mvns.w	r7, #0
   111f2:	2300      	movs	r3, #0
   111f4:	e8f0 5602 	ldrd	r5, r6, [r0], #8
   111f8:	3c08      	subs	r4, #8
   111fa:	ea85 0501 	eor.w	r5, r5, r1
   111fe:	ea86 0601 	eor.w	r6, r6, r1
   11202:	fa85 f547 	uadd8	r5, r5, r7
   11206:	faa3 f587 	sel	r5, r3, r7
   1120a:	fa86 f647 	uadd8	r6, r6, r7
   1120e:	faa5 f687 	sel	r6, r5, r7
   11212:	b98e      	cbnz	r6, 11238 <memchr+0x78>
   11214:	d1ee      	bne.n	111f4 <memchr+0x34>
   11216:	bcf0      	pop	{r4, r5, r6, r7}
   11218:	f001 01ff 	and.w	r1, r1, #255	; 0xff
   1121c:	f002 0207 	and.w	r2, r2, #7
   11220:	b132      	cbz	r2, 11230 <memchr+0x70>
   11222:	f810 3b01 	ldrb.w	r3, [r0], #1
   11226:	3a01      	subs	r2, #1
   11228:	ea83 0301 	eor.w	r3, r3, r1
   1122c:	b113      	cbz	r3, 11234 <memchr+0x74>
   1122e:	d1f8      	bne.n	11222 <memchr+0x62>
   11230:	2000      	movs	r0, #0
   11232:	4770      	bx	lr
   11234:	3801      	subs	r0, #1
   11236:	4770      	bx	lr
   11238:	2d00      	cmp	r5, #0
   1123a:	bf06      	itte	eq
   1123c:	4635      	moveq	r5, r6
   1123e:	3803      	subeq	r0, #3
   11240:	3807      	subne	r0, #7
   11242:	f015 0f01 	tst.w	r5, #1
   11246:	d107      	bne.n	11258 <memchr+0x98>
   11248:	3001      	adds	r0, #1
   1124a:	f415 7f80 	tst.w	r5, #256	; 0x100
   1124e:	bf02      	ittt	eq
   11250:	3001      	addeq	r0, #1
   11252:	f415 3fc0 	tsteq.w	r5, #98304	; 0x18000
   11256:	3001      	addeq	r0, #1
   11258:	bcf0      	pop	{r4, r5, r6, r7}
   1125a:	3801      	subs	r0, #1
   1125c:	4770      	bx	lr
   1125e:	bf00      	nop

00011260 <memmove>:
   11260:	4288      	cmp	r0, r1
   11262:	b510      	push	{r4, lr}
   11264:	eb01 0302 	add.w	r3, r1, r2
   11268:	d803      	bhi.n	11272 <memmove+0x12>
   1126a:	1e42      	subs	r2, r0, #1
   1126c:	4299      	cmp	r1, r3
   1126e:	d10c      	bne.n	1128a <memmove+0x2a>
   11270:	bd10      	pop	{r4, pc}
   11272:	4298      	cmp	r0, r3
   11274:	d2f9      	bcs.n	1126a <memmove+0xa>
   11276:	1881      	adds	r1, r0, r2
   11278:	1ad2      	subs	r2, r2, r3
   1127a:	42d3      	cmn	r3, r2
   1127c:	d100      	bne.n	11280 <memmove+0x20>
   1127e:	bd10      	pop	{r4, pc}
   11280:	f813 4d01 	ldrb.w	r4, [r3, #-1]!
   11284:	f801 4d01 	strb.w	r4, [r1, #-1]!
   11288:	e7f7      	b.n	1127a <memmove+0x1a>
   1128a:	f811 4b01 	ldrb.w	r4, [r1], #1
   1128e:	f802 4f01 	strb.w	r4, [r2, #1]!
   11292:	e7eb      	b.n	1126c <memmove+0xc>

00011294 <__malloc_lock>:
   11294:	4770      	bx	lr

00011296 <__malloc_unlock>:
   11296:	4770      	bx	lr

00011298 <_free_r>:
   11298:	b538      	push	{r3, r4, r5, lr}
   1129a:	4605      	mov	r5, r0
   1129c:	2900      	cmp	r1, #0
   1129e:	d045      	beq.n	1132c <_free_r+0x94>
   112a0:	f851 3c04 	ldr.w	r3, [r1, #-4]
   112a4:	1f0c      	subs	r4, r1, #4
   112a6:	2b00      	cmp	r3, #0
   112a8:	bfb8      	it	lt
   112aa:	18e4      	addlt	r4, r4, r3
   112ac:	f7ff fff2 	bl	11294 <__malloc_lock>
   112b0:	4a1f      	ldr	r2, [pc, #124]	; (11330 <_free_r+0x98>)
   112b2:	6813      	ldr	r3, [r2, #0]
   112b4:	4610      	mov	r0, r2
   112b6:	b933      	cbnz	r3, 112c6 <_free_r+0x2e>
   112b8:	6063      	str	r3, [r4, #4]
   112ba:	6014      	str	r4, [r2, #0]
   112bc:	4628      	mov	r0, r5
   112be:	e8bd 4038 	ldmia.w	sp!, {r3, r4, r5, lr}
   112c2:	f7ff bfe8 	b.w	11296 <__malloc_unlock>
   112c6:	42a3      	cmp	r3, r4
   112c8:	d90c      	bls.n	112e4 <_free_r+0x4c>
   112ca:	6821      	ldr	r1, [r4, #0]
   112cc:	1862      	adds	r2, r4, r1
   112ce:	4293      	cmp	r3, r2
   112d0:	bf04      	itt	eq
   112d2:	681a      	ldreq	r2, [r3, #0]
   112d4:	685b      	ldreq	r3, [r3, #4]
   112d6:	6063      	str	r3, [r4, #4]
   112d8:	bf04      	itt	eq
   112da:	1852      	addeq	r2, r2, r1
   112dc:	6022      	streq	r2, [r4, #0]
   112de:	6004      	str	r4, [r0, #0]
   112e0:	e7ec      	b.n	112bc <_free_r+0x24>
   112e2:	4613      	mov	r3, r2
   112e4:	685a      	ldr	r2, [r3, #4]
   112e6:	b10a      	cbz	r2, 112ec <_free_r+0x54>
   112e8:	42a2      	cmp	r2, r4
   112ea:	d9fa      	bls.n	112e2 <_free_r+0x4a>
   112ec:	6819      	ldr	r1, [r3, #0]
   112ee:	1858      	adds	r0, r3, r1
   112f0:	42a0      	cmp	r0, r4
   112f2:	d10b      	bne.n	1130c <_free_r+0x74>
   112f4:	6820      	ldr	r0, [r4, #0]
   112f6:	4401      	add	r1, r0
   112f8:	1858      	adds	r0, r3, r1
   112fa:	4282      	cmp	r2, r0
   112fc:	6019      	str	r1, [r3, #0]
   112fe:	d1dd      	bne.n	112bc <_free_r+0x24>
   11300:	6810      	ldr	r0, [r2, #0]
   11302:	6852      	ldr	r2, [r2, #4]
   11304:	605a      	str	r2, [r3, #4]
   11306:	4401      	add	r1, r0
   11308:	6019      	str	r1, [r3, #0]
   1130a:	e7d7      	b.n	112bc <_free_r+0x24>
   1130c:	d902      	bls.n	11314 <_free_r+0x7c>
   1130e:	230c      	movs	r3, #12
   11310:	602b      	str	r3, [r5, #0]
   11312:	e7d3      	b.n	112bc <_free_r+0x24>
   11314:	6820      	ldr	r0, [r4, #0]
   11316:	1821      	adds	r1, r4, r0
   11318:	428a      	cmp	r2, r1
   1131a:	bf04      	itt	eq
   1131c:	6811      	ldreq	r1, [r2, #0]
   1131e:	6852      	ldreq	r2, [r2, #4]
   11320:	6062      	str	r2, [r4, #4]
   11322:	bf04      	itt	eq
   11324:	1809      	addeq	r1, r1, r0
   11326:	6021      	streq	r1, [r4, #0]
   11328:	605c      	str	r4, [r3, #4]
   1132a:	e7c7      	b.n	112bc <_free_r+0x24>
   1132c:	bd38      	pop	{r3, r4, r5, pc}
   1132e:	bf00      	nop
   11330:	2000dae4 	.word	0x2000dae4

00011334 <_realloc_r>:
   11334:	b5f8      	push	{r3, r4, r5, r6, r7, lr}
   11336:	4607      	mov	r7, r0
   11338:	4614      	mov	r4, r2
   1133a:	460e      	mov	r6, r1
   1133c:	b921      	cbnz	r1, 11348 <_realloc_r+0x14>
   1133e:	4611      	mov	r1, r2
   11340:	e8bd 40f8 	ldmia.w	sp!, {r3, r4, r5, r6, r7, lr}
   11344:	f7ff bbe6 	b.w	10b14 <_malloc_r>
   11348:	b922      	cbnz	r2, 11354 <_realloc_r+0x20>
   1134a:	f7ff ffa5 	bl	11298 <_free_r>
   1134e:	4625      	mov	r5, r4
   11350:	4628      	mov	r0, r5
   11352:	bdf8      	pop	{r3, r4, r5, r6, r7, pc}
   11354:	f000 f814 	bl	11380 <_malloc_usable_size_r>
   11358:	4284      	cmp	r4, r0
   1135a:	d90f      	bls.n	1137c <_realloc_r+0x48>
   1135c:	4621      	mov	r1, r4
   1135e:	4638      	mov	r0, r7
   11360:	f7ff fbd8 	bl	10b14 <_malloc_r>
   11364:	4605      	mov	r5, r0
   11366:	2800      	cmp	r0, #0
   11368:	d0f2      	beq.n	11350 <_realloc_r+0x1c>
   1136a:	4631      	mov	r1, r6
   1136c:	4622      	mov	r2, r4
   1136e:	f7ff fb7b 	bl	10a68 <memcpy>
   11372:	4631      	mov	r1, r6
   11374:	4638      	mov	r0, r7
   11376:	f7ff ff8f 	bl	11298 <_free_r>
   1137a:	e7e9      	b.n	11350 <_realloc_r+0x1c>
   1137c:	4635      	mov	r5, r6
   1137e:	e7e7      	b.n	11350 <_realloc_r+0x1c>

00011380 <_malloc_usable_size_r>:
   11380:	f851 0c04 	ldr.w	r0, [r1, #-4]
   11384:	2800      	cmp	r0, #0
   11386:	f1a0 0004 	sub.w	r0, r0, #4
   1138a:	bfbc      	itt	lt
   1138c:	580b      	ldrlt	r3, [r1, r0]
   1138e:	18c0      	addlt	r0, r0, r3
   11390:	4770      	bx	lr
   11392:	0000      	movs	r0, r0
   11394:	50697a49 	.word	0x50697a49
   11398:	5273756c 	.word	0x5273756c
   1139c:	00000078 	.word	0x00000078

000113a0 <csel_rates>:
   113a0:	00155cc0 000f4240 00077a10 00036ee8     .\..@B...z...n..

000113b0 <dmxTable>:
   113b0:	00020000 002f0012 00830056 00ef00b6     ....../.V.......
   113c0:	0170012d 020101b7 02a20250 035202f8     -.p.....P.....R.
   113d0:	040e03ae 04d60470 05a9053e 06880617     ....p...>.......
   113e0:	077106fb 086407e9 096008e1 0a6609e2     ..q...d...`...f.
   113f0:	0b740aec 0c8b0bfe 0daa0d1a 0ed20e3d     ..t.........=...
   11400:	10010f68 1138109b 127611d6 13bc1318     h.....8...v.....
   11410:	15091462 165d15b2 17b8170a 19191868     b.....].....h...
   11420:	1a8219cd 1bf01b38 1d651caa 1ee11e22     ....8.....e."...
   11430:	20621fa1 21ea2125 237722b0 250b2440     ..b %!.!."w#@$.%
   11440:	26a425d6 28432773 29e72914 2b912abc     .%.&s'C(.).).*.+
   11450:	2d412c69 2ef62e1b 30b12fd3 32703190     i,A-...../.0.1p2
   11460:	34353352 3600351a 37cf36e7 39a338b8     R354.5.6.6.7.8.9
   11470:	3b7d3a8f 3d5b3c6b 3f3e3e4c 41264032     .:};k<[=L>>?2@&A
   11480:	4313421c 4505440b 46fb45ff 48f647f8     .B.C.D.E.E.F.G.H
   11490:	4af649f5 4cfa4bf7 4f034dfe 51105009     .I.J.K.L.M.O.P.Q
   114a0:	53225219 5538542d 57535645 59725862     .R"S-T8UEVSWbXrY
   114b0:	5b955a83 5dbd5ca8 5fe95ed2 62196100     .Z.[.\.].^._.a.b
   114c0:	644d6332 66856569 68c267a3 6b0369e2     2cMdie.f.g.h.i.k
   114d0:	6d476c25 6f906e6b 71dd70b6 742e7305     %lGmkn.o.p.q.s.t
   114e0:	76837558 78db77af 7b387a09 7d997c68     Xu.v.w.x.z8{h|.}
   114f0:	7ffd7eca 82658131 84d1839b 87418609     .~..1.e.......A.
   11500:	89b5887a 8c2c8af0 8ea78d69 91268fe6     z.....,.i.....&.
   11510:	93a89267 962e94eb 98b89773 9b4699fe     g.......s.....F.
   11520:	9dd79c8e a06b9f20 a303a1b7 a59fa451     .... .k.....Q...
   11530:	a83ea6ee aae1a98f ad87ac34 b031aedb     ..>.....4.....1.
   11540:	b2deb187 b58eb436 b842b6e8 bafab99e     ....6.....B.....
   11550:	bdb4bc57 c072bf13 c334c1d3 c5f9c496     W.....r...4.....
   11560:	c8c1c75c cb8cca26 ce5bccf3 d12dcfc4     \...&.....[...-.
   11570:	d402d297 d6dbd56e d9b6d848 dc95db25     ....n...H...%...
   11580:	df77de06 e25de0ea e545e3d1 e831e6bb     ..w...]...E...1.
   11590:	eb20e9a8 ee12ec98 f107ef8c f3fff282     .. .............
   115a0:	f6faf57c f9f9f879 fcfafb79 fffffe7c     |...y...y...|...
   115b0:	0000ffff 00030002 000b0006 001b0012     ................
   115c0:	00330026 00540043 007c0067 00ad0094     &.3.C.T.g.|.....
   115d0:	00e600c9 01270106 0170014b 01c10198     ......'.K.p.....
   115e0:	021b01ed 027c024b 02e602b0 0358031e     ....K.|.......X.
   115f0:	03d20394 04540412 04de0498 05700526     ......T.....&.p.
   11600:	060a05bc 06ad065b 07580701 080a07b0     ....[.....X.....
   11610:	08c50867 09880926 0a5409ed 0b270abc     g...&.....T...'.
   11620:	0c020b93 0ce60c73 0dd10d5b 0ec50e4a     ....s...[...J...
   11630:	0fc10f42 10c51042 11d1114a 12e6125a     B...B...J...Z...
   11640:	14021373 15271493 165315bc 178816ed     s.....'...S.....
   11650:	18c51825 1a0a1966 1b571aaf 1cac1c01     %...f.....W.....
   11660:	1e0a1d5a 1f6f1ebc 20dd2025 22532197     Z.....o.% . .!S"
   11670:	23d12311 25572493 26e5261d 287b27af     .#.#.$W%.&.&.'{(
   11680:	2a1a294a 2bc02aec 2d6f2c97 2f262e49     J).*.*.+.,o-I.&/
   11690:	30e53004 32ac31c7 347b3392 36523566     .0.0.1.2.3{4f5R6
   116a0:	38323741 3a193924 3c093b10 3e013d04     A728$9.:.;.<.=.>
   116b0:	40013f00 42094104 44194310 46314524     .?.@.A.B.C.D$E1F
   116c0:	48524741 4a7a4965 4cab4b92 4ee44dc6     AGRHeIzJ.K.L.M.N
   116d0:	51255003 536e5248 55bf5496 581856eb     .P%QHRnS.T.U.V.X
   116e0:	5a7a5948 5ce45bae 5f555e1b 61cf6091     HYzZ.[.\.^U_.`.a
   116f0:	6451630f 66db6595 696d6823 6c086ab9     .cQd.e.f#hmi.j.l
   11700:	6eaa6d58 71556ffe 740772ad 76c27564     Xm.n.oUq.r.tdu.v
   11710:	79857823 7c507aea 7f247db9 81ff8090     #x.y.zP|.}$.....
   11720:	84e28370 87ce8657 8ac28947 8dbe8c3f     p...W...G...?...
   11730:	90c28f3f 93ce9247 96e29557 99fe986f     ?...G...W...o...
   11740:	9d239b8f a04f9eb8 a384a1e9 a6c1a522     ..#...O....."...
   11750:	aa06a862 ad53abab b0a8aefd b406b256     b.....S.....V...
   11760:	b76bb5b7 bad9b921 be4fbc93 c1ccc00c     ..k.!.....O.....
   11770:	c552c38e c8e1c718 cc77caab d015ce45     ..R.......w.E...
   11780:	d3bcd1e7 d76ad592 db21d945 dee0dcff     ......j.E.!.....
   11790:	e2a7e0c2 e676e48d ea4de861 ee2dec3c     ......v.a.M.<.-.
   117a0:	f214f01f f604f40b f9fcf7ff fdfcfbfb     ................
   117b0:	ffffffff 00020000 00040003 00060005     ................
   117c0:	00080007 000d000a 00160011 0021001b     ..............!.
   117d0:	00300028 00430039 0059004d 00740066     (.0.9.C.M.Y.f.t.
   117e0:	00920082 00b500a3 00dd00c9 010a00f3     ................
   117f0:	013c0122 01730157 01af0190 01f101cf     ".<.W.s.........
   11800:	02390214 0286025f 02da02b0 03340306     ..9._.........4.
   11810:	03940363 03fb03c7 04680431 04dc04a1     c.......1.h.....
   11820:	05570519 05d90597 0662061d 06f306aa     ..W.......b.....
   11830:	078b073e 082a07d9 08d1087c 09800927     >.....*.|...'...
   11840:	0a3609da 0af50a95 0bbc0b57 0c8b0c22     ..6.....W..."...
   11850:	0d620cf5 0e420dd1 0f2a0eb5 101b0fa2     ..b...B...*.....
   11860:	11151097 12181195 1323129c 143813ac     ..........#...8.
   11870:	155614c5 167d15e8 17ad1714 18e71849     ..V...}.....I...
   11880:	1a2a1988 1b781ad0 1cce1c22 1e2f1d7e     ..*...x."...~./.
   11890:	1f9a1ee3 210e2053 228d21cd 24162350     ....S .!.!."P#.$
   118a0:	25aa24df 27472677 28ef281a 2aa229c7     .$.%w&G'.(.(.).*
   118b0:	2c602b7f 2e282d42 2ffb2f10 31d830e8     .+`,B-(.././.0.1
   118c0:	33c132cb 35b534ba 37b436b3 39be38b8     .2.3.4.5.6.7.8.9
   118d0:	3bd43ac8 3df53ce3 40213f09 4259413c     .:.;.<.=.?!@<AYB
   118e0:	449d4379 46ec45c3 49474818 4bae4a79     yC.D.E.F.HGIyJ.K
   118f0:	4e214ce6 50a04f5f 532b51e4 55c25475     .L!N_O.P.Q+SuT.U
   11900:	58655712 5b1559bc 5dd15c72 609a5f34     .WeX.Y.[r\.]4_.`
   11910:	636f6203 665164de 693f67c6 6c3a6abb     .boc.dQf.g?i.j:l
   11920:	6f426dbd 725770cb 757973e7 78a8770f     .mBo.pWr.syu.w.x
   11930:	7be47a44 7f2d7d87 828480d7 85e88434     Dz.{.}-.....4...
   11940:	8959879e 8cd78b16 90638e9c 93fd922f     ..Y.......c./...
   11950:	97a495cf 9b5a997d 9f1c9d39 a2eda103     ....}.Z.9.......
   11960:	a6cca4db aab8a8c0 aeb3acb4 b2bcb0b6     ................
   11970:	b6d3b4c6 baf8b8e4 bf2cbd10 c36dc14b     ..........,.K.m.
   11980:	c7bec594 cc1dc9eb d08ace52 d506d2c6     ........R.......
   11990:	d991d74a de2adbdc e2d2e07c e78ae52c     J.....*.|...,...
   119a0:	ec50e9eb f125eeb8 f609f395 fafcf881     ..P...%.........
   119b0:	fffffd7b 0000ffff                       {.......

000119b8 <random_table>:
   119b8:	01f40000 05dc03e8 09c407d0 0dac0bb8     ................
   119c8:	0dac0fa0 09c40bb8 05dc07d0 01f403e8     ................

000119d8 <random_table2>:
   119d8:	030006be 01a30455 030c0642 010507b7     ....U...B.......
   119e8:	003e0560 02bb0664 00f60627 004f0522     `.>.d...'...".O.
   119f8:	70657453 6e776f44 00000000 40003000     StepDown.....0.@
   11a08:	40003400 41012000 41014000 43000000     .4.@. .A.@.A...C
   11a18:	43000400                                ...C

00011a1c <_i2cms>:
   11a1c:	00000003 60200014 00000100 0000006e     ...... `....n...
   11a2c:	00d70000 05b8d800 50697a49 0073756c     ........IziPlus.
   11a3c:	50697a49 5473756c 72656d69 00000000     IziPlusTimer....
   11a4c:	65776f50 6e6f2072 203e2d20 71657246     Power on -> Freq
   11a5c:	6425203a 4d64252e 52207a48 3a657461     : %d.%dMHz Rate:
   11a6c:	6b642520 00007a48                        %dkHz..

00011a74 <test_lvls.81333>:
   11a74:	00000008 00000800 00080000 08000000     ................

00011a84 <rgbw_sensitivity.81334>:
   11a84:	ff85ff9a                                ....

00011a88 <corr_tjc_tables.81335>:
	...

00011a90 <corr_temp_tables.81336>:
	...

00011a98 <fw_voltage_tables.81337>:
   11a98:	2ee04e20 98582328                        N..(#X.

00011aa0 <fw_minvoltage_tables.81338>:
   11aa0:	881f2746                                F'..

00011aa4 <fw_max_current_tables.81339>:
   11aa4:	03200320 03200320                        . . . .

00011aac <bbc_red.81340>:
   11aac:	8e8e8e8e 10232874 00000009 00000000     ....t(#.........
   11abc:	00000000                                ....

00011ac0 <bbc_green.81341>:
   11ac0:	514a433f 52431e47 8c7b6f64 c6b0aa9b     ?CJQG.CRdo{.....
   11ad0:	000000d1                                ....

00011ad4 <bbc_blue.81342>:
   11ad4:	00000000 21100200 60513e30 afa18b77     .......!0>Q`w...
   11ae4:	000000c4                                ....

00011ae8 <bbc_white.81343>:
   11ae8:	59301800 e8e5f1a8 d1dae2e3 adb7bec7     ..0Y............
   11af8:	000000a5                                ....

00011afc <patch_rgbw.81345>:
   11afc:	03020100                                ....

00011b00 <modes.81348>:
   11b00:	00000001 68432031 656e6e61 0000006c     ....1 Channel...
	...
   11b24:	00000005 68432034 4d206e61 65747361     ....4 Chan Maste
   11b34:	00000072 00000000 00000000 00000000     r...............
   11b44:	00000000 00000004 68432034 656e6e61     ........4 Channe
   11b54:	0000006c 00000000 00000000 00000000     l...............
	...
   11b6c:	00000001 754f2031 74757074 00000000     ....1 Output....
	...
   11b90:	00000002 616e7554 57656c62 65746968     ....TunableWhite
	...
   11bb4:	00000001 6d726157 6d6d6944 00676e69     ....WarmDimming.
	...
   11bd8:	00000002 6e616843 766f6567 54207265     ....Changeover T
   11be8:	00000057 00000000 00000000 00000000     W...............
   11bf8:	00000000 00000001 6e616843 766f6567     ........Changeov
   11c08:	57207265 00000044 00000000 00000000     er WD...........
	...
   11c20:	00000008 68432034 656e6e61 3631206c     ....4 Channel 16
   11c30:	7469622d 00000000 00000000 00000000     -bit............
   11c40:	00000000                                ....

00011c44 <configs.81349>:
   11c44:	00000101 00000000 00000012 72727543     ............Curr
   11c54:	20746e65 00746573 00000000 00000000     ent set.........
   11c64:	00012201 00000000 00000003 746c6946     ."..........Filt
   11c74:	6d207265 0065646f 00000000 00000000     er mode.........
   11c84:	00022301 003c0046 0000005a 3143544e     .#..F.<.Z...NTC1
   11c94:	6d655420 72502070 0000746f 00000000      Temp Prot......
   11ca4:	00030c01 003c0046 0000005a 3243544e     ....F.<.Z...NTC2
   11cb4:	6d655420 72502070 0000746f 00000000      Temp Prot......
   11cc4:	00040d01 00000000 00000001 6e616843     ............Chan
   11cd4:	206c656e 70617753 00000000 00000000     nel Swap........
   11ce4:	00050f01 00000000 00000020 746e6f43     ........ ...Cont
   11cf4:	20746361 614d2031 00000070 00000000     act 1 Map.......

00011d04 <monitors.81350>:
   11d04:	00000101 00000000 00000000 00000000     ................
   11d14:	00000000 1a010000 00000001 00000000     ................
	...
   11d30:	00031701 00000000 00000000 00000000     ................
   11d40:	00000000 04010000 00000004 00000000     ................
	...
   11d5c:	00050501 00000000 00000000 00000000     ................
   11d6c:	00000000 06010000 00000006 00000000     ................
	...
   11d88:	00070d01 00000000 00000000 00000000     ................
   11d98:	00000000 0e010000 00000008 00000000     ................
	...
   11db4:	00090f01 00000000 00000000 00000000     ................
   11dc4:	00000000 13010000 0000000a 00000000     ................
	...
   11de0:	000b1901 00000000 00000000 00000000     ................
   11df0:	00000000 15010000 0000000c 00000000     ................
	...
   11e0c:	000d1e02 00000000 00000000 00000000     ................
   11e1c:	00000000 20020000 0000000f 00000000     ....... ........
	...
   11e38:	00112102 00000000 00000000 00000000     .!..............
   11e48:	00000000 24020000 00000013 00000000     .......$........
	...
   11e64:	00152202 00000000 00000000 00000000     ."..............
   11e74:	00000000 1f010000 00000016 00000000     ................
	...
   11e90:	00172b02 00000000 00000000 00000000     .+..............
	...

00011ea8 <CfgSwap_table>:
   11ea8:	03020100 02030100 03010200 01030200     ................
   11eb8:	02010300 01020300 03020001 02030001     ................
   11ec8:	03000201 00030201 02000301 00020301     ................
   11ed8:	03010002 01030002 03000102 00030102     ................
   11ee8:	01000302 00010302 02010003 01020003     ................
   11ef8:	02000103 00020103 01000203 00010203     ................
   11f08:	2d495a49 76697244 34434365 0000002b     IZI-DriveCC4+...
   11f18:	74697753 61206863 76697463 70282065     Switch active (p
   11f28:	73736572 6d697420 64252065 29736d20     ress time %d ms)
   11f38:	00000000 74697753 61206863 76697463     ....Switch activ
   11f48:	6e612065 65722064 74726f70 68206465     e and reported h
   11f58:	6c646e61 00006465 74697753 61206863     andled..Switch a
   11f68:	76697463 64252065 696c6320 00736b63     ctive %d clicks.
   11f78:	65776f50 70752d72 7372202c 25203a74     Power-up, rst: %
   11f88:	77202c64 25203a64 00000064 63746157     d, wd: %d...Watc
   11f98:	676f6468 73657220 202c7465 3a747372     hdog reset, rst:
   11fa8:	2c642520 3a647720 00642520 20444f42      %d, wd: %d.BOD 
   11fb8:	65736572 72202c74 203a7473 202c6425     reset, rst: %d, 
   11fc8:	203a6477 00006425 20747845 65736572     wd: %d..Ext rese
   11fd8:	72202c74 203a7473 202c6425 203a6477     t, rst: %d, wd: 
   11fe8:	00006425 20737953 65736572 72202c74     %d..Sys reset, r
   11ff8:	203a7473 202c6425 203a6477 00006425     st: %d, wd: %d..
   12008:	61766e49 2064696c 65736572 74732074     Invalid reset st
   12018:	74637572 00000000 73726556 206e6f69     ruct....Version 
   12028:	3a707061 2e642520 252e6425 62202c64     app: %d.%d.%d, b
   12038:	3a746f6f 2e642520 252e6425 00000064     oot: %d.%d.%d...
   12048:	6f747541 6e656720 0000002e 0000002d     Auto gen....-...

00012058 <ntc_table>:
   12058:	ffffffff bac3ffff a1a6abb2 9194989c     ................
   12068:	85888b8e 7d7f8183 7577797b 70717274     .......}{ywutrqp
   12078:	6b6c6d6e 66676869 62636465 5f606061     nmlkihgfedcba``_
   12088:	5c5c5d5e 59595a5b 56575758 54545555     ^]\\[ZYYXWWVUUTT
   12098:	51525253 4f505051 4d4e4e4f 4b4c4c4d     SRRQQPPOONNMMLLK
   120a8:	4a4a4a4b 48484949 46474748 45454646     KJJJIIHHHGGFFFEE
   120b8:	43444445 42424343 41414142 40404040     EDDCCCBBBAAA@@@@
   120c8:	3e3f3f3f 3d3d3e3e 3c3c3d3d 3b3b3c3c     ???>>>====<<<<;;
   120d8:	3a3a3a3b 3939393a 38383839 37373838     ;::::99998888877
   120e8:	36363737 35353636 34353535 34343434     7766665555544444
   120f8:	33333333 32323233 31313232 30313131     3333322222111110
   12108:	30303030 2f2f2f30 2e2f2f2f 2e2e2e2e     00000//////.....
   12118:	2d2d2d2d 2c2d2d2d 2c2c2c2c 2b2b2b2c     -------,,,,,,+++
   12128:	2a2b2b2b 2a2a2a2a 29292a2a 29292929     +++*******))))))
   12138:	28282829 28282828 27272727 27272727     )(((((((''''''''
   12148:	26262626 25262626 25252525 24252525     &&&&&&&%%%%%%%%$
   12158:	24242424 23242424 23232323 23232323     $$$$$$$#########
   12168:	22222222 22222222 21212122 21212121     """""""""!!!!!!!
   12178:	20202121 20202020 1f202020 1f1f1f1f     !!         .....
   12188:	1f1f1f1f 1e1e1e1f 1e1e1e1e 1d1e1e1e     ................
   12198:	1d1d1d1d 1d1d1d1d 1c1c1c1d 1c1c1c1c     ................
   121a8:	1b1c1c1c 1b1b1b1b 1b1b1b1b 1a1a1b1b     ................
   121b8:	1a1a1a1a 1a1a1a1a 1919191a 19191919     ................
   121c8:	19191919 18181819 18181818 18181818     ................
   121d8:	17171718 17171717 17171717 16161617     ................
   121e8:	16161616 16161616 15151616 15151515     ................
   121f8:	15151515 14151515 14141414 14141414     ................
   12208:	14141414 13131313 13131313 13131313     ................
   12218:	12121213 12121212 12121212 11121212     ................
   12228:	11111111 11111111 11111111 10101111     ................
   12238:	10101010 10101010 10101010 0f0f0f10     ................
   12248:	0f0f0f0f 0f0f0f0f 0f0f0f0f 00000e0e     ................

00012258 <adc_filters>:
   12258:	03030303 00030606                       ........

00012260 <adc_channels>:
   12260:	07060800 001a0203                       ........

00012268 <adc2_filters>:
   12268:	00000606                                ....

0001226c <adc2_channels>:
   1226c:	00000a0f                                ....

00012270 <g_Adc_12bitFullRange>:
   12270:	00001000 6c616e41 545f676f 72656d69     ....Analog_Timer
   12280:	00000000                                ....

00012284 <color_table>:
   12284:	00000064 00000064 003c6464 00640064     d...d...dd<.d.d.
   12294:	64646464 00146464 003c1e64 121e0000     dddddd..d.<.....
   122a4:	0a000000 14001400 14140000 64282814     .............((d
   122b4:	003c3c00 6e6b6e55 206e776f 6f727265     .<<.Unknown erro
   122c4:	00000072 6e6b6e55 206e776f 6e726177     r...Unknown warn
   122d4:	00676e69 6e6b6e55 206e776f 74696e69     ing.Unknown init
   122e4:	61747320 00006574 72617453 41432074      state..Start CA
   122f4:	7562204e 00000073 72617453 5a492074     N bus...Start IZ
   12304:	62202b49 00007375 72617453 676e6974     I+ bus..Starting
   12314:	00534f20 7074754f 31207475 65706f20      OS.Output 1 ope
   12324:	0000006e 74696d45 20726574 706d6574     n...Emitter temp
   12334:	69616620 0000006c 65746e49 74206e72      fail...Intern t
   12344:	65706d65 75746172 68206572 00686769     emperature high.
   12354:	3143544e 6d657420 61726570 65727574     NTC1 temperature
   12364:	6f6f7420 67696820 00000068 74696d45      too high...Emit
   12374:	20726574 006d6f63 20646142 206d6f63     ter com.Bad com 
   12384:	6c617571 00797469 70707553 7620796c     quality.Supply v
   12394:	61746c6f 74206567 68206f6f 00686769     oltage too high.
   123a4:	65776f50 68632072 6f742031 6968206f     Power ch1 too hi
   123b4:	00006867 7720534f 696e7261 0000676e     gh..OS warning..
   123c4:	696d6954 7720676e 696e7261 4d44676e     Timing warningDM
   123d4:	61642058 69206174 6d6f636e 74656c70     X data incomplet
   123e4:	72615565 766f2074 6c667265 0000776f     eUart overflow..
   123f4:	70206f4e 75646f72 6f697463 6164206e     No production da
   12404:	00006174 65206f4e 7474696d 00007265     ta..No emitter..
   12414:	64726148 65726177 72726520 0000726f     Hardware error..
   12424:	63206f4e 756d6d6f 6163696e 6e6f6974     No communication
   12434:	00000000 206e6956 206f6f74 00776f6c     ....Vin too low.
   12444:	7074754f 31207475 6f687320 00007472     Output 1 short..
   12454:	2043544e 6f727265 00000072 74696d45     NTC error...Emit
   12464:	20726574 61746164 00000000 6f636e49     ter data....Inco
   12474:	656c706d 63206574 00006d6f 454c4449     mplete com..IDLE
   12484:	00000000 09632509 25097525 75250975     .....%c.%u.%u.%u
   12494:	00000a0d 20726d54 00637653 00676f6c     ....Tmr Svc.log.

000124a4 <crc16Table>:
   124a4:	10210000 30632042 50a54084 70e760c6     ..!.B c0.@.P.`.p
   124b4:	91298108 b16ba14a d1adc18c f1efe1ce     ..).J.k.........
   124c4:	02101231 22523273 429452b5 62d672f7     1...s2R".R.B.r.b
   124d4:	83189339 a35ab37b c39cd3bd e3def3ff     9...{.Z.........
   124e4:	34432462 14010420 74c764e6 548544a4     b$C4 ....d.t.D.T
   124f4:	b54ba56a 95098528 f5cfe5ee d58dc5ac     j.K.(...........
   12504:	26723653 06301611 66f676d7 46b45695     S6r&..0..v.f.V.F
   12514:	a77ab75b 87389719 e7fef7df c7bcd79d     [.z...8.........
   12524:	58e548c4 78a76886 18610840 38232802     .H.X.h.x@.a..(#8
   12534:	d9edc9cc f9afe98e 99698948 b92ba90a     ........H.i...+.
   12544:	4ad45af5 6a967ab7 0a501a71 2a123a33     .Z.J.z.jq.P.3:.*
   12554:	cbdcdbfd eb9efbbf 8b589b79 ab1abb3b     ........y.X.;...
   12564:	7c876ca6 5cc54ce4 3c032c22 1c410c60     .l.|.L.\",.<`.A.
   12574:	fd8fedae ddcdcdec bd0bad2a 9d498d68     ........*...h.I.
   12584:	6eb67e97 4ef45ed5 2e323e13 0e701e51     .~.n.^.N.>2.Q.p.
   12594:	efbeff9f cffcdfdd af3abf1b 8f789f59     ..........:.Y.x.
   125a4:	81a99188 a1ebb1ca c12dd10c e16ff14e     ..........-.N.o.
   125b4:	00a11080 20e330c2 40255004 60677046     .....0. .P%@Fpg`
   125c4:	939883b9 b3daa3fb d31cc33d f35ee37f     ........=.....^.
   125d4:	129002b1 32d222f3 52144235 72566277     .....".25B.RwbVr
   125e4:	a5cbb5ea 858995a8 e54ff56e c50dd52c     ........n.O.,...
   125f4:	24c334e2 048114a0 64477466 44055424     .4.$....ftGd$T.D
   12604:	b7faa7db 97b88799 f77ee75f d73cc71d     ........_.~...<.
   12614:	36f226d3 16b00691 76766657 56344615     .&.6....Wfvv.F4V
   12624:	c96dd94c e92ff90e 89e999c8 a9abb98a     L.m.../.........
   12634:	48655844 68277806 08e118c0 28a33882     DXeH.x'h.....8.(
   12644:	db5ccb7d fb1eeb3f 9bd88bf9 bb9aabbb     }.\.?...........
   12654:	5a544a75 7a166a37 1ad00af1 3a922ab3     uJTZ7j.z.....*.:
   12664:	ed0ffd2e cd4ddd6c ad8bbdaa 8dc99de8     ....l.M.........
   12674:	6c077c26 4c455c64 2c833ca2 0cc11ce0     &|.ld\EL.<.,....
   12684:	ff3eef1f df7ccf5d bfbaaf9b 9ff88fd9     ..>.].|.........
   12694:	7e366e17 5e744e55 3eb22e93 1ef00ed1     .n6~UNt^...>....

000126a4 <__sf_fake_stderr>:
	...

000126c4 <__sf_fake_stdin>:
	...

000126e4 <__sf_fake_stdout>:
	...
   12704:	2b302d23 6c680020 6665004c 47464567     #-0+ .hlL.efgEFG
   12714:	32313000 36353433 41393837 45444342     .0123456789ABCDE
   12724:	31300046 35343332 39383736 64636261     F.0123456789abcd
   12734:	00006665                                ef..

00012738 <_init>:
   12738:	b5f8      	push	{r3, r4, r5, r6, r7, lr}
   1273a:	bf00      	nop
   1273c:	bcf8      	pop	{r3, r4, r5, r6, r7}
   1273e:	bc08      	pop	{r3}
   12740:	469e      	mov	lr, r3
   12742:	4770      	bx	lr

00012744 <__init_array_start>:
   12744:	00004289 	.word	0x00004289

00012748 <_fini>:
   12748:	b5f8      	push	{r3, r4, r5, r6, r7, lr}
   1274a:	bf00      	nop
   1274c:	bcf8      	pop	{r3, r4, r5, r6, r7}
   1274e:	bc08      	pop	{r3}
   12750:	469e      	mov	lr, r3
   12752:	4770      	bx	lr

00012754 <__fini_array_start>:
   12754:	00004265 	.word	0x00004265
